---
triple:          'arm64-apple-darwin'
binary-path:     game
relocations:
  - { offsetInCU: 0x8FCA, offset: 0x8FCA, size: 0x8, addend: 0x0, symName: __ZNSt3__112__to_addressB8ue170006IP6EntityEEPT_S4_, symObjAddr: 0x468, symBinAddr: 0x1000023C4, symSize: 0x14 }
  - { offsetInCU: 0x8FFF, offset: 0x8FFF, size: 0x8, addend: 0x0, symName: __ZNSt3__13maxB8ue170006ImEERKT_S3_S3_, symObjAddr: 0x884, symBinAddr: 0x1000027E0, symSize: 0x2C }
  - { offsetInCU: 0x9042, offset: 0x9042, size: 0x8, addend: 0x0, symName: __ZNSt3__13minB8ue170006ImEERKT_S3_S3_, symObjAddr: 0x8B0, symBinAddr: 0x10000280C, symSize: 0x2C }
  - { offsetInCU: 0x926F, offset: 0x926F, size: 0x8, addend: 0x0, symName: __ZNSt3__13minB8ue170006ImNS_6__lessIvvEEEERKT_S5_S5_T0_, symObjAddr: 0x948, symBinAddr: 0x1000028A4, symSize: 0x54 }
  - { offsetInCU: 0x930E, offset: 0x930E, size: 0x8, addend: 0x0, symName: __ZNSt3__120__throw_length_errorB8ue170006EPKc, symObjAddr: 0xA24, symBinAddr: 0x100002980, symSize: 0x64 }
  - { offsetInCU: 0x9338, offset: 0x9338, size: 0x8, addend: 0x0, symName: __ZNSt3__13maxB8ue170006ImNS_6__lessIvvEEEERKT_S5_S5_T0_, symObjAddr: 0xB68, symBinAddr: 0x100002AC4, symSize: 0x54 }
  - { offsetInCU: 0x9392, offset: 0x9392, size: 0x8, addend: 0x0, symName: __ZNSt3__119__allocate_at_leastB8ue170006INS_9allocatorIP6EntityEEEENS_19__allocation_resultINS_16allocator_traitsIT_E7pointerEEERS7_m, symObjAddr: 0xCCC, symBinAddr: 0x100002C28, symSize: 0x40 }
  - { offsetInCU: 0x93D5, offset: 0x93D5, size: 0x8, addend: 0x0, symName: __ZNSt3__117__libcpp_allocateB8ue170006Emm, symObjAddr: 0xE6C, symBinAddr: 0x100002DC8, symSize: 0x60 }
  - { offsetInCU: 0x942F, offset: 0x942F, size: 0x8, addend: 0x0, symName: __ZNSt3__124__is_overaligned_for_newB8ue170006Em, symObjAddr: 0xECC, symBinAddr: 0x100002E28, symSize: 0x20 }
  - { offsetInCU: 0x945D, offset: 0x945D, size: 0x8, addend: 0x0, symName: __ZNSt3__121__libcpp_operator_newB8ue170006IJmSt11align_val_tEEEPvDpT_, symObjAddr: 0xEEC, symBinAddr: 0x100002E48, symSize: 0x2C }
  - { offsetInCU: 0x94AA, offset: 0x94AA, size: 0x8, addend: 0x0, symName: __ZNSt3__121__libcpp_operator_newB8ue170006IJmEEEPvDpT_, symObjAddr: 0xF18, symBinAddr: 0x100002E74, symSize: 0x24 }
  - { offsetInCU: 0x94E3, offset: 0x94E3, size: 0x8, addend: 0x0, symName: __ZNSt3__142__uninitialized_allocator_move_if_noexceptB8ue170006INS_9allocatorIP6EntityEENS_16reverse_iteratorIPS3_EES7_S3_vEET1_RT_T0_SB_S8_, symObjAddr: 0x1058, symBinAddr: 0x100002FB4, symSize: 0x78 }
  - { offsetInCU: 0x9560, offset: 0x9560, size: 0x8, addend: 0x0, symName: __ZNSt3__14swapB8ue170006IPP6EntityEENS_9enable_ifIXaasr21is_move_constructibleIT_EE5valuesr18is_move_assignableIS5_EE5valueEvE4typeERS5_S8_, symObjAddr: 0x111C, symBinAddr: 0x100003078, symSize: 0x3C }
  - { offsetInCU: 0x95B1, offset: 0x95B1, size: 0x8, addend: 0x0, symName: __ZNSt3__14moveB8ue170006INS_16reverse_iteratorIPP6EntityEES5_EET0_T_S7_S6_, symObjAddr: 0x124C, symBinAddr: 0x1000031A8, symSize: 0x78 }
  - { offsetInCU: 0x960B, offset: 0x960B, size: 0x8, addend: 0x0, symName: __ZNSt3__16__moveB8ue170006INS_17_ClassicAlgPolicyENS_16reverse_iteratorIPP6EntityEES6_S6_EENS_4pairIT0_T2_EES8_T1_S9_, symObjAddr: 0x12C4, symBinAddr: 0x100003220, symSize: 0x64 }
  - { offsetInCU: 0x9677, offset: 0x9677, size: 0x8, addend: 0x0, symName: __ZNSt3__123__dispatch_copy_or_moveB8ue170006INS_17_ClassicAlgPolicyENS_11__move_loopIS1_EENS_14__move_trivialENS_16reverse_iteratorIPP6EntityEES9_S9_EENS_4pairIT2_T4_EESB_T3_SC_, symObjAddr: 0x1328, symBinAddr: 0x100003284, symSize: 0x64 }
  - { offsetInCU: 0x96F5, offset: 0x96F5, size: 0x8, addend: 0x0, symName: __ZNSt3__121__unwrap_and_dispatchB8ue170006INS_10__overloadINS_11__move_loopINS_17_ClassicAlgPolicyEEENS_14__move_trivialEEENS_16reverse_iteratorIPP6EntityEESB_SB_Li0EEENS_4pairIT0_T2_EESD_T1_SE_, symObjAddr: 0x138C, symBinAddr: 0x1000032E8, symSize: 0x12C }
  - { offsetInCU: 0x9785, offset: 0x9785, size: 0x8, addend: 0x0, symName: __ZNSt3__114__unwrap_rangeB8ue170006INS_16reverse_iteratorIPP6EntityEES5_EENS_4pairIT0_S7_EET_S9_, symObjAddr: 0x14B8, symBinAddr: 0x100003414, symSize: 0x84 }
  - { offsetInCU: 0x9900, offset: 0x9900, size: 0x8, addend: 0x0, symName: __ZNSt3__113__unwrap_iterB8ue170006INS_16reverse_iteratorIPP6EntityEENS_18__unwrap_iter_implIS5_Lb0EEELi0EEEDTclsrT0_8__unwrapclsr3stdE7declvalIT_EEEES9_, symObjAddr: 0x15DC, symBinAddr: 0x100003538, symSize: 0x44 }
  - { offsetInCU: 0x9944, offset: 0x9944, size: 0x8, addend: 0x0, symName: __ZNSt3__19make_pairB8ue170006INS_16reverse_iteratorIPP6EntityEES5_EENS_4pairINS_18__unwrap_ref_decayIT_E4typeENS7_IT0_E4typeEEEOS8_OSB_, symObjAddr: 0x1620, symBinAddr: 0x10000357C, symSize: 0x38 }
  - { offsetInCU: 0x9993, offset: 0x9993, size: 0x8, addend: 0x0, symName: __ZNSt3__114__rewrap_rangeB8ue170006INS_16reverse_iteratorIPP6EntityEES5_EET_S6_T0_, symObjAddr: 0x1658, symBinAddr: 0x1000035B4, symSize: 0x5C }
  - { offsetInCU: 0x99DF, offset: 0x99DF, size: 0x8, addend: 0x0, symName: __ZNSt3__113__rewrap_iterB8ue170006INS_16reverse_iteratorIPP6EntityEES5_NS_18__unwrap_iter_implIS5_Lb0EEEEET_S8_T0_, symObjAddr: 0x16B4, symBinAddr: 0x100003610, symSize: 0x74 }
  - { offsetInCU: 0x9A34, offset: 0x9A34, size: 0x8, addend: 0x0, symName: __ZNSt3__1neB8ue170006IPP6EntityS3_EEbRKNS_16reverse_iteratorIT_EERKNS4_IT0_EE, symObjAddr: 0x1728, symBinAddr: 0x100003684, symSize: 0x48 }
  - { offsetInCU: 0x9B32, offset: 0x9B32, size: 0x8, addend: 0x0, symName: __ZNSt3__119__libcpp_deallocateB8ue170006EPvmm, symObjAddr: 0x1B20, symBinAddr: 0x100003A7C, symSize: 0x60 }
  - { offsetInCU: 0x9B97, offset: 0x9B97, size: 0x8, addend: 0x0, symName: __ZNSt3__127__do_deallocate_handle_sizeB8ue170006IJSt11align_val_tEEEvPvmDpT_, symObjAddr: 0x1B80, symBinAddr: 0x100003ADC, symSize: 0x30 }
  - { offsetInCU: 0x9BEA, offset: 0x9BEA, size: 0x8, addend: 0x0, symName: __ZNSt3__127__do_deallocate_handle_sizeB8ue170006IJEEEvPvmDpT_, symObjAddr: 0x1BB0, symBinAddr: 0x100003B0C, symSize: 0x28 }
  - { offsetInCU: 0x9C28, offset: 0x9C28, size: 0x8, addend: 0x0, symName: __ZNSt3__124__libcpp_operator_deleteB8ue170006IJPvSt11align_val_tEEEvDpT_, symObjAddr: 0x1BD8, symBinAddr: 0x100003B34, symSize: 0x2C }
  - { offsetInCU: 0x9C71, offset: 0x9C71, size: 0x8, addend: 0x0, symName: __ZNSt3__124__libcpp_operator_deleteB8ue170006IJPvEEEvDpT_, symObjAddr: 0x1C04, symBinAddr: 0x100003B60, symSize: 0x24 }
  - { offsetInCU: 0x9F51, offset: 0x9F51, size: 0x8, addend: 0x0, symName: __ZSt28__throw_bad_array_new_lengthB8ue170006v, symObjAddr: 0xE38, symBinAddr: 0x100002D94, symSize: 0x34 }
  - { offsetInCU: 0xAAFD, offset: 0xAAFD, size: 0x8, addend: 0x0, symName: __ZNSt3__16vectorIP6EntityNS_9allocatorIS2_EEE26__swap_out_circular_bufferERNS_14__split_bufferIS2_RS4_EE, symObjAddr: 0x68C, symBinAddr: 0x1000025E8, symSize: 0x110 }
  - { offsetInCU: 0xCE4C, offset: 0xCE4C, size: 0x8, addend: 0x0, symName: __ZN6Entity8addGroupEm, symObjAddr: 0x0, symBinAddr: 0x100001F5C, symSize: 0x68 }
  - { offsetInCU: 0xCE81, offset: 0xCE81, size: 0x8, addend: 0x0, symName: __ZNSt3__16bitsetILm32EEixB8ue170006Em, symObjAddr: 0x68, symBinAddr: 0x100001FC4, symSize: 0x3C }
  - { offsetInCU: 0xCEB5, offset: 0xCEB5, size: 0x8, addend: 0x0, symName: __ZNSt3__115__bit_referenceINS_8__bitsetILm1ELm32EEELb1EEaSB8ue170006Eb, symObjAddr: 0xA4, symBinAddr: 0x100002000, symSize: 0x6C }
  - { offsetInCU: 0xCEE8, offset: 0xCEE8, size: 0x8, addend: 0x0, symName: __ZN7Manager10addToGroupEP6Entitym, symObjAddr: 0x110, symBinAddr: 0x10000206C, symSize: 0x40 }
  - { offsetInCU: 0xCF29, offset: 0xCF29, size: 0x8, addend: 0x0, symName: __ZNSt3__15arrayINS_6vectorIP6EntityNS_9allocatorIS3_EEEELm32EEixB8ue170006Em, symObjAddr: 0x150, symBinAddr: 0x1000020AC, symSize: 0x28 }
  - { offsetInCU: 0xCF5B, offset: 0xCF5B, size: 0x8, addend: 0x0, symName: __ZNSt3__16vectorIP6EntityNS_9allocatorIS2_EEE12emplace_backIJRS2_EEES7_DpOT_, symObjAddr: 0x178, symBinAddr: 0x1000020D4, symSize: 0x74 }
  - { offsetInCU: 0xCF9C, offset: 0xCF9C, size: 0x8, addend: 0x0, symName: __ZNSt3__16vectorIP6EntityNS_9allocatorIS2_EEE9__end_capB8ue170006Ev, symObjAddr: 0x1EC, symBinAddr: 0x100002148, symSize: 0x28 }
  - { offsetInCU: 0xCFC1, offset: 0xCFC1, size: 0x8, addend: 0x0, symName: __ZNSt3__16vectorIP6EntityNS_9allocatorIS2_EEE22__construct_one_at_endB8ue170006IJRS2_EEEvDpOT_, symObjAddr: 0x214, symBinAddr: 0x100002170, symSize: 0x90 }
  - { offsetInCU: 0xD00E, offset: 0xD00E, size: 0x8, addend: 0x0, symName: __ZNSt3__16vectorIP6EntityNS_9allocatorIS2_EEE24__emplace_back_slow_pathIJRS2_EEEvDpOT_, symObjAddr: 0x2A4, symBinAddr: 0x100002200, symSize: 0xD8 }
  - { offsetInCU: 0xD06D, offset: 0xD06D, size: 0x8, addend: 0x0, symName: __ZNSt3__16vectorIP6EntityNS_9allocatorIS2_EEE4backB8ue170006Ev, symObjAddr: 0x37C, symBinAddr: 0x1000022D8, symSize: 0x1C }
  - { offsetInCU: 0xD092, offset: 0xD092, size: 0x8, addend: 0x0, symName: __ZNSt3__117__compressed_pairIPP6EntityNS_9allocatorIS2_EEE5firstB8ue170006Ev, symObjAddr: 0x398, symBinAddr: 0x1000022F4, symSize: 0x24 }
  - { offsetInCU: 0xD0B7, offset: 0xD0B7, size: 0x8, addend: 0x0, symName: __ZNSt3__122__compressed_pair_elemIPP6EntityLi0ELb0EE5__getB8ue170006Ev, symObjAddr: 0x3BC, symBinAddr: 0x100002318, symSize: 0x14 }
  - { offsetInCU: 0xD0F5, offset: 0xD0F5, size: 0x8, addend: 0x0, symName: __ZNSt3__16vectorIP6EntityNS_9allocatorIS2_EEE21_ConstructTransactionC1B8ue170006ERS5_m, symObjAddr: 0x3D0, symBinAddr: 0x10000232C, symSize: 0x3C }
  - { offsetInCU: 0xD13C, offset: 0xD13C, size: 0x8, addend: 0x0, symName: __ZNSt3__116allocator_traitsINS_9allocatorIP6EntityEEE9constructB8ue170006IS3_JRS3_EvEEvRS4_PT_DpOT0_, symObjAddr: 0x40C, symBinAddr: 0x100002368, symSize: 0x34 }
  - { offsetInCU: 0xD193, offset: 0xD193, size: 0x8, addend: 0x0, symName: __ZNSt3__16vectorIP6EntityNS_9allocatorIS2_EEE7__allocB8ue170006Ev, symObjAddr: 0x440, symBinAddr: 0x10000239C, symSize: 0x28 }
  - { offsetInCU: 0xD1B8, offset: 0xD1B8, size: 0x8, addend: 0x0, symName: __ZNSt3__16vectorIP6EntityNS_9allocatorIS2_EEE21_ConstructTransactionD1B8ue170006Ev, symObjAddr: 0x47C, symBinAddr: 0x1000023D8, symSize: 0x2C }
  - { offsetInCU: 0xD1E1, offset: 0xD1E1, size: 0x8, addend: 0x0, symName: __ZNSt3__16vectorIP6EntityNS_9allocatorIS2_EEE21_ConstructTransactionC2B8ue170006ERS5_m, symObjAddr: 0x4A8, symBinAddr: 0x100002404, symSize: 0x44 }
  - { offsetInCU: 0xD228, offset: 0xD228, size: 0x8, addend: 0x0, symName: __ZNSt3__19allocatorIP6EntityE9constructB8ue170006IS2_JRS2_EEEvPT_DpOT0_, symObjAddr: 0x4EC, symBinAddr: 0x100002448, symSize: 0x28 }
  - { offsetInCU: 0xD27D, offset: 0xD27D, size: 0x8, addend: 0x0, symName: __ZNSt3__117__compressed_pairIPP6EntityNS_9allocatorIS2_EEE6secondB8ue170006Ev, symObjAddr: 0x514, symBinAddr: 0x100002470, symSize: 0x24 }
  - { offsetInCU: 0xD2A2, offset: 0xD2A2, size: 0x8, addend: 0x0, symName: __ZNSt3__122__compressed_pair_elemINS_9allocatorIP6EntityEELi1ELb1EE5__getB8ue170006Ev, symObjAddr: 0x538, symBinAddr: 0x100002494, symSize: 0x14 }
  - { offsetInCU: 0xD2C7, offset: 0xD2C7, size: 0x8, addend: 0x0, symName: __ZNSt3__16vectorIP6EntityNS_9allocatorIS2_EEE21_ConstructTransactionD2B8ue170006Ev, symObjAddr: 0x54C, symBinAddr: 0x1000024A8, symSize: 0x20 }
  - { offsetInCU: 0xD2EF, offset: 0xD2EF, size: 0x8, addend: 0x0, symName: __ZNKSt3__16vectorIP6EntityNS_9allocatorIS2_EEE11__recommendB8ue170006Em, symObjAddr: 0x56C, symBinAddr: 0x1000024C8, symSize: 0xB4 }
  - { offsetInCU: 0xD343, offset: 0xD343, size: 0x8, addend: 0x0, symName: __ZNKSt3__16vectorIP6EntityNS_9allocatorIS2_EEE4sizeB8ue170006Ev, symObjAddr: 0x620, symBinAddr: 0x10000257C, symSize: 0x28 }
  - { offsetInCU: 0xD368, offset: 0xD368, size: 0x8, addend: 0x0, symName: __ZNSt3__114__split_bufferIP6EntityRNS_9allocatorIS2_EEEC1EmmS5_, symObjAddr: 0x648, symBinAddr: 0x1000025A4, symSize: 0x44 }
  - { offsetInCU: 0xD3BD, offset: 0xD3BD, size: 0x8, addend: 0x0, symName: __ZNSt3__114__split_bufferIP6EntityRNS_9allocatorIS2_EEED1Ev, symObjAddr: 0x79C, symBinAddr: 0x1000026F8, symSize: 0x2C }
  - { offsetInCU: 0xD3E7, offset: 0xD3E7, size: 0x8, addend: 0x0, symName: __ZNKSt3__16vectorIP6EntityNS_9allocatorIS2_EEE8max_sizeEv, symObjAddr: 0x7C8, symBinAddr: 0x100002724, symSize: 0x60 }
  - { offsetInCU: 0xD40E, offset: 0xD40E, size: 0x8, addend: 0x0, symName: __ZNKSt3__16vectorIP6EntityNS_9allocatorIS2_EEE20__throw_length_errorB8ue170006Ev, symObjAddr: 0x828, symBinAddr: 0x100002784, symSize: 0x1C }
  - { offsetInCU: 0xD433, offset: 0xD433, size: 0x8, addend: 0x0, symName: __ZNKSt3__16vectorIP6EntityNS_9allocatorIS2_EEE8capacityB8ue170006Ev, symObjAddr: 0x844, symBinAddr: 0x1000027A0, symSize: 0x40 }
  - { offsetInCU: 0xD462, offset: 0xD462, size: 0x8, addend: 0x0, symName: __ZNSt3__116allocator_traitsINS_9allocatorIP6EntityEEE8max_sizeB8ue170006IS4_vEEmRKS4_, symObjAddr: 0x8DC, symBinAddr: 0x100002838, symSize: 0x24 }
  - { offsetInCU: 0xD490, offset: 0xD490, size: 0x8, addend: 0x0, symName: __ZNKSt3__16vectorIP6EntityNS_9allocatorIS2_EEE7__allocB8ue170006Ev, symObjAddr: 0x900, symBinAddr: 0x10000285C, symSize: 0x28 }
  - { offsetInCU: 0xD4B5, offset: 0xD4B5, size: 0x8, addend: 0x0, symName: __ZNSt3__114numeric_limitsIlE3maxB8ue170006Ev, symObjAddr: 0x928, symBinAddr: 0x100002884, symSize: 0x14 }
  - { offsetInCU: 0xD4DD, offset: 0xD4DD, size: 0x8, addend: 0x0, symName: __ZNKSt3__16__lessIvvEclB8ue170006ImmEEbRKT_RKT0_, symObjAddr: 0x99C, symBinAddr: 0x1000028F8, symSize: 0x34 }
  - { offsetInCU: 0xD530, offset: 0xD530, size: 0x8, addend: 0x0, symName: __ZNKSt3__19allocatorIP6EntityE8max_sizeB8ue170006Ev, symObjAddr: 0x9D0, symBinAddr: 0x10000292C, symSize: 0x14 }
  - { offsetInCU: 0xD555, offset: 0xD555, size: 0x8, addend: 0x0, symName: __ZNKSt3__117__compressed_pairIPP6EntityNS_9allocatorIS2_EEE6secondB8ue170006Ev, symObjAddr: 0x9E4, symBinAddr: 0x100002940, symSize: 0x24 }
  - { offsetInCU: 0xD57A, offset: 0xD57A, size: 0x8, addend: 0x0, symName: __ZNKSt3__122__compressed_pair_elemINS_9allocatorIP6EntityEELi1ELb1EE5__getB8ue170006Ev, symObjAddr: 0xA08, symBinAddr: 0x100002964, symSize: 0x14 }
  - { offsetInCU: 0xD59F, offset: 0xD59F, size: 0x8, addend: 0x0, symName: __ZNSt3__123__libcpp_numeric_limitsIlLb1EE3maxB8ue170006Ev, symObjAddr: 0xA1C, symBinAddr: 0x100002978, symSize: 0x8 }
  - { offsetInCU: 0xD5B3, offset: 0xD5B3, size: 0x8, addend: 0x0, symName: __ZNSt12length_errorC1B8ue170006EPKc, symObjAddr: 0xA88, symBinAddr: 0x1000029E4, symSize: 0x34 }
  - { offsetInCU: 0xD5EA, offset: 0xD5EA, size: 0x8, addend: 0x0, symName: __ZNSt12length_errorC2B8ue170006EPKc, symObjAddr: 0xABC, symBinAddr: 0x100002A18, symSize: 0x4C }
  - { offsetInCU: 0xD621, offset: 0xD621, size: 0x8, addend: 0x0, symName: __ZNKSt3__16vectorIP6EntityNS_9allocatorIS2_EEE9__end_capB8ue170006Ev, symObjAddr: 0xB08, symBinAddr: 0x100002A64, symSize: 0x28 }
  - { offsetInCU: 0xD646, offset: 0xD646, size: 0x8, addend: 0x0, symName: __ZNKSt3__117__compressed_pairIPP6EntityNS_9allocatorIS2_EEE5firstB8ue170006Ev, symObjAddr: 0xB30, symBinAddr: 0x100002A8C, symSize: 0x24 }
  - { offsetInCU: 0xD66B, offset: 0xD66B, size: 0x8, addend: 0x0, symName: __ZNKSt3__122__compressed_pair_elemIPP6EntityLi0ELb0EE5__getB8ue170006Ev, symObjAddr: 0xB54, symBinAddr: 0x100002AB0, symSize: 0x14 }
  - { offsetInCU: 0xD690, offset: 0xD690, size: 0x8, addend: 0x0, symName: __ZNSt3__114__split_bufferIP6EntityRNS_9allocatorIS2_EEEC2EmmS5_, symObjAddr: 0xBBC, symBinAddr: 0x100002B18, symSize: 0xD4 }
  - { offsetInCU: 0xD707, offset: 0xD707, size: 0x8, addend: 0x0, symName: __ZNSt3__117__compressed_pairIPP6EntityRNS_9allocatorIS2_EEEC1B8ue170006IDnS6_EEOT_OT0_, symObjAddr: 0xC90, symBinAddr: 0x100002BEC, symSize: 0x3C }
  - { offsetInCU: 0xD75E, offset: 0xD75E, size: 0x8, addend: 0x0, symName: __ZNSt3__114__split_bufferIP6EntityRNS_9allocatorIS2_EEE7__allocB8ue170006Ev, symObjAddr: 0xD0C, symBinAddr: 0x100002C68, symSize: 0x28 }
  - { offsetInCU: 0xD783, offset: 0xD783, size: 0x8, addend: 0x0, symName: __ZNSt3__114__split_bufferIP6EntityRNS_9allocatorIS2_EEE9__end_capB8ue170006Ev, symObjAddr: 0xD34, symBinAddr: 0x100002C90, symSize: 0x28 }
  - { offsetInCU: 0xD7A8, offset: 0xD7A8, size: 0x8, addend: 0x0, symName: __ZNSt3__117__compressed_pairIPP6EntityRNS_9allocatorIS2_EEEC2B8ue170006IDnS6_EEOT_OT0_, symObjAddr: 0xD5C, symBinAddr: 0x100002CB8, symSize: 0x48 }
  - { offsetInCU: 0xD7FF, offset: 0xD7FF, size: 0x8, addend: 0x0, symName: __ZNSt3__122__compressed_pair_elemIPP6EntityLi0ELb0EEC2B8ue170006IDnvEEOT_, symObjAddr: 0xDA4, symBinAddr: 0x100002D00, symSize: 0x1C }
  - { offsetInCU: 0xD840, offset: 0xD840, size: 0x8, addend: 0x0, symName: __ZNSt3__122__compressed_pair_elemIRNS_9allocatorIP6EntityEELi1ELb0EEC2B8ue170006IS5_vEEOT_, symObjAddr: 0xDC0, symBinAddr: 0x100002D1C, symSize: 0x20 }
  - { offsetInCU: 0xD881, offset: 0xD881, size: 0x8, addend: 0x0, symName: __ZNSt3__19allocatorIP6EntityE8allocateB8ue170006Em, symObjAddr: 0xDE0, symBinAddr: 0x100002D3C, symSize: 0x58 }
  - { offsetInCU: 0xD8B4, offset: 0xD8B4, size: 0x8, addend: 0x0, symName: __ZNSt3__117__compressed_pairIPP6EntityRNS_9allocatorIS2_EEE6secondB8ue170006Ev, symObjAddr: 0xF3C, symBinAddr: 0x100002E98, symSize: 0x28 }
  - { offsetInCU: 0xD8D9, offset: 0xD8D9, size: 0x8, addend: 0x0, symName: __ZNSt3__122__compressed_pair_elemIRNS_9allocatorIP6EntityEELi1ELb0EE5__getB8ue170006Ev, symObjAddr: 0xF64, symBinAddr: 0x100002EC0, symSize: 0x18 }
  - { offsetInCU: 0xD8FE, offset: 0xD8FE, size: 0x8, addend: 0x0, symName: __ZNSt3__117__compressed_pairIPP6EntityRNS_9allocatorIS2_EEE5firstB8ue170006Ev, symObjAddr: 0xF7C, symBinAddr: 0x100002ED8, symSize: 0x24 }
  - { offsetInCU: 0xD923, offset: 0xD923, size: 0x8, addend: 0x0, symName: __ZNKSt3__16vectorIP6EntityNS_9allocatorIS2_EEE17__annotate_deleteB8ue170006Ev, symObjAddr: 0xFA0, symBinAddr: 0x100002EFC, symSize: 0xB8 }
  - { offsetInCU: 0xD948, offset: 0xD948, size: 0x8, addend: 0x0, symName: __ZNSt3__116reverse_iteratorIPP6EntityEC1B8ue170006ES3_, symObjAddr: 0x10D0, symBinAddr: 0x10000302C, symSize: 0x34 }
  - { offsetInCU: 0xD97F, offset: 0xD97F, size: 0x8, addend: 0x0, symName: __ZNKSt3__116reverse_iteratorIPP6EntityE4baseB8ue170006Ev, symObjAddr: 0x1104, symBinAddr: 0x100003060, symSize: 0x18 }
  - { offsetInCU: 0xD9A4, offset: 0xD9A4, size: 0x8, addend: 0x0, symName: __ZNKSt3__16vectorIP6EntityNS_9allocatorIS2_EEE14__annotate_newB8ue170006Em, symObjAddr: 0x1158, symBinAddr: 0x1000030B4, symSize: 0xAC }
  - { offsetInCU: 0xD9D8, offset: 0xD9D8, size: 0x8, addend: 0x0, symName: __ZNKSt3__16vectorIP6EntityNS_9allocatorIS2_EEE31__annotate_contiguous_containerB8ue170006EPKvS7_S7_S7_, symObjAddr: 0x1204, symBinAddr: 0x100003160, symSize: 0x20 }
  - { offsetInCU: 0xDA29, offset: 0xDA29, size: 0x8, addend: 0x0, symName: __ZNKSt3__16vectorIP6EntityNS_9allocatorIS2_EEE4dataB8ue170006Ev, symObjAddr: 0x1224, symBinAddr: 0x100003180, symSize: 0x28 }
  - { offsetInCU: 0xDA71, offset: 0xDA71, size: 0x8, addend: 0x0, symName: __ZNKSt3__111__move_loopINS_17_ClassicAlgPolicyEEclB8ue170006INS_16reverse_iteratorIPP6EntityEES8_S8_EENS_4pairIT_T1_EESA_T0_SB_, symObjAddr: 0x153C, symBinAddr: 0x100003498, symSize: 0xA0 }
  - { offsetInCU: 0xDAE0, offset: 0xDAE0, size: 0x8, addend: 0x0, symName: __ZNSt3__18_IterOpsINS_17_ClassicAlgPolicyEE11__iter_moveB8ue170006IRNS_16reverse_iteratorIPP6EntityEEEENS_9enable_ifIXsr12is_referenceIDTdeclsr3stdE7declvalIRT_EEEEE5valueEDTclsr3stdE4movedeclsr3stdE7declvalISC_EEEEE4typeEOSB_, symObjAddr: 0x1770, symBinAddr: 0x1000036CC, symSize: 0x28 }
  - { offsetInCU: 0xDB0C, offset: 0xDB0C, size: 0x8, addend: 0x0, symName: __ZNKSt3__116reverse_iteratorIPP6EntityEdeB8ue170006Ev, symObjAddr: 0x1798, symBinAddr: 0x1000036F4, symSize: 0x28 }
  - { offsetInCU: 0xDB3F, offset: 0xDB3F, size: 0x8, addend: 0x0, symName: __ZNSt3__116reverse_iteratorIPP6EntityEppB8ue170006Ev, symObjAddr: 0x17C0, symBinAddr: 0x10000371C, symSize: 0x20 }
  - { offsetInCU: 0xDB64, offset: 0xDB64, size: 0x8, addend: 0x0, symName: __ZNSt3__18_IterOpsINS_17_ClassicAlgPolicyEE25__validate_iter_referenceB8ue170006IRNS_16reverse_iteratorIPP6EntityEEEEvv, symObjAddr: 0x17E0, symBinAddr: 0x10000373C, symSize: 0x4 }
  - { offsetInCU: 0xDB82, offset: 0xDB82, size: 0x8, addend: 0x0, symName: __ZNSt3__118__unwrap_iter_implINS_16reverse_iteratorIPP6EntityEELb0EE8__unwrapB8ue170006ES5_, symObjAddr: 0x17E4, symBinAddr: 0x100003740, symSize: 0x24 }
  - { offsetInCU: 0xDBAA, offset: 0xDBAA, size: 0x8, addend: 0x0, symName: __ZNSt3__14pairINS_16reverse_iteratorIPP6EntityEES5_EC1B8ue170006IS5_S5_LPv0EEEOT_OT0_, symObjAddr: 0x1808, symBinAddr: 0x100003764, symSize: 0x3C }
  - { offsetInCU: 0xDC07, offset: 0xDC07, size: 0x8, addend: 0x0, symName: __ZNSt3__14pairINS_16reverse_iteratorIPP6EntityEES5_EC2B8ue170006IS5_S5_LPv0EEEOT_OT0_, symObjAddr: 0x1844, symBinAddr: 0x1000037A0, symSize: 0x34 }
  - { offsetInCU: 0xDC64, offset: 0xDC64, size: 0x8, addend: 0x0, symName: __ZNSt3__118__unwrap_iter_implINS_16reverse_iteratorIPP6EntityEELb0EE8__rewrapB8ue170006ES5_S5_, symObjAddr: 0x1878, symBinAddr: 0x1000037D4, symSize: 0x2C }
  - { offsetInCU: 0xDC92, offset: 0xDC92, size: 0x8, addend: 0x0, symName: __ZNSt3__116reverse_iteratorIPP6EntityEC2B8ue170006ES3_, symObjAddr: 0x18A4, symBinAddr: 0x100003800, symSize: 0x28 }
  - { offsetInCU: 0xDCC9, offset: 0xDCC9, size: 0x8, addend: 0x0, symName: __ZNSt3__114__split_bufferIP6EntityRNS_9allocatorIS2_EEED2Ev, symObjAddr: 0x18CC, symBinAddr: 0x100003828, symSize: 0x8C }
  - { offsetInCU: 0xDCF4, offset: 0xDCF4, size: 0x8, addend: 0x0, symName: __ZNSt3__114__split_bufferIP6EntityRNS_9allocatorIS2_EEE5clearB8ue170006Ev, symObjAddr: 0x1958, symBinAddr: 0x1000038B4, symSize: 0x28 }
  - { offsetInCU: 0xDD19, offset: 0xDD19, size: 0x8, addend: 0x0, symName: __ZNSt3__116allocator_traitsINS_9allocatorIP6EntityEEE10deallocateB8ue170006ERS4_PS3_m, symObjAddr: 0x1980, symBinAddr: 0x1000038DC, symSize: 0x34 }
  - { offsetInCU: 0xDD5B, offset: 0xDD5B, size: 0x8, addend: 0x0, symName: __ZNKSt3__114__split_bufferIP6EntityRNS_9allocatorIS2_EEE8capacityB8ue170006Ev, symObjAddr: 0x19B4, symBinAddr: 0x100003910, symSize: 0x40 }
  - { offsetInCU: 0xDD80, offset: 0xDD80, size: 0x8, addend: 0x0, symName: __ZNSt3__114__split_bufferIP6EntityRNS_9allocatorIS2_EEE17__destruct_at_endB8ue170006EPS2_, symObjAddr: 0x19F4, symBinAddr: 0x100003950, symSize: 0x2C }
  - { offsetInCU: 0xDDB2, offset: 0xDDB2, size: 0x8, addend: 0x0, symName: __ZNSt3__114__split_bufferIP6EntityRNS_9allocatorIS2_EEE17__destruct_at_endB8ue170006EPS2_NS_17integral_constantIbLb0EEE, symObjAddr: 0x1A20, symBinAddr: 0x10000397C, symSize: 0x80 }
  - { offsetInCU: 0xDDF2, offset: 0xDDF2, size: 0x8, addend: 0x0, symName: __ZNSt3__116allocator_traitsINS_9allocatorIP6EntityEEE7destroyB8ue170006IS3_vEEvRS4_PT_, symObjAddr: 0x1AA0, symBinAddr: 0x1000039FC, symSize: 0x2C }
  - { offsetInCU: 0xDE2F, offset: 0xDE2F, size: 0x8, addend: 0x0, symName: __ZNSt3__19allocatorIP6EntityE7destroyB8ue170006EPS2_, symObjAddr: 0x1ACC, symBinAddr: 0x100003A28, symSize: 0x14 }
  - { offsetInCU: 0xDE62, offset: 0xDE62, size: 0x8, addend: 0x0, symName: __ZNSt3__19allocatorIP6EntityE10deallocateB8ue170006EPS2_m, symObjAddr: 0x1AE0, symBinAddr: 0x100003A3C, symSize: 0x40 }
  - { offsetInCU: 0xDEA3, offset: 0xDEA3, size: 0x8, addend: 0x0, symName: __ZNKSt3__114__split_bufferIP6EntityRNS_9allocatorIS2_EEE9__end_capB8ue170006Ev, symObjAddr: 0x1C28, symBinAddr: 0x100003B84, symSize: 0x28 }
  - { offsetInCU: 0xDEC8, offset: 0xDEC8, size: 0x8, addend: 0x0, symName: __ZNKSt3__117__compressed_pairIPP6EntityRNS_9allocatorIS2_EEE5firstB8ue170006Ev, symObjAddr: 0x1C50, symBinAddr: 0x100003BAC, symSize: 0x24 }
  - { offsetInCU: 0xDEED, offset: 0xDEED, size: 0x8, addend: 0x0, symName: __ZNSt3__18__bitsetILm1ELm32EE10__make_refB8ue170006Em, symObjAddr: 0x1C74, symBinAddr: 0x100003BD0, symSize: 0x40 }
  - { offsetInCU: 0xDF21, offset: 0xDF21, size: 0x8, addend: 0x0, symName: __ZNSt3__115__bit_referenceINS_8__bitsetILm1ELm32EEELb1EEC1B8ue170006EPmm, symObjAddr: 0x1CB4, symBinAddr: 0x100003C10, symSize: 0x3C }
  - { offsetInCU: 0xDF66, offset: 0xDF66, size: 0x8, addend: 0x0, symName: __ZNSt3__115__bit_referenceINS_8__bitsetILm1ELm32EEELb1EEC2B8ue170006EPmm, symObjAddr: 0x1CF0, symBinAddr: 0x100003C4C, symSize: 0x2C }
  - { offsetInCU: 0x32AD, offset: 0x112D4, size: 0x8, addend: 0x0, symName: __ZNSt3__124__put_character_sequenceB8ue170006IcNS_11char_traitsIcEEEERNS_13basic_ostreamIT_T0_EES7_PKS4_m, symObjAddr: 0x1874, symBinAddr: 0x1000053B8, symSize: 0x1EC }
  - { offsetInCU: 0x807B, offset: 0x160A2, size: 0x8, addend: 0x0, symName: __ZNSt3__1lsB8ue170006INS_11char_traitsIcEEEERNS_13basic_ostreamIcT_EES6_PKc, symObjAddr: 0x2A8, symBinAddr: 0x100003F14, symSize: 0x48 }
  - { offsetInCU: 0x80C1, offset: 0x160E8, size: 0x8, addend: 0x0, symName: __ZNSt3__14endlB8ue170006IcNS_11char_traitsIcEEEERNS_13basic_ostreamIT_T0_EES7_, symObjAddr: 0x31C, symBinAddr: 0x100003F88, symSize: 0x58 }
  - { offsetInCU: 0x811F, offset: 0x16146, size: 0x8, addend: 0x0, symName: __ZNSt3__1neB8ue170006ERKNS_19__hash_map_iteratorINS_15__hash_iteratorIPNS_11__hash_nodeINS_17__hash_value_typeINS_12basic_stringIcNS_11char_traitsIcEENS_9allocatorIcEEEENS_10unique_ptrI9Mix_ChunkPFvPSB_EEEEEPvEEEEEESN_, symObjAddr: 0x534, symBinAddr: 0x1000041A0, symSize: 0x30 }
  - { offsetInCU: 0x815C, offset: 0x16183, size: 0x8, addend: 0x0, symName: __ZNSt3__1lsB8ue170006IcNS_11char_traitsIcEENS_9allocatorIcEEEERNS_13basic_ostreamIT_T0_EES9_RKNS_12basic_stringIS6_S7_T1_EE, symObjAddr: 0x5F0, symBinAddr: 0x10000425C, symSize: 0x4C }
  - { offsetInCU: 0x81E7, offset: 0x1620E, size: 0x8, addend: 0x0, symName: __ZNSt3__17launderB8ue170006INS_4pairIKNS_12basic_stringIcNS_11char_traitsIcEENS_9allocatorIcEEEENS_10unique_ptrI9Mix_ChunkPFvPSA_EEEEEEEPT_SH_, symObjAddr: 0x1048, symBinAddr: 0x100004CB4, symSize: 0x24 }
  - { offsetInCU: 0x821E, offset: 0x16245, size: 0x8, addend: 0x0, symName: __ZNSt3__19__launderB8ue170006INS_4pairIKNS_12basic_stringIcNS_11char_traitsIcEENS_9allocatorIcEEEENS_10unique_ptrI9Mix_ChunkPFvPSA_EEEEEEEPT_SH_, symObjAddr: 0x106C, symBinAddr: 0x100004CD8, symSize: 0x14 }
  - { offsetInCU: 0x8255, offset: 0x1627C, size: 0x8, addend: 0x0, symName: __ZNSt3__112__to_addressB8ue170006IKcEEPT_S3_, symObjAddr: 0x1738, symBinAddr: 0x10000527C, symSize: 0x14 }
  - { offsetInCU: 0x82BD, offset: 0x162E4, size: 0x8, addend: 0x0, symName: __ZNSt3__116__pad_and_outputB8ue170006IcNS_11char_traitsIcEEEENS_19ostreambuf_iteratorIT_T0_EES6_PKS4_S8_S8_RNS_8ios_baseES4_, symObjAddr: 0x1AB0, symBinAddr: 0x1000055F4, symSize: 0x240 }
  - { offsetInCU: 0x838D, offset: 0x163B4, size: 0x8, addend: 0x0, symName: __ZNSt3__112__to_addressB8ue170006IcEEPT_S2_, symObjAddr: 0x2018, symBinAddr: 0x100005B5C, symSize: 0x14 }
  - { offsetInCU: 0x83F5, offset: 0x1641C, size: 0x8, addend: 0x0, symName: __ZNSt3__19use_facetB8ue170006INS_5ctypeIcEEEERKT_RKNS_6localeE, symObjAddr: 0x2260, symBinAddr: 0x100005DA4, symSize: 0x2C }
  - { offsetInCU: 0x88CC, offset: 0x168F3, size: 0x8, addend: 0x0, symName: __ZNSt3__118__constexpr_strlenB8ue170006EPKc, symObjAddr: 0x22F8, symBinAddr: 0x100005E3C, symSize: 0x24 }
  - { offsetInCU: 0x891C, offset: 0x16943, size: 0x8, addend: 0x0, symName: __ZNSt3__116__constrain_hashB8ue170006Emm, symObjAddr: 0x2AE8, symBinAddr: 0x10000662C, symSize: 0x98 }
  - { offsetInCU: 0x8956, offset: 0x1697D, size: 0x8, addend: 0x0, symName: __ZNSt3__116__is_hash_power2B8ue170006Em, symObjAddr: 0x2DD0, symBinAddr: 0x1000068E8, symSize: 0x50 }
  - { offsetInCU: 0x8982, offset: 0x169A9, size: 0x8, addend: 0x0, symName: __ZNSt3__116__do_string_hashB8ue170006IPKcEEmT_S3_, symObjAddr: 0x3028, symBinAddr: 0x100006B40, symSize: 0x3C }
  - { offsetInCU: 0x89C8, offset: 0x169EF, size: 0x8, addend: 0x0, symName: __ZNSt3__110__loadwordB8ue170006ImEET_PKv, symObjAddr: 0x3A70, symBinAddr: 0x100007588, symSize: 0x20 }
  - { offsetInCU: 0x8A0B, offset: 0x16A32, size: 0x8, addend: 0x0, symName: __ZNSt3__14swapB8ue170006ImEENS_9enable_ifIXaasr21is_move_constructibleIT_EE5valuesr18is_move_assignableIS2_EE5valueEvE4typeERS2_S5_, symObjAddr: 0x3C2C, symBinAddr: 0x100007744, symSize: 0x3C }
  - { offsetInCU: 0x8A5C, offset: 0x16A83, size: 0x8, addend: 0x0, symName: __ZNSt3__110__loadwordB8ue170006IjEET_PKv, symObjAddr: 0x3CBC, symBinAddr: 0x1000077D4, symSize: 0x20 }
  - { offsetInCU: 0x8A9F, offset: 0x16AC6, size: 0x8, addend: 0x0, symName: __ZNSt3__1eqB8ue170006INS_9allocatorIcEEEEbRKNS_12basic_stringIcNS_11char_traitsIcEET_EES9_, symObjAddr: 0x3F10, symBinAddr: 0x100007A28, symSize: 0x148 }
  - { offsetInCU: 0x8B12, offset: 0x16B39, size: 0x8, addend: 0x0, symName: __ZNSt3__17launderB8ue170006IKNS_4pairIKNS_12basic_stringIcNS_11char_traitsIcEENS_9allocatorIcEEEENS_10unique_ptrI9Mix_ChunkPFvPSA_EEEEEEEPT_SI_, symObjAddr: 0x408C, symBinAddr: 0x100007BA4, symSize: 0x24 }
  - { offsetInCU: 0x8B49, offset: 0x16B70, size: 0x8, addend: 0x0, symName: __ZNSt3__19__launderB8ue170006IKNS_4pairIKNS_12basic_stringIcNS_11char_traitsIcEENS_9allocatorIcEEEENS_10unique_ptrI9Mix_ChunkPFvPSA_EEEEEEEPT_SI_, symObjAddr: 0x40B0, symBinAddr: 0x100007BC8, symSize: 0x14 }
  - { offsetInCU: 0x8B9E, offset: 0x16BC5, size: 0x8, addend: 0x0, symName: __ZNSt3__116__next_hash_pow2B8ue170006Em, symObjAddr: 0x4BA8, symBinAddr: 0x1000085DC, symSize: 0x6C }
  - { offsetInCU: 0x8BCA, offset: 0x16BF1, size: 0x8, addend: 0x0, symName: __ZNSt3__112__libcpp_clzB8ue170006Em, symObjAddr: 0x4D6C, symBinAddr: 0x1000087A0, symSize: 0x1C }
  - { offsetInCU: 0x8BF6, offset: 0x16C1D, size: 0x8, addend: 0x0, symName: __ZNSt3__1neB8ue170006ERKNS_15__hash_iteratorIPNS_11__hash_nodeINS_17__hash_value_typeINS_12basic_stringIcNS_11char_traitsIcEENS_9allocatorIcEEEENS_10unique_ptrI9Mix_ChunkPFvPSA_EEEEEPvEEEESL_, symObjAddr: 0x5294, symBinAddr: 0x100008C40, symSize: 0x34 }
  - { offsetInCU: 0x8C33, offset: 0x16C5A, size: 0x8, addend: 0x0, symName: __ZNSt3__1eqB8ue170006ERKNS_15__hash_iteratorIPNS_11__hash_nodeINS_17__hash_value_typeINS_12basic_stringIcNS_11char_traitsIcEENS_9allocatorIcEEEENS_10unique_ptrI9Mix_ChunkPFvPSA_EEEEEPvEEEESL_, symObjAddr: 0x52C8, symBinAddr: 0x100008C74, symSize: 0x30 }
  - { offsetInCU: 0xB53B, offset: 0x19562, size: 0x8, addend: 0x0, symName: __ZN12AudioManagerC2Ev, symObjAddr: 0x0, symBinAddr: 0x100003C78, symSize: 0x2C }
  - { offsetInCU: 0xB566, offset: 0x1958D, size: 0x8, addend: 0x0, symName: __ZNSt3__113unordered_mapINS_12basic_stringIcNS_11char_traitsIcEENS_9allocatorIcEEEENS_10unique_ptrI9Mix_ChunkPFvPS8_EEENS_4hashIS6_EENS_8equal_toIS6_EENS4_INS_4pairIKS6_SC_EEEEEC1B8ue170006Ev, symObjAddr: 0x2C, symBinAddr: 0x100003CA4, symSize: 0x2C }
  - { offsetInCU: 0xB58F, offset: 0x195B6, size: 0x8, addend: 0x0, symName: __ZN12AudioManagerC1Ev, symObjAddr: 0x58, symBinAddr: 0x100003CD0, symSize: 0x2C }
  - { offsetInCU: 0xB5BA, offset: 0x195E1, size: 0x8, addend: 0x0, symName: __ZN12AudioManagerD2Ev, symObjAddr: 0x84, symBinAddr: 0x100003CFC, symSize: 0x48 }
  - { offsetInCU: 0xB5E5, offset: 0x1960C, size: 0x8, addend: 0x0, symName: __ZNSt3__113unordered_mapINS_12basic_stringIcNS_11char_traitsIcEENS_9allocatorIcEEEENS_10unique_ptrI9Mix_ChunkPFvPS8_EEENS_4hashIS6_EENS_8equal_toIS6_EENS4_INS_4pairIKS6_SC_EEEEE5clearB8ue170006Ev, symObjAddr: 0xCC, symBinAddr: 0x100003D44, symSize: 0x24 }
  - { offsetInCU: 0xB60A, offset: 0x19631, size: 0x8, addend: 0x0, symName: __ZNSt3__113unordered_mapINS_12basic_stringIcNS_11char_traitsIcEENS_9allocatorIcEEEENS_10unique_ptrI9Mix_ChunkPFvPS8_EEENS_4hashIS6_EENS_8equal_toIS6_EENS4_INS_4pairIKS6_SC_EEEEED1B8ue170006Ev, symObjAddr: 0xFC, symBinAddr: 0x100003D68, symSize: 0x2C }
  - { offsetInCU: 0xB633, offset: 0x1965A, size: 0x8, addend: 0x0, symName: __ZN12AudioManagerD1Ev, symObjAddr: 0x128, symBinAddr: 0x100003D94, symSize: 0x2C }
  - { offsetInCU: 0xB65E, offset: 0x19685, size: 0x8, addend: 0x0, symName: __ZN12AudioManager9loadAudioERKNSt3__112basic_stringIcNS0_11char_traitsIcEENS0_9allocatorIcEEEES8_, symObjAddr: 0x154, symBinAddr: 0x100003DC0, symSize: 0x130 }
  - { offsetInCU: 0xB6AF, offset: 0x196D6, size: 0x8, addend: 0x0, symName: __ZNKSt3__112basic_stringIcNS_11char_traitsIcEENS_9allocatorIcEEE5c_strB8ue170006Ev, symObjAddr: 0x284, symBinAddr: 0x100003EF0, symSize: 0x24 }
  - { offsetInCU: 0xB6D4, offset: 0x196FB, size: 0x8, addend: 0x0, symName: __ZNSt3__113basic_ostreamIcNS_11char_traitsIcEEElsB8ue170006EPFRS3_S4_E, symObjAddr: 0x2F0, symBinAddr: 0x100003F5C, symSize: 0x2C }
  - { offsetInCU: 0xB707, offset: 0x1972E, size: 0x8, addend: 0x0, symName: __ZNSt3__113unordered_mapINS_12basic_stringIcNS_11char_traitsIcEENS_9allocatorIcEEEENS_10unique_ptrI9Mix_ChunkPFvPS8_EEENS_4hashIS6_EENS_8equal_toIS6_EENS4_INS_4pairIKS6_SC_EEEEE7emplaceB8ue170006IJRSI_SC_EEENSH_INS_19__hash_map_iteratorINS_15__hash_iteratorIPNS_11__hash_nodeINS_17__hash_value_typeIS6_SC_EEPvEEEEEEbEEDpOT_, symObjAddr: 0x374, symBinAddr: 0x100003FE0, symSize: 0x54 }
  - { offsetInCU: 0xB75F, offset: 0x19786, size: 0x8, addend: 0x0, symName: __ZNSt3__110unique_ptrI9Mix_ChunkPFvPS1_EEC1B8ue170006ILb1EvEES2_NS_16__dependent_typeINS_27__unique_ptr_deleter_sfinaeIS4_EEXT_EE20__good_rval_ref_typeE, symObjAddr: 0x3C8, symBinAddr: 0x100004034, symSize: 0x3C }
  - { offsetInCU: 0xB7AF, offset: 0x197D6, size: 0x8, addend: 0x0, symName: __ZNSt3__110unique_ptrI9Mix_ChunkPFvPS1_EED1B8ue170006Ev, symObjAddr: 0x404, symBinAddr: 0x100004070, symSize: 0x2C }
  - { offsetInCU: 0xB7D8, offset: 0x197FF, size: 0x8, addend: 0x0, symName: __ZN12AudioManager9playAudioERKNSt3__112basic_stringIcNS0_11char_traitsIcEENS0_9allocatorIcEEEEii, symObjAddr: 0x430, symBinAddr: 0x10000409C, symSize: 0xC4 }
  - { offsetInCU: 0xB837, offset: 0x1985E, size: 0x8, addend: 0x0, symName: __ZNSt3__113unordered_mapINS_12basic_stringIcNS_11char_traitsIcEENS_9allocatorIcEEEENS_10unique_ptrI9Mix_ChunkPFvPS8_EEENS_4hashIS6_EENS_8equal_toIS6_EENS4_INS_4pairIKS6_SC_EEEEE4findB8ue170006ERSI_, symObjAddr: 0x4F4, symBinAddr: 0x100004160, symSize: 0x40 }
  - { offsetInCU: 0xB86B, offset: 0x19892, size: 0x8, addend: 0x0, symName: __ZNSt3__113unordered_mapINS_12basic_stringIcNS_11char_traitsIcEENS_9allocatorIcEEEENS_10unique_ptrI9Mix_ChunkPFvPS8_EEENS_4hashIS6_EENS_8equal_toIS6_EENS4_INS_4pairIKS6_SC_EEEEE3endB8ue170006Ev, symObjAddr: 0x564, symBinAddr: 0x1000041D0, symSize: 0x38 }
  - { offsetInCU: 0xB890, offset: 0x198B7, size: 0x8, addend: 0x0, symName: __ZNKSt3__119__hash_map_iteratorINS_15__hash_iteratorIPNS_11__hash_nodeINS_17__hash_value_typeINS_12basic_stringIcNS_11char_traitsIcEENS_9allocatorIcEEEENS_10unique_ptrI9Mix_ChunkPFvPSB_EEEEEPvEEEEEptB8ue170006Ev, symObjAddr: 0x59C, symBinAddr: 0x100004208, symSize: 0x2C }
  - { offsetInCU: 0xB8B5, offset: 0x198DC, size: 0x8, addend: 0x0, symName: __ZNKSt3__110unique_ptrI9Mix_ChunkPFvPS1_EE3getB8ue170006Ev, symObjAddr: 0x5C8, symBinAddr: 0x100004234, symSize: 0x28 }
  - { offsetInCU: 0xB8DA, offset: 0x19901, size: 0x8, addend: 0x0, symName: __ZN12AudioManager9setVolumeEii, symObjAddr: 0x63C, symBinAddr: 0x1000042A8, symSize: 0x30 }
  - { offsetInCU: 0xB91D, offset: 0x19944, size: 0x8, addend: 0x0, symName: __ZN12AudioManager10setPanningEiii, symObjAddr: 0x66C, symBinAddr: 0x1000042D8, symSize: 0x40 }
  - { offsetInCU: 0xB96E, offset: 0x19995, size: 0x8, addend: 0x0, symName: __ZN12AudioManager11applyEffectERKNSt3__112basic_stringIcNS0_11char_traitsIcEENS0_9allocatorIcEEEEi, symObjAddr: 0x6AC, symBinAddr: 0x100004318, symSize: 0x18 }
  - { offsetInCU: 0xB9B1, offset: 0x199D8, size: 0x8, addend: 0x0, symName: __ZNSt3__113unordered_mapINS_12basic_stringIcNS_11char_traitsIcEENS_9allocatorIcEEEENS_10unique_ptrI9Mix_ChunkPFvPS8_EEENS_4hashIS6_EENS_8equal_toIS6_EENS4_INS_4pairIKS6_SC_EEEEEC2B8ue170006Ev, symObjAddr: 0x6C4, symBinAddr: 0x100004330, symSize: 0x2C }
  - { offsetInCU: 0xB9DA, offset: 0x19A01, size: 0x8, addend: 0x0, symName: __ZNSt3__112__hash_tableINS_17__hash_value_typeINS_12basic_stringIcNS_11char_traitsIcEENS_9allocatorIcEEEENS_10unique_ptrI9Mix_ChunkPFvPS9_EEEEENS_22__unordered_map_hasherIS7_SE_NS_4hashIS7_EENS_8equal_toIS7_EELb1EEENS_21__unordered_map_equalIS7_SE_SJ_SH_Lb1EEENS5_ISE_EEEC1Ev, symObjAddr: 0x6F0, symBinAddr: 0x10000435C, symSize: 0x2C }
  - { offsetInCU: 0xBA05, offset: 0x19A2C, size: 0x8, addend: 0x0, symName: __ZNSt3__112__hash_tableINS_17__hash_value_typeINS_12basic_stringIcNS_11char_traitsIcEENS_9allocatorIcEEEENS_10unique_ptrI9Mix_ChunkPFvPS9_EEEEENS_22__unordered_map_hasherIS7_SE_NS_4hashIS7_EENS_8equal_toIS7_EELb1EEENS_21__unordered_map_equalIS7_SE_SJ_SH_Lb1EEENS5_ISE_EEEC2Ev, symObjAddr: 0x71C, symBinAddr: 0x100004388, symSize: 0x7C }
  - { offsetInCU: 0xBA30, offset: 0x19A57, size: 0x8, addend: 0x0, symName: __ZNSt3__110unique_ptrIA_PNS_16__hash_node_baseIPNS_11__hash_nodeINS_17__hash_value_typeINS_12basic_stringIcNS_11char_traitsIcEENS_9allocatorIcEEEENS0_I9Mix_ChunkPFvPSA_EEEEEPvEEEENS_25__bucket_list_deallocatorINS7_ISK_EEEEEC1B8ue170006ILb1EvEEv, symObjAddr: 0x798, symBinAddr: 0x100004404, symSize: 0x2C }
  - { offsetInCU: 0xBA64, offset: 0x19A8B, size: 0x8, addend: 0x0, symName: __ZNSt3__117__compressed_pairINS_16__hash_node_baseIPNS_11__hash_nodeINS_17__hash_value_typeINS_12basic_stringIcNS_11char_traitsIcEENS_9allocatorIcEEEENS_10unique_ptrI9Mix_ChunkPFvPSB_EEEEEPvEEEENS7_ISI_EEEC1B8ue170006ILb1EvEEv, symObjAddr: 0x7C4, symBinAddr: 0x100004430, symSize: 0x2C }
  - { offsetInCU: 0xBAA2, offset: 0x19AC9, size: 0x8, addend: 0x0, symName: __ZNSt3__117__compressed_pairImNS_22__unordered_map_hasherINS_12basic_stringIcNS_11char_traitsIcEENS_9allocatorIcEEEENS_17__hash_value_typeIS7_NS_10unique_ptrI9Mix_ChunkPFvPSA_EEEEENS_4hashIS7_EENS_8equal_toIS7_EELb1EEEEC1B8ue170006IiNS_18__default_init_tagEEEOT_OT0_, symObjAddr: 0x7F0, symBinAddr: 0x10000445C, symSize: 0x3C }
  - { offsetInCU: 0xBAFE, offset: 0x19B25, size: 0x8, addend: 0x0, symName: __ZNSt3__117__compressed_pairIfNS_21__unordered_map_equalINS_12basic_stringIcNS_11char_traitsIcEENS_9allocatorIcEEEENS_17__hash_value_typeIS7_NS_10unique_ptrI9Mix_ChunkPFvPSA_EEEEENS_8equal_toIS7_EENS_4hashIS7_EELb1EEEEC1B8ue170006IfNS_18__default_init_tagEEEOT_OT0_, symObjAddr: 0x82C, symBinAddr: 0x100004498, symSize: 0x3C }
  - { offsetInCU: 0xBB55, offset: 0x19B7C, size: 0x8, addend: 0x0, symName: __ZNSt3__110unique_ptrIA_PNS_16__hash_node_baseIPNS_11__hash_nodeINS_17__hash_value_typeINS_12basic_stringIcNS_11char_traitsIcEENS_9allocatorIcEEEENS0_I9Mix_ChunkPFvPSA_EEEEEPvEEEENS_25__bucket_list_deallocatorINS7_ISK_EEEEEC2B8ue170006ILb1EvEEv, symObjAddr: 0x868, symBinAddr: 0x1000044D4, symSize: 0x3C }
  - { offsetInCU: 0xBB8E, offset: 0x19BB5, size: 0x8, addend: 0x0, symName: __ZNSt3__117__compressed_pairIPPNS_16__hash_node_baseIPNS_11__hash_nodeINS_17__hash_value_typeINS_12basic_stringIcNS_11char_traitsIcEENS_9allocatorIcEEEENS_10unique_ptrI9Mix_ChunkPFvPSB_EEEEEPvEEEENS_25__bucket_list_deallocatorINS7_ISL_EEEEEC1B8ue170006INS_16__value_init_tagESS_EEOT_OT0_, symObjAddr: 0x8A4, symBinAddr: 0x100004510, symSize: 0x3C }
  - { offsetInCU: 0xBBE5, offset: 0x19C0C, size: 0x8, addend: 0x0, symName: __ZNSt3__117__compressed_pairIPPNS_16__hash_node_baseIPNS_11__hash_nodeINS_17__hash_value_typeINS_12basic_stringIcNS_11char_traitsIcEENS_9allocatorIcEEEENS_10unique_ptrI9Mix_ChunkPFvPSB_EEEEEPvEEEENS_25__bucket_list_deallocatorINS7_ISL_EEEEEC2B8ue170006INS_16__value_init_tagESS_EEOT_OT0_, symObjAddr: 0x8E0, symBinAddr: 0x10000454C, symSize: 0x40 }
  - { offsetInCU: 0xBC3C, offset: 0x19C63, size: 0x8, addend: 0x0, symName: __ZNSt3__122__compressed_pair_elemIPPNS_16__hash_node_baseIPNS_11__hash_nodeINS_17__hash_value_typeINS_12basic_stringIcNS_11char_traitsIcEENS_9allocatorIcEEEENS_10unique_ptrI9Mix_ChunkPFvPSB_EEEEEPvEEEELi0ELb0EEC2B8ue170006ENS_16__value_init_tagE, symObjAddr: 0x920, symBinAddr: 0x10000458C, symSize: 0x18 }
  - { offsetInCU: 0xBC70, offset: 0x19C97, size: 0x8, addend: 0x0, symName: __ZNSt3__122__compressed_pair_elemINS_25__bucket_list_deallocatorINS_9allocatorIPNS_16__hash_node_baseIPNS_11__hash_nodeINS_17__hash_value_typeINS_12basic_stringIcNS_11char_traitsIcEENS2_IcEEEENS_10unique_ptrI9Mix_ChunkPFvPSC_EEEEEPvEEEEEEEELi1ELb0EEC2B8ue170006ENS_16__value_init_tagE, symObjAddr: 0x938, symBinAddr: 0x1000045A4, symSize: 0x2C }
  - { offsetInCU: 0xBCA4, offset: 0x19CCB, size: 0x8, addend: 0x0, symName: __ZNSt3__125__bucket_list_deallocatorINS_9allocatorIPNS_16__hash_node_baseIPNS_11__hash_nodeINS_17__hash_value_typeINS_12basic_stringIcNS_11char_traitsIcEENS1_IcEEEENS_10unique_ptrI9Mix_ChunkPFvPSB_EEEEEPvEEEEEEEC1B8ue170006Ev, symObjAddr: 0x964, symBinAddr: 0x1000045D0, symSize: 0x2C }
  - { offsetInCU: 0xBCCD, offset: 0x19CF4, size: 0x8, addend: 0x0, symName: __ZNSt3__125__bucket_list_deallocatorINS_9allocatorIPNS_16__hash_node_baseIPNS_11__hash_nodeINS_17__hash_value_typeINS_12basic_stringIcNS_11char_traitsIcEENS1_IcEEEENS_10unique_ptrI9Mix_ChunkPFvPSB_EEEEEPvEEEEEEEC2B8ue170006Ev, symObjAddr: 0x990, symBinAddr: 0x1000045FC, symSize: 0x40 }
  - { offsetInCU: 0xBCF6, offset: 0x19D1D, size: 0x8, addend: 0x0, symName: __ZNSt3__117__compressed_pairImNS_9allocatorIPNS_16__hash_node_baseIPNS_11__hash_nodeINS_17__hash_value_typeINS_12basic_stringIcNS_11char_traitsIcEENS1_IcEEEENS_10unique_ptrI9Mix_ChunkPFvPSB_EEEEEPvEEEEEEEC1B8ue170006IiNS_18__default_init_tagEEEOT_OT0_, symObjAddr: 0x9D0, symBinAddr: 0x10000463C, symSize: 0x3C }
  - { offsetInCU: 0xBD4D, offset: 0x19D74, size: 0x8, addend: 0x0, symName: __ZNSt3__117__compressed_pairImNS_9allocatorIPNS_16__hash_node_baseIPNS_11__hash_nodeINS_17__hash_value_typeINS_12basic_stringIcNS_11char_traitsIcEENS1_IcEEEENS_10unique_ptrI9Mix_ChunkPFvPSB_EEEEEPvEEEEEEEC2B8ue170006IiNS_18__default_init_tagEEEOT_OT0_, symObjAddr: 0xA0C, symBinAddr: 0x100004678, symSize: 0x40 }
  - { offsetInCU: 0xBDA4, offset: 0x19DCB, size: 0x8, addend: 0x0, symName: __ZNSt3__122__compressed_pair_elemImLi0ELb0EEC2B8ue170006IivEEOT_, symObjAddr: 0xA4C, symBinAddr: 0x1000046B8, symSize: 0x24 }
  - { offsetInCU: 0xBDE5, offset: 0x19E0C, size: 0x8, addend: 0x0, symName: __ZNSt3__122__compressed_pair_elemINS_9allocatorIPNS_16__hash_node_baseIPNS_11__hash_nodeINS_17__hash_value_typeINS_12basic_stringIcNS_11char_traitsIcEENS1_IcEEEENS_10unique_ptrI9Mix_ChunkPFvPSB_EEEEEPvEEEEEELi1ELb1EEC2B8ue170006ENS_18__default_init_tagE, symObjAddr: 0xA70, symBinAddr: 0x1000046DC, symSize: 0x2C }
  - { offsetInCU: 0xBE19, offset: 0x19E40, size: 0x8, addend: 0x0, symName: __ZNSt3__19allocatorIPNS_16__hash_node_baseIPNS_11__hash_nodeINS_17__hash_value_typeINS_12basic_stringIcNS_11char_traitsIcEENS0_IcEEEENS_10unique_ptrI9Mix_ChunkPFvPSA_EEEEEPvEEEEEC2B8ue170006Ev, symObjAddr: 0xA9C, symBinAddr: 0x100004708, symSize: 0x2C }
  - { offsetInCU: 0xBE42, offset: 0x19E69, size: 0x8, addend: 0x0, symName: __ZNSt3__116__non_trivial_ifILb1ENS_9allocatorIPNS_16__hash_node_baseIPNS_11__hash_nodeINS_17__hash_value_typeINS_12basic_stringIcNS_11char_traitsIcEENS1_IcEEEENS_10unique_ptrI9Mix_ChunkPFvPSB_EEEEEPvEEEEEEEC2B8ue170006Ev, symObjAddr: 0xAC8, symBinAddr: 0x100004734, symSize: 0x14 }
  - { offsetInCU: 0xBE6B, offset: 0x19E92, size: 0x8, addend: 0x0, symName: __ZNSt3__117__compressed_pairINS_16__hash_node_baseIPNS_11__hash_nodeINS_17__hash_value_typeINS_12basic_stringIcNS_11char_traitsIcEENS_9allocatorIcEEEENS_10unique_ptrI9Mix_ChunkPFvPSB_EEEEEPvEEEENS7_ISI_EEEC2B8ue170006ILb1EvEEv, symObjAddr: 0xADC, symBinAddr: 0x100004748, symSize: 0x34 }
  - { offsetInCU: 0xBE9F, offset: 0x19EC6, size: 0x8, addend: 0x0, symName: __ZNSt3__122__compressed_pair_elemINS_16__hash_node_baseIPNS_11__hash_nodeINS_17__hash_value_typeINS_12basic_stringIcNS_11char_traitsIcEENS_9allocatorIcEEEENS_10unique_ptrI9Mix_ChunkPFvPSB_EEEEEPvEEEELi0ELb0EEC2B8ue170006ENS_16__value_init_tagE, symObjAddr: 0xB10, symBinAddr: 0x10000477C, symSize: 0x2C }
  - { offsetInCU: 0xBED3, offset: 0x19EFA, size: 0x8, addend: 0x0, symName: __ZNSt3__122__compressed_pair_elemINS_9allocatorINS_11__hash_nodeINS_17__hash_value_typeINS_12basic_stringIcNS_11char_traitsIcEENS1_IcEEEENS_10unique_ptrI9Mix_ChunkPFvPSA_EEEEEPvEEEELi1ELb1EEC2B8ue170006ENS_16__value_init_tagE, symObjAddr: 0xB3C, symBinAddr: 0x1000047A8, symSize: 0x2C }
  - { offsetInCU: 0xBF07, offset: 0x19F2E, size: 0x8, addend: 0x0, symName: __ZNSt3__116__hash_node_baseIPNS_11__hash_nodeINS_17__hash_value_typeINS_12basic_stringIcNS_11char_traitsIcEENS_9allocatorIcEEEENS_10unique_ptrI9Mix_ChunkPFvPSA_EEEEEPvEEEC1B8ue170006Ev, symObjAddr: 0xB68, symBinAddr: 0x1000047D4, symSize: 0x2C }
  - { offsetInCU: 0xBF30, offset: 0x19F57, size: 0x8, addend: 0x0, symName: __ZNSt3__116__hash_node_baseIPNS_11__hash_nodeINS_17__hash_value_typeINS_12basic_stringIcNS_11char_traitsIcEENS_9allocatorIcEEEENS_10unique_ptrI9Mix_ChunkPFvPSA_EEEEEPvEEEC2B8ue170006Ev, symObjAddr: 0xB94, symBinAddr: 0x100004800, symSize: 0x18 }
  - { offsetInCU: 0xBF59, offset: 0x19F80, size: 0x8, addend: 0x0, symName: __ZNSt3__19allocatorINS_11__hash_nodeINS_17__hash_value_typeINS_12basic_stringIcNS_11char_traitsIcEENS0_IcEEEENS_10unique_ptrI9Mix_ChunkPFvPS9_EEEEEPvEEEC2B8ue170006Ev, symObjAddr: 0xBAC, symBinAddr: 0x100004818, symSize: 0x2C }
  - { offsetInCU: 0xBF82, offset: 0x19FA9, size: 0x8, addend: 0x0, symName: __ZNSt3__116__non_trivial_ifILb1ENS_9allocatorINS_11__hash_nodeINS_17__hash_value_typeINS_12basic_stringIcNS_11char_traitsIcEENS1_IcEEEENS_10unique_ptrI9Mix_ChunkPFvPSA_EEEEEPvEEEEEC2B8ue170006Ev, symObjAddr: 0xBD8, symBinAddr: 0x100004844, symSize: 0x14 }
  - { offsetInCU: 0xBFAB, offset: 0x19FD2, size: 0x8, addend: 0x0, symName: __ZNSt3__117__compressed_pairImNS_22__unordered_map_hasherINS_12basic_stringIcNS_11char_traitsIcEENS_9allocatorIcEEEENS_17__hash_value_typeIS7_NS_10unique_ptrI9Mix_ChunkPFvPSA_EEEEENS_4hashIS7_EENS_8equal_toIS7_EELb1EEEEC2B8ue170006IiNS_18__default_init_tagEEEOT_OT0_, symObjAddr: 0xBEC, symBinAddr: 0x100004858, symSize: 0x40 }
  - { offsetInCU: 0xC002, offset: 0x1A029, size: 0x8, addend: 0x0, symName: __ZNSt3__122__compressed_pair_elemINS_22__unordered_map_hasherINS_12basic_stringIcNS_11char_traitsIcEENS_9allocatorIcEEEENS_17__hash_value_typeIS7_NS_10unique_ptrI9Mix_ChunkPFvPSA_EEEEENS_4hashIS7_EENS_8equal_toIS7_EELb1EEELi1ELb1EEC2B8ue170006ENS_18__default_init_tagE, symObjAddr: 0xC2C, symBinAddr: 0x100004898, symSize: 0x2C }
  - { offsetInCU: 0xC036, offset: 0x1A05D, size: 0x8, addend: 0x0, symName: __ZNSt3__122__unordered_map_hasherINS_12basic_stringIcNS_11char_traitsIcEENS_9allocatorIcEEEENS_17__hash_value_typeIS6_NS_10unique_ptrI9Mix_ChunkPFvPS9_EEEEENS_4hashIS6_EENS_8equal_toIS6_EELb1EEC2B8ue170006Ev, symObjAddr: 0xC58, symBinAddr: 0x1000048C4, symSize: 0x14 }
  - { offsetInCU: 0xC05F, offset: 0x1A086, size: 0x8, addend: 0x0, symName: __ZNSt3__117__compressed_pairIfNS_21__unordered_map_equalINS_12basic_stringIcNS_11char_traitsIcEENS_9allocatorIcEEEENS_17__hash_value_typeIS7_NS_10unique_ptrI9Mix_ChunkPFvPSA_EEEEENS_8equal_toIS7_EENS_4hashIS7_EELb1EEEEC2B8ue170006IfNS_18__default_init_tagEEEOT_OT0_, symObjAddr: 0xC6C, symBinAddr: 0x1000048D8, symSize: 0x40 }
  - { offsetInCU: 0xC0B6, offset: 0x1A0DD, size: 0x8, addend: 0x0, symName: __ZNSt3__122__compressed_pair_elemIfLi0ELb0EEC2B8ue170006IfvEEOT_, symObjAddr: 0xCAC, symBinAddr: 0x100004918, symSize: 0x24 }
  - { offsetInCU: 0xC0F7, offset: 0x1A11E, size: 0x8, addend: 0x0, symName: __ZNSt3__122__compressed_pair_elemINS_21__unordered_map_equalINS_12basic_stringIcNS_11char_traitsIcEENS_9allocatorIcEEEENS_17__hash_value_typeIS7_NS_10unique_ptrI9Mix_ChunkPFvPSA_EEEEENS_8equal_toIS7_EENS_4hashIS7_EELb1EEELi1ELb1EEC2B8ue170006ENS_18__default_init_tagE, symObjAddr: 0xCD0, symBinAddr: 0x10000493C, symSize: 0x2C }
  - { offsetInCU: 0xC12B, offset: 0x1A152, size: 0x8, addend: 0x0, symName: __ZNSt3__121__unordered_map_equalINS_12basic_stringIcNS_11char_traitsIcEENS_9allocatorIcEEEENS_17__hash_value_typeIS6_NS_10unique_ptrI9Mix_ChunkPFvPS9_EEEEENS_8equal_toIS6_EENS_4hashIS6_EELb1EEC2B8ue170006Ev, symObjAddr: 0xCFC, symBinAddr: 0x100004968, symSize: 0x14 }
  - { offsetInCU: 0xC154, offset: 0x1A17B, size: 0x8, addend: 0x0, symName: __ZNSt3__113unordered_mapINS_12basic_stringIcNS_11char_traitsIcEENS_9allocatorIcEEEENS_10unique_ptrI9Mix_ChunkPFvPS8_EEENS_4hashIS6_EENS_8equal_toIS6_EENS4_INS_4pairIKS6_SC_EEEEED2B8ue170006Ev, symObjAddr: 0xD10, symBinAddr: 0x10000497C, symSize: 0x2C }
  - { offsetInCU: 0xC17D, offset: 0x1A1A4, size: 0x8, addend: 0x0, symName: __ZNSt3__112__hash_tableINS_17__hash_value_typeINS_12basic_stringIcNS_11char_traitsIcEENS_9allocatorIcEEEENS_10unique_ptrI9Mix_ChunkPFvPS9_EEEEENS_22__unordered_map_hasherIS7_SE_NS_4hashIS7_EENS_8equal_toIS7_EELb1EEENS_21__unordered_map_equalIS7_SE_SJ_SH_Lb1EEENS5_ISE_EEED1Ev, symObjAddr: 0xD3C, symBinAddr: 0x1000049A8, symSize: 0x2C }
  - { offsetInCU: 0xC1A8, offset: 0x1A1CF, size: 0x8, addend: 0x0, symName: __ZNSt3__112__hash_tableINS_17__hash_value_typeINS_12basic_stringIcNS_11char_traitsIcEENS_9allocatorIcEEEENS_10unique_ptrI9Mix_ChunkPFvPS9_EEEEENS_22__unordered_map_hasherIS7_SE_NS_4hashIS7_EENS_8equal_toIS7_EELb1EEENS_21__unordered_map_equalIS7_SE_SJ_SH_Lb1EEENS5_ISE_EEED2Ev, symObjAddr: 0xD68, symBinAddr: 0x1000049D4, symSize: 0x48 }
  - { offsetInCU: 0xC1D3, offset: 0x1A1FA, size: 0x8, addend: 0x0, symName: __ZNSt3__112__hash_tableINS_17__hash_value_typeINS_12basic_stringIcNS_11char_traitsIcEENS_9allocatorIcEEEENS_10unique_ptrI9Mix_ChunkPFvPS9_EEEEENS_22__unordered_map_hasherIS7_SE_NS_4hashIS7_EENS_8equal_toIS7_EELb1EEENS_21__unordered_map_equalIS7_SE_SJ_SH_Lb1EEENS5_ISE_EEE17__deallocate_nodeEPNS_16__hash_node_baseIPNS_11__hash_nodeISE_PvEEEE, symObjAddr: 0xDB0, symBinAddr: 0x100004A1C, symSize: 0xA8 }
  - { offsetInCU: 0xC23C, offset: 0x1A263, size: 0x8, addend: 0x0, symName: __ZNSt3__117__compressed_pairINS_16__hash_node_baseIPNS_11__hash_nodeINS_17__hash_value_typeINS_12basic_stringIcNS_11char_traitsIcEENS_9allocatorIcEEEENS_10unique_ptrI9Mix_ChunkPFvPSB_EEEEEPvEEEENS7_ISI_EEE5firstB8ue170006Ev, symObjAddr: 0xE58, symBinAddr: 0x100004AC4, symSize: 0x24 }
  - { offsetInCU: 0xC261, offset: 0x1A288, size: 0x8, addend: 0x0, symName: __ZNSt3__110unique_ptrIA_PNS_16__hash_node_baseIPNS_11__hash_nodeINS_17__hash_value_typeINS_12basic_stringIcNS_11char_traitsIcEENS_9allocatorIcEEEENS0_I9Mix_ChunkPFvPSA_EEEEEPvEEEENS_25__bucket_list_deallocatorINS7_ISK_EEEEED1B8ue170006Ev, symObjAddr: 0xE7C, symBinAddr: 0x100004AE8, symSize: 0x2C }
  - { offsetInCU: 0xC28A, offset: 0x1A2B1, size: 0x8, addend: 0x0, symName: __ZNSt3__112__hash_tableINS_17__hash_value_typeINS_12basic_stringIcNS_11char_traitsIcEENS_9allocatorIcEEEENS_10unique_ptrI9Mix_ChunkPFvPS9_EEEEENS_22__unordered_map_hasherIS7_SE_NS_4hashIS7_EENS_8equal_toIS7_EELb1EEENS_21__unordered_map_equalIS7_SE_SJ_SH_Lb1EEENS5_ISE_EEE12__node_allocB8ue170006Ev, symObjAddr: 0xEA8, symBinAddr: 0x100004B14, symSize: 0x28 }
  - { offsetInCU: 0xC2AF, offset: 0x1A2D6, size: 0x8, addend: 0x0, symName: __ZNSt3__116__hash_node_baseIPNS_11__hash_nodeINS_17__hash_value_typeINS_12basic_stringIcNS_11char_traitsIcEENS_9allocatorIcEEEENS_10unique_ptrI9Mix_ChunkPFvPSA_EEEEEPvEEE8__upcastB8ue170006Ev, symObjAddr: 0xED0, symBinAddr: 0x100004B3C, symSize: 0x24 }
  - { offsetInCU: 0xC2D4, offset: 0x1A2FB, size: 0x8, addend: 0x0, symName: __ZNSt3__116allocator_traitsINS_9allocatorINS_11__hash_nodeINS_17__hash_value_typeINS_12basic_stringIcNS_11char_traitsIcEENS1_IcEEEENS_10unique_ptrI9Mix_ChunkPFvPSA_EEEEEPvEEEEE7destroyB8ue170006INS_4pairIKS8_SE_EEvvEEvRSI_PT_, symObjAddr: 0xEF4, symBinAddr: 0x100004B60, symSize: 0x28 }
  - { offsetInCU: 0xC30E, offset: 0x1A335, size: 0x8, addend: 0x0, symName: __ZNSt3__122__hash_key_value_typesINS_17__hash_value_typeINS_12basic_stringIcNS_11char_traitsIcEENS_9allocatorIcEEEENS_10unique_ptrI9Mix_ChunkPFvPS9_EEEEEE9__get_ptrB8ue170006ERSE_, symObjAddr: 0xF1C, symBinAddr: 0x100004B88, symSize: 0x24 }
  - { offsetInCU: 0xC331, offset: 0x1A358, size: 0x8, addend: 0x0, symName: __ZNSt3__116allocator_traitsINS_9allocatorINS_11__hash_nodeINS_17__hash_value_typeINS_12basic_stringIcNS_11char_traitsIcEENS1_IcEEEENS_10unique_ptrI9Mix_ChunkPFvPSA_EEEEEPvEEEEE10deallocateB8ue170006ERSI_PSH_m, symObjAddr: 0xF40, symBinAddr: 0x100004BAC, symSize: 0x34 }
  - { offsetInCU: 0xC373, offset: 0x1A39A, size: 0x8, addend: 0x0, symName: __ZNSt3__117__compressed_pairINS_16__hash_node_baseIPNS_11__hash_nodeINS_17__hash_value_typeINS_12basic_stringIcNS_11char_traitsIcEENS_9allocatorIcEEEENS_10unique_ptrI9Mix_ChunkPFvPSB_EEEEEPvEEEENS7_ISI_EEE6secondB8ue170006Ev, symObjAddr: 0xF74, symBinAddr: 0x100004BE0, symSize: 0x24 }
  - { offsetInCU: 0xC398, offset: 0x1A3BF, size: 0x8, addend: 0x0, symName: __ZNSt3__122__compressed_pair_elemINS_9allocatorINS_11__hash_nodeINS_17__hash_value_typeINS_12basic_stringIcNS_11char_traitsIcEENS1_IcEEEENS_10unique_ptrI9Mix_ChunkPFvPSA_EEEEEPvEEEELi1ELb1EE5__getB8ue170006Ev, symObjAddr: 0xF98, symBinAddr: 0x100004C04, symSize: 0x14 }
  - { offsetInCU: 0xC3BD, offset: 0x1A3E4, size: 0x8, addend: 0x0, symName: __ZNSt3__114pointer_traitsIPNS_16__hash_node_baseIPNS_11__hash_nodeINS_17__hash_value_typeINS_12basic_stringIcNS_11char_traitsIcEENS_9allocatorIcEEEENS_10unique_ptrI9Mix_ChunkPFvPSB_EEEEEPvEEEEE10pointer_toB8ue170006ERSK_, symObjAddr: 0xFAC, symBinAddr: 0x100004C18, symSize: 0x14 }
  - { offsetInCU: 0xC3E0, offset: 0x1A407, size: 0x8, addend: 0x0, symName: __ZNSt3__14pairIKNS_12basic_stringIcNS_11char_traitsIcEENS_9allocatorIcEEEENS_10unique_ptrI9Mix_ChunkPFvPS9_EEEED1Ev, symObjAddr: 0xFC0, symBinAddr: 0x100004C2C, symSize: 0x2C }
  - { offsetInCU: 0xC40B, offset: 0x1A432, size: 0x8, addend: 0x0, symName: __ZNSt3__14pairIKNS_12basic_stringIcNS_11char_traitsIcEENS_9allocatorIcEEEENS_10unique_ptrI9Mix_ChunkPFvPS9_EEEED2Ev, symObjAddr: 0xFEC, symBinAddr: 0x100004C58, symSize: 0x38 }
  - { offsetInCU: 0xC436, offset: 0x1A45D, size: 0x8, addend: 0x0, symName: __ZNSt3__117__hash_value_typeINS_12basic_stringIcNS_11char_traitsIcEENS_9allocatorIcEEEENS_10unique_ptrI9Mix_ChunkPFvPS8_EEEE11__get_valueB8ue170006Ev, symObjAddr: 0x1024, symBinAddr: 0x100004C90, symSize: 0x24 }
  - { offsetInCU: 0xC45B, offset: 0x1A482, size: 0x8, addend: 0x0, symName: __ZNSt3__19allocatorINS_11__hash_nodeINS_17__hash_value_typeINS_12basic_stringIcNS_11char_traitsIcEENS0_IcEEEENS_10unique_ptrI9Mix_ChunkPFvPS9_EEEEEPvEEE10deallocateB8ue170006EPSG_m, symObjAddr: 0x1080, symBinAddr: 0x100004CEC, symSize: 0x44 }
  - { offsetInCU: 0xC49C, offset: 0x1A4C3, size: 0x8, addend: 0x0, symName: __ZNSt3__122__compressed_pair_elemINS_16__hash_node_baseIPNS_11__hash_nodeINS_17__hash_value_typeINS_12basic_stringIcNS_11char_traitsIcEENS_9allocatorIcEEEENS_10unique_ptrI9Mix_ChunkPFvPSB_EEEEEPvEEEELi0ELb0EE5__getB8ue170006Ev, symObjAddr: 0x11EC, symBinAddr: 0x100004D30, symSize: 0x14 }
  - { offsetInCU: 0xC4C1, offset: 0x1A4E8, size: 0x8, addend: 0x0, symName: __ZNSt3__110unique_ptrIA_PNS_16__hash_node_baseIPNS_11__hash_nodeINS_17__hash_value_typeINS_12basic_stringIcNS_11char_traitsIcEENS_9allocatorIcEEEENS0_I9Mix_ChunkPFvPSA_EEEEEPvEEEENS_25__bucket_list_deallocatorINS7_ISK_EEEEED2B8ue170006Ev, symObjAddr: 0x1200, symBinAddr: 0x100004D44, symSize: 0x30 }
  - { offsetInCU: 0xC4EA, offset: 0x1A511, size: 0x8, addend: 0x0, symName: __ZNSt3__110unique_ptrIA_PNS_16__hash_node_baseIPNS_11__hash_nodeINS_17__hash_value_typeINS_12basic_stringIcNS_11char_traitsIcEENS_9allocatorIcEEEENS0_I9Mix_ChunkPFvPSA_EEEEEPvEEEENS_25__bucket_list_deallocatorINS7_ISK_EEEEE5resetB8ue170006EDn, symObjAddr: 0x1230, symBinAddr: 0x100004D74, symSize: 0x6C }
  - { offsetInCU: 0xC529, offset: 0x1A550, size: 0x8, addend: 0x0, symName: __ZNSt3__117__compressed_pairIPPNS_16__hash_node_baseIPNS_11__hash_nodeINS_17__hash_value_typeINS_12basic_stringIcNS_11char_traitsIcEENS_9allocatorIcEEEENS_10unique_ptrI9Mix_ChunkPFvPSB_EEEEEPvEEEENS_25__bucket_list_deallocatorINS7_ISL_EEEEE5firstB8ue170006Ev, symObjAddr: 0x129C, symBinAddr: 0x100004DE0, symSize: 0x24 }
  - { offsetInCU: 0xC54E, offset: 0x1A575, size: 0x8, addend: 0x0, symName: __ZNSt3__117__compressed_pairIPPNS_16__hash_node_baseIPNS_11__hash_nodeINS_17__hash_value_typeINS_12basic_stringIcNS_11char_traitsIcEENS_9allocatorIcEEEENS_10unique_ptrI9Mix_ChunkPFvPSB_EEEEEPvEEEENS_25__bucket_list_deallocatorINS7_ISL_EEEEE6secondB8ue170006Ev, symObjAddr: 0x12C0, symBinAddr: 0x100004E04, symSize: 0x28 }
  - { offsetInCU: 0xC573, offset: 0x1A59A, size: 0x8, addend: 0x0, symName: __ZNSt3__125__bucket_list_deallocatorINS_9allocatorIPNS_16__hash_node_baseIPNS_11__hash_nodeINS_17__hash_value_typeINS_12basic_stringIcNS_11char_traitsIcEENS1_IcEEEENS_10unique_ptrI9Mix_ChunkPFvPSB_EEEEEPvEEEEEEEclB8ue170006EPSL_, symObjAddr: 0x12E8, symBinAddr: 0x100004E2C, symSize: 0x58 }
  - { offsetInCU: 0xC5A7, offset: 0x1A5CE, size: 0x8, addend: 0x0, symName: __ZNSt3__122__compressed_pair_elemIPPNS_16__hash_node_baseIPNS_11__hash_nodeINS_17__hash_value_typeINS_12basic_stringIcNS_11char_traitsIcEENS_9allocatorIcEEEENS_10unique_ptrI9Mix_ChunkPFvPSB_EEEEEPvEEEELi0ELb0EE5__getB8ue170006Ev, symObjAddr: 0x1340, symBinAddr: 0x100004E84, symSize: 0x14 }
  - { offsetInCU: 0xC5CC, offset: 0x1A5F3, size: 0x8, addend: 0x0, symName: __ZNSt3__122__compressed_pair_elemINS_25__bucket_list_deallocatorINS_9allocatorIPNS_16__hash_node_baseIPNS_11__hash_nodeINS_17__hash_value_typeINS_12basic_stringIcNS_11char_traitsIcEENS2_IcEEEENS_10unique_ptrI9Mix_ChunkPFvPSC_EEEEEPvEEEEEEEELi1ELb0EE5__getB8ue170006Ev, symObjAddr: 0x1354, symBinAddr: 0x100004E98, symSize: 0x14 }
  - { offsetInCU: 0xC5F1, offset: 0x1A618, size: 0x8, addend: 0x0, symName: __ZNSt3__116allocator_traitsINS_9allocatorIPNS_16__hash_node_baseIPNS_11__hash_nodeINS_17__hash_value_typeINS_12basic_stringIcNS_11char_traitsIcEENS1_IcEEEENS_10unique_ptrI9Mix_ChunkPFvPSB_EEEEEPvEEEEEEE10deallocateB8ue170006ERSM_PSL_m, symObjAddr: 0x1368, symBinAddr: 0x100004EAC, symSize: 0x34 }
  - { offsetInCU: 0xC633, offset: 0x1A65A, size: 0x8, addend: 0x0, symName: __ZNSt3__125__bucket_list_deallocatorINS_9allocatorIPNS_16__hash_node_baseIPNS_11__hash_nodeINS_17__hash_value_typeINS_12basic_stringIcNS_11char_traitsIcEENS1_IcEEEENS_10unique_ptrI9Mix_ChunkPFvPSB_EEEEEPvEEEEEEE7__allocB8ue170006Ev, symObjAddr: 0x139C, symBinAddr: 0x100004EE0, symSize: 0x24 }
  - { offsetInCU: 0xC658, offset: 0x1A67F, size: 0x8, addend: 0x0, symName: __ZNSt3__125__bucket_list_deallocatorINS_9allocatorIPNS_16__hash_node_baseIPNS_11__hash_nodeINS_17__hash_value_typeINS_12basic_stringIcNS_11char_traitsIcEENS1_IcEEEENS_10unique_ptrI9Mix_ChunkPFvPSB_EEEEEPvEEEEEEE4sizeB8ue170006Ev, symObjAddr: 0x13C0, symBinAddr: 0x100004F04, symSize: 0x24 }
  - { offsetInCU: 0xC67D, offset: 0x1A6A4, size: 0x8, addend: 0x0, symName: __ZNSt3__19allocatorIPNS_16__hash_node_baseIPNS_11__hash_nodeINS_17__hash_value_typeINS_12basic_stringIcNS_11char_traitsIcEENS0_IcEEEENS_10unique_ptrI9Mix_ChunkPFvPSA_EEEEEPvEEEEE10deallocateB8ue170006EPSK_m, symObjAddr: 0x13E4, symBinAddr: 0x100004F28, symSize: 0x40 }
  - { offsetInCU: 0xC6BE, offset: 0x1A6E5, size: 0x8, addend: 0x0, symName: __ZNSt3__117__compressed_pairImNS_9allocatorIPNS_16__hash_node_baseIPNS_11__hash_nodeINS_17__hash_value_typeINS_12basic_stringIcNS_11char_traitsIcEENS1_IcEEEENS_10unique_ptrI9Mix_ChunkPFvPSB_EEEEEPvEEEEEEE6secondB8ue170006Ev, symObjAddr: 0x1424, symBinAddr: 0x100004F68, symSize: 0x24 }
  - { offsetInCU: 0xC6E3, offset: 0x1A70A, size: 0x8, addend: 0x0, symName: __ZNSt3__122__compressed_pair_elemINS_9allocatorIPNS_16__hash_node_baseIPNS_11__hash_nodeINS_17__hash_value_typeINS_12basic_stringIcNS_11char_traitsIcEENS1_IcEEEENS_10unique_ptrI9Mix_ChunkPFvPSB_EEEEEPvEEEEEELi1ELb1EE5__getB8ue170006Ev, symObjAddr: 0x1448, symBinAddr: 0x100004F8C, symSize: 0x14 }
  - { offsetInCU: 0xC708, offset: 0x1A72F, size: 0x8, addend: 0x0, symName: __ZNSt3__117__compressed_pairImNS_9allocatorIPNS_16__hash_node_baseIPNS_11__hash_nodeINS_17__hash_value_typeINS_12basic_stringIcNS_11char_traitsIcEENS1_IcEEEENS_10unique_ptrI9Mix_ChunkPFvPSB_EEEEEPvEEEEEEE5firstB8ue170006Ev, symObjAddr: 0x145C, symBinAddr: 0x100004FA0, symSize: 0x24 }
  - { offsetInCU: 0xC72D, offset: 0x1A754, size: 0x8, addend: 0x0, symName: __ZNSt3__122__compressed_pair_elemImLi0ELb0EE5__getB8ue170006Ev, symObjAddr: 0x1480, symBinAddr: 0x100004FC4, symSize: 0x14 }
  - { offsetInCU: 0xC752, offset: 0x1A779, size: 0x8, addend: 0x0, symName: __ZNSt3__112__hash_tableINS_17__hash_value_typeINS_12basic_stringIcNS_11char_traitsIcEENS_9allocatorIcEEEENS_10unique_ptrI9Mix_ChunkPFvPS9_EEEEENS_22__unordered_map_hasherIS7_SE_NS_4hashIS7_EENS_8equal_toIS7_EELb1EEENS_21__unordered_map_equalIS7_SE_SJ_SH_Lb1EEENS5_ISE_EEE5clearEv, symObjAddr: 0x1494, symBinAddr: 0x100004FD8, symSize: 0xDC }
  - { offsetInCU: 0xC7A4, offset: 0x1A7CB, size: 0x8, addend: 0x0, symName: __ZNSt3__112__hash_tableINS_17__hash_value_typeINS_12basic_stringIcNS_11char_traitsIcEENS_9allocatorIcEEEENS_10unique_ptrI9Mix_ChunkPFvPS9_EEEEENS_22__unordered_map_hasherIS7_SE_NS_4hashIS7_EENS_8equal_toIS7_EELb1EEENS_21__unordered_map_equalIS7_SE_SJ_SH_Lb1EEENS5_ISE_EEE4sizeB8ue170006Ev, symObjAddr: 0x1570, symBinAddr: 0x1000050B4, symSize: 0x28 }
  - { offsetInCU: 0xC7C9, offset: 0x1A7F0, size: 0x8, addend: 0x0, symName: __ZNKSt3__112__hash_tableINS_17__hash_value_typeINS_12basic_stringIcNS_11char_traitsIcEENS_9allocatorIcEEEENS_10unique_ptrI9Mix_ChunkPFvPS9_EEEEENS_22__unordered_map_hasherIS7_SE_NS_4hashIS7_EENS_8equal_toIS7_EELb1EEENS_21__unordered_map_equalIS7_SE_SJ_SH_Lb1EEENS5_ISE_EEE12bucket_countB8ue170006Ev, symObjAddr: 0x1598, symBinAddr: 0x1000050DC, symSize: 0x28 }
  - { offsetInCU: 0xC7EE, offset: 0x1A815, size: 0x8, addend: 0x0, symName: __ZNKSt3__110unique_ptrIA_PNS_16__hash_node_baseIPNS_11__hash_nodeINS_17__hash_value_typeINS_12basic_stringIcNS_11char_traitsIcEENS_9allocatorIcEEEENS0_I9Mix_ChunkPFvPSA_EEEEEPvEEEENS_25__bucket_list_deallocatorINS7_ISK_EEEEEixB8ue170006Em, symObjAddr: 0x15C0, symBinAddr: 0x100005104, symSize: 0x34 }
  - { offsetInCU: 0xC822, offset: 0x1A849, size: 0x8, addend: 0x0, symName: __ZNSt3__117__compressed_pairImNS_22__unordered_map_hasherINS_12basic_stringIcNS_11char_traitsIcEENS_9allocatorIcEEEENS_17__hash_value_typeIS7_NS_10unique_ptrI9Mix_ChunkPFvPSA_EEEEENS_4hashIS7_EENS_8equal_toIS7_EELb1EEEE5firstB8ue170006Ev, symObjAddr: 0x15F4, symBinAddr: 0x100005138, symSize: 0x24 }
  - { offsetInCU: 0xC847, offset: 0x1A86E, size: 0x8, addend: 0x0, symName: __ZNKSt3__110unique_ptrIA_PNS_16__hash_node_baseIPNS_11__hash_nodeINS_17__hash_value_typeINS_12basic_stringIcNS_11char_traitsIcEENS_9allocatorIcEEEENS0_I9Mix_ChunkPFvPSA_EEEEEPvEEEENS_25__bucket_list_deallocatorINS7_ISK_EEEEE11get_deleterB8ue170006Ev, symObjAddr: 0x1618, symBinAddr: 0x10000515C, symSize: 0x24 }
  - { offsetInCU: 0xC86C, offset: 0x1A893, size: 0x8, addend: 0x0, symName: __ZNKSt3__125__bucket_list_deallocatorINS_9allocatorIPNS_16__hash_node_baseIPNS_11__hash_nodeINS_17__hash_value_typeINS_12basic_stringIcNS_11char_traitsIcEENS1_IcEEEENS_10unique_ptrI9Mix_ChunkPFvPSB_EEEEEPvEEEEEEE4sizeB8ue170006Ev, symObjAddr: 0x163C, symBinAddr: 0x100005180, symSize: 0x28 }
  - { offsetInCU: 0xC891, offset: 0x1A8B8, size: 0x8, addend: 0x0, symName: __ZNKSt3__117__compressed_pairIPPNS_16__hash_node_baseIPNS_11__hash_nodeINS_17__hash_value_typeINS_12basic_stringIcNS_11char_traitsIcEENS_9allocatorIcEEEENS_10unique_ptrI9Mix_ChunkPFvPSB_EEEEEPvEEEENS_25__bucket_list_deallocatorINS7_ISL_EEEEE6secondB8ue170006Ev, symObjAddr: 0x1664, symBinAddr: 0x1000051A8, symSize: 0x28 }
  - { offsetInCU: 0xC8B6, offset: 0x1A8DD, size: 0x8, addend: 0x0, symName: __ZNKSt3__122__compressed_pair_elemINS_25__bucket_list_deallocatorINS_9allocatorIPNS_16__hash_node_baseIPNS_11__hash_nodeINS_17__hash_value_typeINS_12basic_stringIcNS_11char_traitsIcEENS2_IcEEEENS_10unique_ptrI9Mix_ChunkPFvPSC_EEEEEPvEEEEEEEELi1ELb0EE5__getB8ue170006Ev, symObjAddr: 0x168C, symBinAddr: 0x1000051D0, symSize: 0x14 }
  - { offsetInCU: 0xC8DB, offset: 0x1A902, size: 0x8, addend: 0x0, symName: __ZNKSt3__117__compressed_pairImNS_9allocatorIPNS_16__hash_node_baseIPNS_11__hash_nodeINS_17__hash_value_typeINS_12basic_stringIcNS_11char_traitsIcEENS1_IcEEEENS_10unique_ptrI9Mix_ChunkPFvPSB_EEEEEPvEEEEEEE5firstB8ue170006Ev, symObjAddr: 0x16A0, symBinAddr: 0x1000051E4, symSize: 0x24 }
  - { offsetInCU: 0xC900, offset: 0x1A927, size: 0x8, addend: 0x0, symName: __ZNKSt3__122__compressed_pair_elemImLi0ELb0EE5__getB8ue170006Ev, symObjAddr: 0x16C4, symBinAddr: 0x100005208, symSize: 0x14 }
  - { offsetInCU: 0xC925, offset: 0x1A94C, size: 0x8, addend: 0x0, symName: __ZNKSt3__117__compressed_pairIPPNS_16__hash_node_baseIPNS_11__hash_nodeINS_17__hash_value_typeINS_12basic_stringIcNS_11char_traitsIcEENS_9allocatorIcEEEENS_10unique_ptrI9Mix_ChunkPFvPSB_EEEEEPvEEEENS_25__bucket_list_deallocatorINS7_ISL_EEEEE5firstB8ue170006Ev, symObjAddr: 0x16D8, symBinAddr: 0x10000521C, symSize: 0x24 }
  - { offsetInCU: 0xC94A, offset: 0x1A971, size: 0x8, addend: 0x0, symName: __ZNKSt3__122__compressed_pair_elemIPPNS_16__hash_node_baseIPNS_11__hash_nodeINS_17__hash_value_typeINS_12basic_stringIcNS_11char_traitsIcEENS_9allocatorIcEEEENS_10unique_ptrI9Mix_ChunkPFvPSB_EEEEEPvEEEELi0ELb0EE5__getB8ue170006Ev, symObjAddr: 0x16FC, symBinAddr: 0x100005240, symSize: 0x14 }
  - { offsetInCU: 0xC96F, offset: 0x1A996, size: 0x8, addend: 0x0, symName: __ZNKSt3__112basic_stringIcNS_11char_traitsIcEENS_9allocatorIcEEE4dataB8ue170006Ev, symObjAddr: 0x1710, symBinAddr: 0x100005254, symSize: 0x28 }
  - { offsetInCU: 0xC994, offset: 0x1A9BB, size: 0x8, addend: 0x0, symName: __ZNKSt3__112basic_stringIcNS_11char_traitsIcEENS_9allocatorIcEEE13__get_pointerB8ue170006Ev, symObjAddr: 0x174C, symBinAddr: 0x100005290, symSize: 0x54 }
  - { offsetInCU: 0xC9B9, offset: 0x1A9E0, size: 0x8, addend: 0x0, symName: __ZNKSt3__112basic_stringIcNS_11char_traitsIcEENS_9allocatorIcEEE9__is_longB8ue170006Ev, symObjAddr: 0x17A0, symBinAddr: 0x1000052E4, symSize: 0x38 }
  - { offsetInCU: 0xC9DE, offset: 0x1AA05, size: 0x8, addend: 0x0, symName: __ZNKSt3__112basic_stringIcNS_11char_traitsIcEENS_9allocatorIcEEE18__get_long_pointerB8ue170006Ev, symObjAddr: 0x17D8, symBinAddr: 0x10000531C, symSize: 0x28 }
  - { offsetInCU: 0xCA03, offset: 0x1AA2A, size: 0x8, addend: 0x0, symName: __ZNKSt3__112basic_stringIcNS_11char_traitsIcEENS_9allocatorIcEEE19__get_short_pointerB8ue170006Ev, symObjAddr: 0x1800, symBinAddr: 0x100005344, symSize: 0x28 }
  - { offsetInCU: 0xCA28, offset: 0x1AA4F, size: 0x8, addend: 0x0, symName: __ZNKSt3__117__compressed_pairINS_12basic_stringIcNS_11char_traitsIcEENS_9allocatorIcEEE5__repES5_E5firstB8ue170006Ev, symObjAddr: 0x1828, symBinAddr: 0x10000536C, symSize: 0x24 }
  - { offsetInCU: 0xCA4D, offset: 0x1AA74, size: 0x8, addend: 0x0, symName: __ZNKSt3__122__compressed_pair_elemINS_12basic_stringIcNS_11char_traitsIcEENS_9allocatorIcEEE5__repELi0ELb0EE5__getB8ue170006Ev, symObjAddr: 0x184C, symBinAddr: 0x100005390, symSize: 0x14 }
  - { offsetInCU: 0xCA72, offset: 0x1AA99, size: 0x8, addend: 0x0, symName: __ZNSt3__114pointer_traitsIPKcE10pointer_toB8ue170006ERS1_, symObjAddr: 0x1860, symBinAddr: 0x1000053A4, symSize: 0x14 }
  - { offsetInCU: 0xCA95, offset: 0x1AABC, size: 0x8, addend: 0x0, symName: __ZNSt3__111char_traitsIcE6lengthB8ue170006EPKc, symObjAddr: 0x1A60, symBinAddr: 0x1000055A4, symSize: 0x34 }
  - { offsetInCU: 0xCAD6, offset: 0x1AAFD, size: 0x8, addend: 0x0, symName: __ZNKSt3__113basic_ostreamIcNS_11char_traitsIcEEE6sentrycvbB8ue170006Ev, symObjAddr: 0x1A94, symBinAddr: 0x1000055D8, symSize: 0x1C }
  - { offsetInCU: 0xCAFB, offset: 0x1AB22, size: 0x8, addend: 0x0, symName: __ZNSt3__119ostreambuf_iteratorIcNS_11char_traitsIcEEEC1B8ue170006ERNS_13basic_ostreamIcS2_EE, symObjAddr: 0x1CF0, symBinAddr: 0x100005834, symSize: 0x34 }
  - { offsetInCU: 0xCB32, offset: 0x1AB59, size: 0x8, addend: 0x0, symName: __ZNKSt3__18ios_base5flagsB8ue170006Ev, symObjAddr: 0x1D24, symBinAddr: 0x100005868, symSize: 0x18 }
  - { offsetInCU: 0xCB59, offset: 0x1AB80, size: 0x8, addend: 0x0, symName: __ZNKSt3__19basic_iosIcNS_11char_traitsIcEEE4fillB8ue170006Ev, symObjAddr: 0x1D3C, symBinAddr: 0x100005880, symSize: 0x64 }
  - { offsetInCU: 0xCB7F, offset: 0x1ABA6, size: 0x8, addend: 0x0, symName: __ZNKSt3__119ostreambuf_iteratorIcNS_11char_traitsIcEEE6failedB8ue170006Ev, symObjAddr: 0x1DA0, symBinAddr: 0x1000058E4, symSize: 0x24 }
  - { offsetInCU: 0xCBA4, offset: 0x1ABCB, size: 0x8, addend: 0x0, symName: __ZNSt3__19basic_iosIcNS_11char_traitsIcEEE8setstateB8ue170006Ej, symObjAddr: 0x1DC4, symBinAddr: 0x100005908, symSize: 0x2C }
  - { offsetInCU: 0xCBD8, offset: 0x1ABFF, size: 0x8, addend: 0x0, symName: __ZNKSt3__18ios_base5widthB8ue170006Ev, symObjAddr: 0x1DF0, symBinAddr: 0x100005934, symSize: 0x18 }
  - { offsetInCU: 0xCBFF, offset: 0x1AC26, size: 0x8, addend: 0x0, symName: __ZNSt3__115basic_streambufIcNS_11char_traitsIcEEE5sputnB8ue170006EPKcl, symObjAddr: 0x1E08, symBinAddr: 0x10000594C, symSize: 0x3C }
  - { offsetInCU: 0xCC40, offset: 0x1AC67, size: 0x8, addend: 0x0, symName: __ZNSt3__112basic_stringIcNS_11char_traitsIcEENS_9allocatorIcEEEC1B8ue170006Emc, symObjAddr: 0x1E44, symBinAddr: 0x100005988, symSize: 0x3C }
  - { offsetInCU: 0xCC87, offset: 0x1ACAE, size: 0x8, addend: 0x0, symName: __ZNSt3__112basic_stringIcNS_11char_traitsIcEENS_9allocatorIcEEE4dataB8ue170006Ev, symObjAddr: 0x1E80, symBinAddr: 0x1000059C4, symSize: 0x28 }
  - { offsetInCU: 0xCCAC, offset: 0x1ACD3, size: 0x8, addend: 0x0, symName: __ZNSt3__18ios_base5widthB8ue170006El, symObjAddr: 0x1EA8, symBinAddr: 0x1000059EC, symSize: 0x2C }
  - { offsetInCU: 0xCCF1, offset: 0x1AD18, size: 0x8, addend: 0x0, symName: __ZNSt3__112basic_stringIcNS_11char_traitsIcEENS_9allocatorIcEEEC2B8ue170006Emc, symObjAddr: 0x1ED4, symBinAddr: 0x100005A18, symSize: 0x4C }
  - { offsetInCU: 0xCD38, offset: 0x1AD5F, size: 0x8, addend: 0x0, symName: __ZNSt3__117__compressed_pairINS_12basic_stringIcNS_11char_traitsIcEENS_9allocatorIcEEE5__repES5_EC1B8ue170006INS_18__default_init_tagESA_EEOT_OT0_, symObjAddr: 0x1F20, symBinAddr: 0x100005A64, symSize: 0x3C }
  - { offsetInCU: 0xCD8F, offset: 0x1ADB6, size: 0x8, addend: 0x0, symName: __ZNSt3__117__compressed_pairINS_12basic_stringIcNS_11char_traitsIcEENS_9allocatorIcEEE5__repES5_EC2B8ue170006INS_18__default_init_tagESA_EEOT_OT0_, symObjAddr: 0x1F5C, symBinAddr: 0x100005AA0, symSize: 0x3C }
  - { offsetInCU: 0xCDE6, offset: 0x1AE0D, size: 0x8, addend: 0x0, symName: __ZNSt3__122__compressed_pair_elemINS_12basic_stringIcNS_11char_traitsIcEENS_9allocatorIcEEE5__repELi0ELb0EEC2B8ue170006ENS_18__default_init_tagE, symObjAddr: 0x1F98, symBinAddr: 0x100005ADC, symSize: 0x14 }
  - { offsetInCU: 0xCE1A, offset: 0x1AE41, size: 0x8, addend: 0x0, symName: __ZNSt3__122__compressed_pair_elemINS_9allocatorIcEELi1ELb1EEC2B8ue170006ENS_18__default_init_tagE, symObjAddr: 0x1FAC, symBinAddr: 0x100005AF0, symSize: 0x2C }
  - { offsetInCU: 0xCE4E, offset: 0x1AE75, size: 0x8, addend: 0x0, symName: __ZNSt3__19allocatorIcEC2B8ue170006Ev, symObjAddr: 0x1FD8, symBinAddr: 0x100005B1C, symSize: 0x2C }
  - { offsetInCU: 0xCE77, offset: 0x1AE9E, size: 0x8, addend: 0x0, symName: __ZNSt3__116__non_trivial_ifILb1ENS_9allocatorIcEEEC2B8ue170006Ev, symObjAddr: 0x2004, symBinAddr: 0x100005B48, symSize: 0x14 }
  - { offsetInCU: 0xCEA0, offset: 0x1AEC7, size: 0x8, addend: 0x0, symName: __ZNSt3__112basic_stringIcNS_11char_traitsIcEENS_9allocatorIcEEE13__get_pointerB8ue170006Ev, symObjAddr: 0x202C, symBinAddr: 0x100005B70, symSize: 0x54 }
  - { offsetInCU: 0xCEC5, offset: 0x1AEEC, size: 0x8, addend: 0x0, symName: __ZNSt3__112basic_stringIcNS_11char_traitsIcEENS_9allocatorIcEEE18__get_long_pointerB8ue170006Ev, symObjAddr: 0x2080, symBinAddr: 0x100005BC4, symSize: 0x28 }
  - { offsetInCU: 0xCEEA, offset: 0x1AF11, size: 0x8, addend: 0x0, symName: __ZNSt3__112basic_stringIcNS_11char_traitsIcEENS_9allocatorIcEEE19__get_short_pointerB8ue170006Ev, symObjAddr: 0x20A8, symBinAddr: 0x100005BEC, symSize: 0x28 }
  - { offsetInCU: 0xCF0F, offset: 0x1AF36, size: 0x8, addend: 0x0, symName: __ZNSt3__117__compressed_pairINS_12basic_stringIcNS_11char_traitsIcEENS_9allocatorIcEEE5__repES5_E5firstB8ue170006Ev, symObjAddr: 0x20D0, symBinAddr: 0x100005C14, symSize: 0x24 }
  - { offsetInCU: 0xCF34, offset: 0x1AF5B, size: 0x8, addend: 0x0, symName: __ZNSt3__122__compressed_pair_elemINS_12basic_stringIcNS_11char_traitsIcEENS_9allocatorIcEEE5__repELi0ELb0EE5__getB8ue170006Ev, symObjAddr: 0x20F4, symBinAddr: 0x100005C38, symSize: 0x14 }
  - { offsetInCU: 0xCF59, offset: 0x1AF80, size: 0x8, addend: 0x0, symName: __ZNSt3__114pointer_traitsIPcE10pointer_toB8ue170006ERc, symObjAddr: 0x2108, symBinAddr: 0x100005C4C, symSize: 0x14 }
  - { offsetInCU: 0xCF7C, offset: 0x1AFA3, size: 0x8, addend: 0x0, symName: __ZNSt3__119ostreambuf_iteratorIcNS_11char_traitsIcEEEC2B8ue170006ERNS_13basic_ostreamIcS2_EE, symObjAddr: 0x211C, symBinAddr: 0x100005C60, symSize: 0x54 }
  - { offsetInCU: 0xCFB3, offset: 0x1AFDA, size: 0x8, addend: 0x0, symName: __ZNKSt3__19basic_iosIcNS_11char_traitsIcEEE5rdbufB8ue170006Ev, symObjAddr: 0x2170, symBinAddr: 0x100005CB4, symSize: 0x24 }
  - { offsetInCU: 0xCFD9, offset: 0x1B000, size: 0x8, addend: 0x0, symName: __ZNKSt3__18ios_base5rdbufB8ue170006Ev, symObjAddr: 0x2194, symBinAddr: 0x100005CD8, symSize: 0x18 }
  - { offsetInCU: 0xCFFE, offset: 0x1B025, size: 0x8, addend: 0x0, symName: __ZNSt3__111char_traitsIcE11eq_int_typeB8ue170006Eii, symObjAddr: 0x21AC, symBinAddr: 0x100005CF0, symSize: 0x28 }
  - { offsetInCU: 0xD031, offset: 0x1B058, size: 0x8, addend: 0x0, symName: __ZNSt3__111char_traitsIcE3eofB8ue170006Ev, symObjAddr: 0x21D4, symBinAddr: 0x100005D18, symSize: 0x8 }
  - { offsetInCU: 0xD045, offset: 0x1B06C, size: 0x8, addend: 0x0, symName: __ZNKSt3__19basic_iosIcNS_11char_traitsIcEEE5widenB8ue170006Ec, symObjAddr: 0x21DC, symBinAddr: 0x100005D20, symSize: 0x84 }
  - { offsetInCU: 0xD0B1, offset: 0x1B0D8, size: 0x8, addend: 0x0, symName: __ZNKSt3__15ctypeIcE5widenB8ue170006Ec, symObjAddr: 0x228C, symBinAddr: 0x100005DD0, symSize: 0x38 }
  - { offsetInCU: 0xD0E5, offset: 0x1B10C, size: 0x8, addend: 0x0, symName: __ZNSt3__18ios_base8setstateB8ue170006Ej, symObjAddr: 0x22C4, symBinAddr: 0x100005E08, symSize: 0x34 }
  - { offsetInCU: 0xD11A, offset: 0x1B141, size: 0x8, addend: 0x0, symName: __ZNSt3__110unique_ptrI9Mix_ChunkPFvPS1_EEC2B8ue170006ILb1EvEES2_NS_16__dependent_typeINS_27__unique_ptr_deleter_sfinaeIS4_EEXT_EE20__good_rval_ref_typeE, symObjAddr: 0x231C, symBinAddr: 0x100005E60, symSize: 0x48 }
  - { offsetInCU: 0xD16A, offset: 0x1B191, size: 0x8, addend: 0x0, symName: __ZNSt3__117__compressed_pairIP9Mix_ChunkPFvS2_EEC1B8ue170006IRS2_S4_EEOT_OT0_, symObjAddr: 0x2364, symBinAddr: 0x100005EA8, symSize: 0x3C }
  - { offsetInCU: 0xD1C1, offset: 0x1B1E8, size: 0x8, addend: 0x0, symName: __ZNSt3__117__compressed_pairIP9Mix_ChunkPFvS2_EEC2B8ue170006IRS2_S4_EEOT_OT0_, symObjAddr: 0x23A0, symBinAddr: 0x100005EE4, symSize: 0x48 }
  - { offsetInCU: 0xD218, offset: 0x1B23F, size: 0x8, addend: 0x0, symName: __ZNSt3__122__compressed_pair_elemIP9Mix_ChunkLi0ELb0EEC2B8ue170006IRS2_vEEOT_, symObjAddr: 0x23E8, symBinAddr: 0x100005F2C, symSize: 0x24 }
  - { offsetInCU: 0xD259, offset: 0x1B280, size: 0x8, addend: 0x0, symName: __ZNSt3__122__compressed_pair_elemIPFvP9Mix_ChunkELi1ELb0EEC2B8ue170006IS4_vEEOT_, symObjAddr: 0x240C, symBinAddr: 0x100005F50, symSize: 0x24 }
  - { offsetInCU: 0xD29A, offset: 0x1B2C1, size: 0x8, addend: 0x0, symName: __ZNSt3__110unique_ptrI9Mix_ChunkPFvPS1_EED2B8ue170006Ev, symObjAddr: 0x2430, symBinAddr: 0x100005F74, symSize: 0x30 }
  - { offsetInCU: 0xD2C3, offset: 0x1B2EA, size: 0x8, addend: 0x0, symName: __ZNSt3__110unique_ptrI9Mix_ChunkPFvPS1_EE5resetB8ue170006ES2_, symObjAddr: 0x2460, symBinAddr: 0x100005FA4, symSize: 0x84 }
  - { offsetInCU: 0xD306, offset: 0x1B32D, size: 0x8, addend: 0x0, symName: __ZNSt3__117__compressed_pairIP9Mix_ChunkPFvS2_EE5firstB8ue170006Ev, symObjAddr: 0x24E4, symBinAddr: 0x100006028, symSize: 0x24 }
  - { offsetInCU: 0xD32B, offset: 0x1B352, size: 0x8, addend: 0x0, symName: __ZNSt3__117__compressed_pairIP9Mix_ChunkPFvS2_EE6secondB8ue170006Ev, symObjAddr: 0x2508, symBinAddr: 0x10000604C, symSize: 0x28 }
  - { offsetInCU: 0xD350, offset: 0x1B377, size: 0x8, addend: 0x0, symName: __ZNSt3__122__compressed_pair_elemIP9Mix_ChunkLi0ELb0EE5__getB8ue170006Ev, symObjAddr: 0x2530, symBinAddr: 0x100006074, symSize: 0x14 }
  - { offsetInCU: 0xD375, offset: 0x1B39C, size: 0x8, addend: 0x0, symName: __ZNSt3__122__compressed_pair_elemIPFvP9Mix_ChunkELi1ELb0EE5__getB8ue170006Ev, symObjAddr: 0x2544, symBinAddr: 0x100006088, symSize: 0x14 }
  - { offsetInCU: 0xD39A, offset: 0x1B3C1, size: 0x8, addend: 0x0, symName: __ZNSt3__112__hash_tableINS_17__hash_value_typeINS_12basic_stringIcNS_11char_traitsIcEENS_9allocatorIcEEEENS_10unique_ptrI9Mix_ChunkPFvPS9_EEEEENS_22__unordered_map_hasherIS7_SE_NS_4hashIS7_EENS_8equal_toIS7_EELb1EEENS_21__unordered_map_equalIS7_SE_SJ_SH_Lb1EEENS5_ISE_EEE16__emplace_uniqueB8ue170006IRKS7_SD_EENS_9enable_ifIXsr21__can_extract_map_keyIT_S7_NS_4pairISQ_SD_EEEE5valueENSU_INS_15__hash_iteratorIPNS_11__hash_nodeISE_PvEEEEbEEE4typeEOST_OT0_, symObjAddr: 0x2558, symBinAddr: 0x10000609C, symSize: 0x48 }
  - { offsetInCU: 0xD3EF, offset: 0x1B416, size: 0x8, addend: 0x0, symName: __ZNSt3__14pairINS_19__hash_map_iteratorINS_15__hash_iteratorIPNS_11__hash_nodeINS_17__hash_value_typeINS_12basic_stringIcNS_11char_traitsIcEENS_9allocatorIcEEEENS_10unique_ptrI9Mix_ChunkPFvPSC_EEEEEPvEEEEEEbEC1B8ue170006ISL_bLSI_0EEEONS0_IT_T0_EE, symObjAddr: 0x25A0, symBinAddr: 0x1000060E4, symSize: 0x34 }
  - { offsetInCU: 0xD43F, offset: 0x1B466, size: 0x8, addend: 0x0, symName: __ZNSt3__112__hash_tableINS_17__hash_value_typeINS_12basic_stringIcNS_11char_traitsIcEENS_9allocatorIcEEEENS_10unique_ptrI9Mix_ChunkPFvPS9_EEEEENS_22__unordered_map_hasherIS7_SE_NS_4hashIS7_EENS_8equal_toIS7_EELb1EEENS_21__unordered_map_equalIS7_SE_SJ_SH_Lb1EEENS5_ISE_EEE25__emplace_unique_key_argsIS7_JRKS7_SD_EEENS_4pairINS_15__hash_iteratorIPNS_11__hash_nodeISE_PvEEEEbEERKT_DpOT0_, symObjAddr: 0x25D4, symBinAddr: 0x100006118, symSize: 0x4C0 }
  - { offsetInCU: 0xD533, offset: 0x1B55A, size: 0x8, addend: 0x0, symName: __ZNSt3__112__hash_tableINS_17__hash_value_typeINS_12basic_stringIcNS_11char_traitsIcEENS_9allocatorIcEEEENS_10unique_ptrI9Mix_ChunkPFvPS9_EEEEENS_22__unordered_map_hasherIS7_SE_NS_4hashIS7_EENS_8equal_toIS7_EELb1EEENS_21__unordered_map_equalIS7_SE_SJ_SH_Lb1EEENS5_ISE_EEE13hash_functionB8ue170006Ev, symObjAddr: 0x2A94, symBinAddr: 0x1000065D8, symSize: 0x28 }
  - { offsetInCU: 0xD558, offset: 0x1B57F, size: 0x8, addend: 0x0, symName: __ZNKSt3__122__unordered_map_hasherINS_12basic_stringIcNS_11char_traitsIcEENS_9allocatorIcEEEENS_17__hash_value_typeIS6_NS_10unique_ptrI9Mix_ChunkPFvPS9_EEEEENS_4hashIS6_EENS_8equal_toIS6_EELb1EEclB8ue170006ERKS6_, symObjAddr: 0x2ABC, symBinAddr: 0x100006600, symSize: 0x2C }
  - { offsetInCU: 0xD58C, offset: 0x1B5B3, size: 0x8, addend: 0x0, symName: __ZNKSt3__116__hash_node_baseIPNS_11__hash_nodeINS_17__hash_value_typeINS_12basic_stringIcNS_11char_traitsIcEENS_9allocatorIcEEEENS_10unique_ptrI9Mix_ChunkPFvPSA_EEEEEPvEEE6__hashB8ue170006Ev, symObjAddr: 0x2B80, symBinAddr: 0x1000066C4, symSize: 0x18 }
  - { offsetInCU: 0xD5B1, offset: 0x1B5D8, size: 0x8, addend: 0x0, symName: __ZNSt3__112__hash_tableINS_17__hash_value_typeINS_12basic_stringIcNS_11char_traitsIcEENS_9allocatorIcEEEENS_10unique_ptrI9Mix_ChunkPFvPS9_EEEEENS_22__unordered_map_hasherIS7_SE_NS_4hashIS7_EENS_8equal_toIS7_EELb1EEENS_21__unordered_map_equalIS7_SE_SJ_SH_Lb1EEENS5_ISE_EEE6key_eqB8ue170006Ev, symObjAddr: 0x2B98, symBinAddr: 0x1000066DC, symSize: 0x28 }
  - { offsetInCU: 0xD5D6, offset: 0x1B5FD, size: 0x8, addend: 0x0, symName: __ZNKSt3__121__unordered_map_equalINS_12basic_stringIcNS_11char_traitsIcEENS_9allocatorIcEEEENS_17__hash_value_typeIS6_NS_10unique_ptrI9Mix_ChunkPFvPS9_EEEEENS_8equal_toIS6_EENS_4hashIS6_EELb1EEclB8ue170006ERKSE_RKS6_, symObjAddr: 0x2BC0, symBinAddr: 0x100006704, symSize: 0x48 }
  - { offsetInCU: 0xD619, offset: 0x1B640, size: 0x8, addend: 0x0, symName: __ZNSt3__112__hash_tableINS_17__hash_value_typeINS_12basic_stringIcNS_11char_traitsIcEENS_9allocatorIcEEEENS_10unique_ptrI9Mix_ChunkPFvPS9_EEEEENS_22__unordered_map_hasherIS7_SE_NS_4hashIS7_EENS_8equal_toIS7_EELb1EEENS_21__unordered_map_equalIS7_SE_SJ_SH_Lb1EEENS5_ISE_EEE21__construct_node_hashIRKS7_JSD_EEENS8_INS_11__hash_nodeISE_PvEENS_22__hash_node_destructorINS5_ISU_EEEEEEmOT_DpOT0_, symObjAddr: 0x2C08, symBinAddr: 0x10000674C, symSize: 0x148 }
  - { offsetInCU: 0xD69F, offset: 0x1B6C6, size: 0x8, addend: 0x0, symName: __ZNSt3__112__hash_tableINS_17__hash_value_typeINS_12basic_stringIcNS_11char_traitsIcEENS_9allocatorIcEEEENS_10unique_ptrI9Mix_ChunkPFvPS9_EEEEENS_22__unordered_map_hasherIS7_SE_NS_4hashIS7_EENS_8equal_toIS7_EELb1EEENS_21__unordered_map_equalIS7_SE_SJ_SH_Lb1EEENS5_ISE_EEE15max_load_factorB8ue170006Ev, symObjAddr: 0x2D50, symBinAddr: 0x100006894, symSize: 0x28 }
  - { offsetInCU: 0xD6C4, offset: 0x1B6EB, size: 0x8, addend: 0x0, symName: __ZNSt3__112__hash_tableINS_17__hash_value_typeINS_12basic_stringIcNS_11char_traitsIcEENS_9allocatorIcEEEENS_10unique_ptrI9Mix_ChunkPFvPS9_EEEEENS_22__unordered_map_hasherIS7_SE_NS_4hashIS7_EENS_8equal_toIS7_EELb1EEENS_21__unordered_map_equalIS7_SE_SJ_SH_Lb1EEENS5_ISE_EEE15__rehash_uniqueB8ue170006Em, symObjAddr: 0x2D78, symBinAddr: 0x1000068BC, symSize: 0x2C }
  - { offsetInCU: 0xD6F7, offset: 0x1B71E, size: 0x8, addend: 0x0, symName: __Z4ceilB8ue170006f, symObjAddr: 0x2E20, symBinAddr: 0x100006938, symSize: 0x18 }
  - { offsetInCU: 0xD726, offset: 0x1B74D, size: 0x8, addend: 0x0, symName: __ZNSt3__116__hash_node_baseIPNS_11__hash_nodeINS_17__hash_value_typeINS_12basic_stringIcNS_11char_traitsIcEENS_9allocatorIcEEEENS_10unique_ptrI9Mix_ChunkPFvPSA_EEEEEPvEEE5__ptrB8ue170006Ev, symObjAddr: 0x2E38, symBinAddr: 0x100006950, symSize: 0x24 }
  - { offsetInCU: 0xD74B, offset: 0x1B772, size: 0x8, addend: 0x0, symName: __ZNKSt3__110unique_ptrINS_11__hash_nodeINS_17__hash_value_typeINS_12basic_stringIcNS_11char_traitsIcEENS_9allocatorIcEEEENS0_I9Mix_ChunkPFvPS9_EEEEEPvEENS_22__hash_node_destructorINS6_ISG_EEEEEptB8ue170006Ev, symObjAddr: 0x2E5C, symBinAddr: 0x100006974, symSize: 0x28 }
  - { offsetInCU: 0xD770, offset: 0x1B797, size: 0x8, addend: 0x0, symName: __ZNKSt3__110unique_ptrINS_11__hash_nodeINS_17__hash_value_typeINS_12basic_stringIcNS_11char_traitsIcEENS_9allocatorIcEEEENS0_I9Mix_ChunkPFvPS9_EEEEEPvEENS_22__hash_node_destructorINS6_ISG_EEEEE3getB8ue170006Ev, symObjAddr: 0x2E84, symBinAddr: 0x10000699C, symSize: 0x28 }
  - { offsetInCU: 0xD795, offset: 0x1B7BC, size: 0x8, addend: 0x0, symName: __ZNSt3__110unique_ptrINS_11__hash_nodeINS_17__hash_value_typeINS_12basic_stringIcNS_11char_traitsIcEENS_9allocatorIcEEEENS0_I9Mix_ChunkPFvPS9_EEEEEPvEENS_22__hash_node_destructorINS6_ISG_EEEEE7releaseB8ue170006Ev, symObjAddr: 0x2EAC, symBinAddr: 0x1000069C4, symSize: 0x44 }
  - { offsetInCU: 0xD7C9, offset: 0x1B7F0, size: 0x8, addend: 0x0, symName: __ZNSt3__110unique_ptrINS_11__hash_nodeINS_17__hash_value_typeINS_12basic_stringIcNS_11char_traitsIcEENS_9allocatorIcEEEENS0_I9Mix_ChunkPFvPS9_EEEEEPvEENS_22__hash_node_destructorINS6_ISG_EEEEED1B8ue170006Ev, symObjAddr: 0x2EF0, symBinAddr: 0x100006A08, symSize: 0x2C }
  - { offsetInCU: 0xD7F2, offset: 0x1B819, size: 0x8, addend: 0x0, symName: __ZNSt3__115__hash_iteratorIPNS_11__hash_nodeINS_17__hash_value_typeINS_12basic_stringIcNS_11char_traitsIcEENS_9allocatorIcEEEENS_10unique_ptrI9Mix_ChunkPFvPSA_EEEEEPvEEEC1B8ue170006EPNS_16__hash_node_baseISI_EE, symObjAddr: 0x2F1C, symBinAddr: 0x100006A34, symSize: 0x34 }
  - { offsetInCU: 0xD834, offset: 0x1B85B, size: 0x8, addend: 0x0, symName: __ZNSt3__14pairINS_15__hash_iteratorIPNS_11__hash_nodeINS_17__hash_value_typeINS_12basic_stringIcNS_11char_traitsIcEENS_9allocatorIcEEEENS_10unique_ptrI9Mix_ChunkPFvPSB_EEEEEPvEEEEbEC1B8ue170006ISK_RbLSH_0EEEOT_OT0_, symObjAddr: 0x2F50, symBinAddr: 0x100006A68, symSize: 0x3C }
  - { offsetInCU: 0xD891, offset: 0x1B8B8, size: 0x8, addend: 0x0, symName: __ZNSt3__117__compressed_pairImNS_22__unordered_map_hasherINS_12basic_stringIcNS_11char_traitsIcEENS_9allocatorIcEEEENS_17__hash_value_typeIS7_NS_10unique_ptrI9Mix_ChunkPFvPSA_EEEEENS_4hashIS7_EENS_8equal_toIS7_EELb1EEEE6secondB8ue170006Ev, symObjAddr: 0x2F8C, symBinAddr: 0x100006AA4, symSize: 0x24 }
  - { offsetInCU: 0xD8B6, offset: 0x1B8DD, size: 0x8, addend: 0x0, symName: __ZNSt3__122__compressed_pair_elemINS_22__unordered_map_hasherINS_12basic_stringIcNS_11char_traitsIcEENS_9allocatorIcEEEENS_17__hash_value_typeIS7_NS_10unique_ptrI9Mix_ChunkPFvPSA_EEEEENS_4hashIS7_EENS_8equal_toIS7_EELb1EEELi1ELb1EE5__getB8ue170006Ev, symObjAddr: 0x2FB0, symBinAddr: 0x100006AC8, symSize: 0x14 }
  - { offsetInCU: 0xD8DB, offset: 0x1B902, size: 0x8, addend: 0x0, symName: __ZNKSt3__113__string_hashIcNS_9allocatorIcEEEclB8ue170006ERKNS_12basic_stringIcNS_11char_traitsIcEES2_EE, symObjAddr: 0x2FC4, symBinAddr: 0x100006ADC, symSize: 0x64 }
  - { offsetInCU: 0xD90F, offset: 0x1B936, size: 0x8, addend: 0x0, symName: __ZNKSt3__112basic_stringIcNS_11char_traitsIcEENS_9allocatorIcEEE4sizeB8ue170006Ev, symObjAddr: 0x3064, symBinAddr: 0x100006B7C, symSize: 0x54 }
  - { offsetInCU: 0xD934, offset: 0x1B95B, size: 0x8, addend: 0x0, symName: __ZNKSt3__121__murmur2_or_cityhashImLm64EEclB8ue170006EPKvm, symObjAddr: 0x30B8, symBinAddr: 0x100006BD0, symSize: 0x410 }
  - { offsetInCU: 0xD9CD, offset: 0x1B9F4, size: 0x8, addend: 0x0, symName: __ZNSt3__121__murmur2_or_cityhashImLm64EE18__hash_len_0_to_16B8ue170006EPKcm, symObjAddr: 0x34C8, symBinAddr: 0x100006FE0, symSize: 0x1C0 }
  - { offsetInCU: 0xDAA6, offset: 0x1BACD, size: 0x8, addend: 0x0, symName: __ZNSt3__121__murmur2_or_cityhashImLm64EE19__hash_len_17_to_32B8ue170006EPKcm, symObjAddr: 0x3688, symBinAddr: 0x1000071A0, symSize: 0x130 }
  - { offsetInCU: 0xDB0F, offset: 0x1BB36, size: 0x8, addend: 0x0, symName: __ZNSt3__121__murmur2_or_cityhashImLm64EE19__hash_len_33_to_64B8ue170006EPKcm, symObjAddr: 0x37B8, symBinAddr: 0x1000072D0, symSize: 0x2B8 }
  - { offsetInCU: 0xDBC4, offset: 0x1BBEB, size: 0x8, addend: 0x0, symName: __ZNSt3__121__murmur2_or_cityhashImLm64EE13__hash_len_16B8ue170006Emm, symObjAddr: 0x3A90, symBinAddr: 0x1000075A8, symSize: 0x80 }
  - { offsetInCU: 0xDC1F, offset: 0x1BC46, size: 0x8, addend: 0x0, symName: __ZNSt3__121__murmur2_or_cityhashImLm64EE29__weak_hash_len_32_with_seedsB8ue170006EPKcmm, symObjAddr: 0x3B10, symBinAddr: 0x100007628, symSize: 0x88 }
  - { offsetInCU: 0xDC5E, offset: 0x1BC85, size: 0x8, addend: 0x0, symName: __ZNSt3__121__murmur2_or_cityhashImLm64EE8__rotateB8ue170006Emi, symObjAddr: 0x3B98, symBinAddr: 0x1000076B0, symSize: 0x64 }
  - { offsetInCU: 0xDC8F, offset: 0x1BCB6, size: 0x8, addend: 0x0, symName: __ZNSt3__14pairImmEaSB8ue170006EOS1_, symObjAddr: 0x3BFC, symBinAddr: 0x100007714, symSize: 0x30 }
  - { offsetInCU: 0xDCC3, offset: 0x1BCEA, size: 0x8, addend: 0x0, symName: __ZNSt3__121__murmur2_or_cityhashImLm64EE11__shift_mixB8ue170006Em, symObjAddr: 0x3C68, symBinAddr: 0x100007780, symSize: 0x1C }
  - { offsetInCU: 0xDCE6, offset: 0x1BD0D, size: 0x8, addend: 0x0, symName: __ZNSt3__121__murmur2_or_cityhashImLm64EE22__rotate_by_at_least_1B8ue170006Emi, symObjAddr: 0x3C84, symBinAddr: 0x10000779C, symSize: 0x38 }
  - { offsetInCU: 0xDD17, offset: 0x1BD3E, size: 0x8, addend: 0x0, symName: __ZNSt3__121__murmur2_or_cityhashImLm64EE29__weak_hash_len_32_with_seedsB8ue170006Emmmmmm, symObjAddr: 0x3CDC, symBinAddr: 0x1000077F4, symSize: 0xD8 }
  - { offsetInCU: 0xDD93, offset: 0x1BDBA, size: 0x8, addend: 0x0, symName: __ZNSt3__14pairImmEC1B8ue170006ImmLPv0EEEOT_OT0_, symObjAddr: 0x3DB4, symBinAddr: 0x1000078CC, symSize: 0x3C }
  - { offsetInCU: 0xDDF0, offset: 0x1BE17, size: 0x8, addend: 0x0, symName: __ZNSt3__14pairImmEC2B8ue170006ImmLPv0EEEOT_OT0_, symObjAddr: 0x3DF0, symBinAddr: 0x100007908, symSize: 0x34 }
  - { offsetInCU: 0xDE4D, offset: 0x1BE74, size: 0x8, addend: 0x0, symName: __ZNKSt3__112basic_stringIcNS_11char_traitsIcEENS_9allocatorIcEEE15__get_long_sizeB8ue170006Ev, symObjAddr: 0x3E24, symBinAddr: 0x10000793C, symSize: 0x28 }
  - { offsetInCU: 0xDE72, offset: 0x1BE99, size: 0x8, addend: 0x0, symName: __ZNKSt3__112basic_stringIcNS_11char_traitsIcEENS_9allocatorIcEEE16__get_short_sizeB8ue170006Ev, symObjAddr: 0x3E4C, symBinAddr: 0x100007964, symSize: 0x34 }
  - { offsetInCU: 0xDE97, offset: 0x1BEBE, size: 0x8, addend: 0x0, symName: __ZNSt3__117__compressed_pairIfNS_21__unordered_map_equalINS_12basic_stringIcNS_11char_traitsIcEENS_9allocatorIcEEEENS_17__hash_value_typeIS7_NS_10unique_ptrI9Mix_ChunkPFvPSA_EEEEENS_8equal_toIS7_EENS_4hashIS7_EELb1EEEE6secondB8ue170006Ev, symObjAddr: 0x3E80, symBinAddr: 0x100007998, symSize: 0x24 }
  - { offsetInCU: 0xDEBC, offset: 0x1BEE3, size: 0x8, addend: 0x0, symName: __ZNSt3__122__compressed_pair_elemINS_21__unordered_map_equalINS_12basic_stringIcNS_11char_traitsIcEENS_9allocatorIcEEEENS_17__hash_value_typeIS7_NS_10unique_ptrI9Mix_ChunkPFvPSA_EEEEENS_8equal_toIS7_EENS_4hashIS7_EELb1EEELi1ELb1EE5__getB8ue170006Ev, symObjAddr: 0x3EA4, symBinAddr: 0x1000079BC, symSize: 0x14 }
  - { offsetInCU: 0xDEE1, offset: 0x1BF08, size: 0x8, addend: 0x0, symName: __ZNKSt3__18equal_toINS_12basic_stringIcNS_11char_traitsIcEENS_9allocatorIcEEEEEclB8ue170006ERKS6_S9_, symObjAddr: 0x3EB8, symBinAddr: 0x1000079D0, symSize: 0x34 }
  - { offsetInCU: 0xDF24, offset: 0x1BF4B, size: 0x8, addend: 0x0, symName: __ZNKSt3__117__hash_value_typeINS_12basic_stringIcNS_11char_traitsIcEENS_9allocatorIcEEEENS_10unique_ptrI9Mix_ChunkPFvPS8_EEEE11__get_valueB8ue170006Ev, symObjAddr: 0x3EEC, symBinAddr: 0x100007A04, symSize: 0x24 }
  - { offsetInCU: 0xDF49, offset: 0x1BF70, size: 0x8, addend: 0x0, symName: __ZNSt3__111char_traitsIcE7compareB8ue170006EPKcS3_m, symObjAddr: 0x4058, symBinAddr: 0x100007B70, symSize: 0x34 }
  - { offsetInCU: 0xDF88, offset: 0x1BFAF, size: 0x8, addend: 0x0, symName: __ZNSt3__116allocator_traitsINS_9allocatorINS_11__hash_nodeINS_17__hash_value_typeINS_12basic_stringIcNS_11char_traitsIcEENS1_IcEEEENS_10unique_ptrI9Mix_ChunkPFvPSA_EEEEEPvEEEEE8allocateB8ue170006ERSI_m, symObjAddr: 0x40C4, symBinAddr: 0x100007BDC, symSize: 0x2C }
  - { offsetInCU: 0xDFBB, offset: 0x1BFE2, size: 0x8, addend: 0x0, symName: __ZNSt3__122__hash_node_destructorINS_9allocatorINS_11__hash_nodeINS_17__hash_value_typeINS_12basic_stringIcNS_11char_traitsIcEENS1_IcEEEENS_10unique_ptrI9Mix_ChunkPFvPSA_EEEEEPvEEEEEC1B8ue170006ERSI_b, symObjAddr: 0x40F0, symBinAddr: 0x100007C08, symSize: 0x48 }
  - { offsetInCU: 0xE007, offset: 0x1C02E, size: 0x8, addend: 0x0, symName: __ZNSt3__110unique_ptrINS_11__hash_nodeINS_17__hash_value_typeINS_12basic_stringIcNS_11char_traitsIcEENS_9allocatorIcEEEENS0_I9Mix_ChunkPFvPS9_EEEEEPvEENS_22__hash_node_destructorINS6_ISG_EEEEEC1B8ue170006ILb1EvEEPSG_NS_16__dependent_typeINS_27__unique_ptr_deleter_sfinaeISJ_EEXT_EE20__good_rval_ref_typeE, symObjAddr: 0x4138, symBinAddr: 0x100007C50, symSize: 0x3C }
  - { offsetInCU: 0xE057, offset: 0x1C07E, size: 0x8, addend: 0x0, symName: __ZNSt3__116allocator_traitsINS_9allocatorINS_11__hash_nodeINS_17__hash_value_typeINS_12basic_stringIcNS_11char_traitsIcEENS1_IcEEEENS_10unique_ptrI9Mix_ChunkPFvPSA_EEEEEPvEEEEE9constructB8ue170006INS_4pairIKS8_SE_EEJRSM_SE_EvEEvRSI_PT_DpOT0_, symObjAddr: 0x4174, symBinAddr: 0x100007C8C, symSize: 0x3C }
  - { offsetInCU: 0xE0C2, offset: 0x1C0E9, size: 0x8, addend: 0x0, symName: __ZNSt3__110unique_ptrINS_11__hash_nodeINS_17__hash_value_typeINS_12basic_stringIcNS_11char_traitsIcEENS_9allocatorIcEEEENS0_I9Mix_ChunkPFvPS9_EEEEEPvEENS_22__hash_node_destructorINS6_ISG_EEEEE11get_deleterB8ue170006Ev, symObjAddr: 0x41B0, symBinAddr: 0x100007CC8, symSize: 0x24 }
  - { offsetInCU: 0xE0E7, offset: 0x1C10E, size: 0x8, addend: 0x0, symName: __ZNSt3__19allocatorINS_11__hash_nodeINS_17__hash_value_typeINS_12basic_stringIcNS_11char_traitsIcEENS0_IcEEEENS_10unique_ptrI9Mix_ChunkPFvPS9_EEEEEPvEEE8allocateB8ue170006Em, symObjAddr: 0x41D4, symBinAddr: 0x100007CEC, symSize: 0x5C }
  - { offsetInCU: 0xE124, offset: 0x1C14B, size: 0x8, addend: 0x0, symName: __ZNSt3__116allocator_traitsINS_9allocatorINS_11__hash_nodeINS_17__hash_value_typeINS_12basic_stringIcNS_11char_traitsIcEENS1_IcEEEENS_10unique_ptrI9Mix_ChunkPFvPSA_EEEEEPvEEEEE8max_sizeB8ue170006ISI_vEEmRKSI_, symObjAddr: 0x4230, symBinAddr: 0x100007D48, symSize: 0x24 }
  - { offsetInCU: 0xE152, offset: 0x1C179, size: 0x8, addend: 0x0, symName: __ZNKSt3__19allocatorINS_11__hash_nodeINS_17__hash_value_typeINS_12basic_stringIcNS_11char_traitsIcEENS0_IcEEEENS_10unique_ptrI9Mix_ChunkPFvPS9_EEEEEPvEEE8max_sizeB8ue170006Ev, symObjAddr: 0x42E8, symBinAddr: 0x100007D6C, symSize: 0x20 }
  - { offsetInCU: 0xE177, offset: 0x1C19E, size: 0x8, addend: 0x0, symName: __ZNSt3__122__hash_node_destructorINS_9allocatorINS_11__hash_nodeINS_17__hash_value_typeINS_12basic_stringIcNS_11char_traitsIcEENS1_IcEEEENS_10unique_ptrI9Mix_ChunkPFvPSA_EEEEEPvEEEEEC2B8ue170006ERSI_b, symObjAddr: 0x4358, symBinAddr: 0x100007D8C, symSize: 0x38 }
  - { offsetInCU: 0xE1BE, offset: 0x1C1E5, size: 0x8, addend: 0x0, symName: __ZNSt3__110unique_ptrINS_11__hash_nodeINS_17__hash_value_typeINS_12basic_stringIcNS_11char_traitsIcEENS_9allocatorIcEEEENS0_I9Mix_ChunkPFvPS9_EEEEEPvEENS_22__hash_node_destructorINS6_ISG_EEEEEC2B8ue170006ILb1EvEEPSG_NS_16__dependent_typeINS_27__unique_ptr_deleter_sfinaeISJ_EEXT_EE20__good_rval_ref_typeE, symObjAddr: 0x4390, symBinAddr: 0x100007DC4, symSize: 0x48 }
  - { offsetInCU: 0xE20E, offset: 0x1C235, size: 0x8, addend: 0x0, symName: __ZNSt3__117__compressed_pairIPNS_11__hash_nodeINS_17__hash_value_typeINS_12basic_stringIcNS_11char_traitsIcEENS_9allocatorIcEEEENS_10unique_ptrI9Mix_ChunkPFvPSA_EEEEEPvEENS_22__hash_node_destructorINS6_ISH_EEEEEC1B8ue170006IRSI_SL_EEOT_OT0_, symObjAddr: 0x43D8, symBinAddr: 0x100007E0C, symSize: 0x3C }
  - { offsetInCU: 0xE265, offset: 0x1C28C, size: 0x8, addend: 0x0, symName: __ZNSt3__117__compressed_pairIPNS_11__hash_nodeINS_17__hash_value_typeINS_12basic_stringIcNS_11char_traitsIcEENS_9allocatorIcEEEENS_10unique_ptrI9Mix_ChunkPFvPSA_EEEEEPvEENS_22__hash_node_destructorINS6_ISH_EEEEEC2B8ue170006IRSI_SL_EEOT_OT0_, symObjAddr: 0x4414, symBinAddr: 0x100007E48, symSize: 0x48 }
  - { offsetInCU: 0xE2BC, offset: 0x1C2E3, size: 0x8, addend: 0x0, symName: __ZNSt3__122__compressed_pair_elemIPNS_11__hash_nodeINS_17__hash_value_typeINS_12basic_stringIcNS_11char_traitsIcEENS_9allocatorIcEEEENS_10unique_ptrI9Mix_ChunkPFvPSA_EEEEEPvEELi0ELb0EEC2B8ue170006IRSI_vEEOT_, symObjAddr: 0x445C, symBinAddr: 0x100007E90, symSize: 0x24 }
  - { offsetInCU: 0xE2FD, offset: 0x1C324, size: 0x8, addend: 0x0, symName: __ZNSt3__122__compressed_pair_elemINS_22__hash_node_destructorINS_9allocatorINS_11__hash_nodeINS_17__hash_value_typeINS_12basic_stringIcNS_11char_traitsIcEENS2_IcEEEENS_10unique_ptrI9Mix_ChunkPFvPSB_EEEEEPvEEEEEELi1ELb0EEC2B8ue170006ISK_vEEOT_, symObjAddr: 0x4480, symBinAddr: 0x100007EB4, symSize: 0x24 }
  - { offsetInCU: 0xE33E, offset: 0x1C365, size: 0x8, addend: 0x0, symName: __ZNSt3__19allocatorINS_11__hash_nodeINS_17__hash_value_typeINS_12basic_stringIcNS_11char_traitsIcEENS0_IcEEEENS_10unique_ptrI9Mix_ChunkPFvPS9_EEEEEPvEEE9constructB8ue170006INS_4pairIKS7_SD_EEJRSK_SD_EEEvPT_DpOT0_, symObjAddr: 0x44A4, symBinAddr: 0x100007ED8, symSize: 0x38 }
  - { offsetInCU: 0xE3A6, offset: 0x1C3CD, size: 0x8, addend: 0x0, symName: __ZNSt3__14pairIKNS_12basic_stringIcNS_11char_traitsIcEENS_9allocatorIcEEEENS_10unique_ptrI9Mix_ChunkPFvPS9_EEEEC1B8ue170006IRS7_SD_LPv0EEEOT_OT0_, symObjAddr: 0x44DC, symBinAddr: 0x100007F10, symSize: 0x3C }
  - { offsetInCU: 0xE403, offset: 0x1C42A, size: 0x8, addend: 0x0, symName: __ZNSt3__14pairIKNS_12basic_stringIcNS_11char_traitsIcEENS_9allocatorIcEEEENS_10unique_ptrI9Mix_ChunkPFvPS9_EEEEC2B8ue170006IRS7_SD_LPv0EEEOT_OT0_, symObjAddr: 0x4518, symBinAddr: 0x100007F4C, symSize: 0x48 }
  - { offsetInCU: 0xE460, offset: 0x1C487, size: 0x8, addend: 0x0, symName: __ZNSt3__110unique_ptrI9Mix_ChunkPFvPS1_EEC1B8ue170006EOS5_, symObjAddr: 0x4560, symBinAddr: 0x100007F94, symSize: 0x34 }
  - { offsetInCU: 0xE497, offset: 0x1C4BE, size: 0x8, addend: 0x0, symName: __ZNSt3__110unique_ptrI9Mix_ChunkPFvPS1_EEC2B8ue170006EOS5_, symObjAddr: 0x4594, symBinAddr: 0x100007FC8, symSize: 0x60 }
  - { offsetInCU: 0xE4CE, offset: 0x1C4F5, size: 0x8, addend: 0x0, symName: __ZNSt3__110unique_ptrI9Mix_ChunkPFvPS1_EE7releaseB8ue170006Ev, symObjAddr: 0x45F4, symBinAddr: 0x100008028, symSize: 0x44 }
  - { offsetInCU: 0xE502, offset: 0x1C529, size: 0x8, addend: 0x0, symName: __ZNSt3__110unique_ptrI9Mix_ChunkPFvPS1_EE11get_deleterB8ue170006Ev, symObjAddr: 0x4638, symBinAddr: 0x10000806C, symSize: 0x24 }
  - { offsetInCU: 0xE52C, offset: 0x1C553, size: 0x8, addend: 0x0, symName: __ZNSt3__117__compressed_pairIP9Mix_ChunkPFvS2_EEC1B8ue170006IS2_S4_EEOT_OT0_, symObjAddr: 0x465C, symBinAddr: 0x100008090, symSize: 0x3C }
  - { offsetInCU: 0xE583, offset: 0x1C5AA, size: 0x8, addend: 0x0, symName: __ZNSt3__117__compressed_pairIP9Mix_ChunkPFvS2_EEC2B8ue170006IS2_S4_EEOT_OT0_, symObjAddr: 0x4698, symBinAddr: 0x1000080CC, symSize: 0x48 }
  - { offsetInCU: 0xE5DA, offset: 0x1C601, size: 0x8, addend: 0x0, symName: __ZNSt3__122__compressed_pair_elemIP9Mix_ChunkLi0ELb0EEC2B8ue170006IS2_vEEOT_, symObjAddr: 0x46E0, symBinAddr: 0x100008114, symSize: 0x24 }
  - { offsetInCU: 0xE61B, offset: 0x1C642, size: 0x8, addend: 0x0, symName: __ZNSt3__117__compressed_pairIPNS_11__hash_nodeINS_17__hash_value_typeINS_12basic_stringIcNS_11char_traitsIcEENS_9allocatorIcEEEENS_10unique_ptrI9Mix_ChunkPFvPSA_EEEEEPvEENS_22__hash_node_destructorINS6_ISH_EEEEE6secondB8ue170006Ev, symObjAddr: 0x4704, symBinAddr: 0x100008138, symSize: 0x28 }
  - { offsetInCU: 0xE640, offset: 0x1C667, size: 0x8, addend: 0x0, symName: __ZNSt3__122__compressed_pair_elemINS_22__hash_node_destructorINS_9allocatorINS_11__hash_nodeINS_17__hash_value_typeINS_12basic_stringIcNS_11char_traitsIcEENS2_IcEEEENS_10unique_ptrI9Mix_ChunkPFvPSB_EEEEEPvEEEEEELi1ELb0EE5__getB8ue170006Ev, symObjAddr: 0x472C, symBinAddr: 0x100008160, symSize: 0x14 }
  - { offsetInCU: 0xE665, offset: 0x1C68C, size: 0x8, addend: 0x0, symName: __ZNSt3__117__compressed_pairIfNS_21__unordered_map_equalINS_12basic_stringIcNS_11char_traitsIcEENS_9allocatorIcEEEENS_17__hash_value_typeIS7_NS_10unique_ptrI9Mix_ChunkPFvPSA_EEEEENS_8equal_toIS7_EENS_4hashIS7_EELb1EEEE5firstB8ue170006Ev, symObjAddr: 0x4740, symBinAddr: 0x100008174, symSize: 0x24 }
  - { offsetInCU: 0xE68A, offset: 0x1C6B1, size: 0x8, addend: 0x0, symName: __ZNSt3__122__compressed_pair_elemIfLi0ELb0EE5__getB8ue170006Ev, symObjAddr: 0x4764, symBinAddr: 0x100008198, symSize: 0x14 }
  - { offsetInCU: 0xE6AF, offset: 0x1C6D6, size: 0x8, addend: 0x0, symName: __ZNSt3__112__hash_tableINS_17__hash_value_typeINS_12basic_stringIcNS_11char_traitsIcEENS_9allocatorIcEEEENS_10unique_ptrI9Mix_ChunkPFvPS9_EEEEENS_22__unordered_map_hasherIS7_SE_NS_4hashIS7_EENS_8equal_toIS7_EELb1EEENS_21__unordered_map_equalIS7_SE_SJ_SH_Lb1EEENS5_ISE_EEE8__rehashILb1EEEvm, symObjAddr: 0x4778, symBinAddr: 0x1000081AC, symSize: 0x1A8 }
  - { offsetInCU: 0xE6FD, offset: 0x1C724, size: 0x8, addend: 0x0, symName: __ZNSt3__112__hash_tableINS_17__hash_value_typeINS_12basic_stringIcNS_11char_traitsIcEENS_9allocatorIcEEEENS_10unique_ptrI9Mix_ChunkPFvPS9_EEEEENS_22__unordered_map_hasherIS7_SE_NS_4hashIS7_EENS_8equal_toIS7_EELb1EEENS_21__unordered_map_equalIS7_SE_SJ_SH_Lb1EEENS5_ISE_EEE11__do_rehashILb1EEEvm, symObjAddr: 0x4920, symBinAddr: 0x100008354, symSize: 0x288 }
  - { offsetInCU: 0xE7DE, offset: 0x1C805, size: 0x8, addend: 0x0, symName: __ZNSt3__110unique_ptrIA_PNS_16__hash_node_baseIPNS_11__hash_nodeINS_17__hash_value_typeINS_12basic_stringIcNS_11char_traitsIcEENS_9allocatorIcEEEENS0_I9Mix_ChunkPFvPSA_EEEEEPvEEEENS_25__bucket_list_deallocatorINS7_ISK_EEEEE11get_deleterB8ue170006Ev, symObjAddr: 0x4C14, symBinAddr: 0x100008648, symSize: 0x24 }
  - { offsetInCU: 0xE803, offset: 0x1C82A, size: 0x8, addend: 0x0, symName: __ZNSt3__110unique_ptrIA_PNS_16__hash_node_baseIPNS_11__hash_nodeINS_17__hash_value_typeINS_12basic_stringIcNS_11char_traitsIcEENS_9allocatorIcEEEENS0_I9Mix_ChunkPFvPSA_EEEEEPvEEEENS_25__bucket_list_deallocatorINS7_ISK_EEEEE5resetB8ue170006IPSK_EENS_9enable_ifIXsr28_CheckArrayPointerConversionIT_EE5valueEvE4typeEST_, symObjAddr: 0x4C38, symBinAddr: 0x10000866C, symSize: 0x78 }
  - { offsetInCU: 0xE84F, offset: 0x1C876, size: 0x8, addend: 0x0, symName: __ZNSt3__116allocator_traitsINS_9allocatorIPNS_16__hash_node_baseIPNS_11__hash_nodeINS_17__hash_value_typeINS_12basic_stringIcNS_11char_traitsIcEENS1_IcEEEENS_10unique_ptrI9Mix_ChunkPFvPSB_EEEEEPvEEEEEEE8allocateB8ue170006ERSM_m, symObjAddr: 0x4CB0, symBinAddr: 0x1000086E4, symSize: 0x2C }
  - { offsetInCU: 0xE882, offset: 0x1C8A9, size: 0x8, addend: 0x0, symName: __ZNSt3__19allocatorIPNS_16__hash_node_baseIPNS_11__hash_nodeINS_17__hash_value_typeINS_12basic_stringIcNS_11char_traitsIcEENS0_IcEEEENS_10unique_ptrI9Mix_ChunkPFvPSA_EEEEEPvEEEEE8allocateB8ue170006Em, symObjAddr: 0x4CDC, symBinAddr: 0x100008710, symSize: 0x58 }
  - { offsetInCU: 0xE8BF, offset: 0x1C8E6, size: 0x8, addend: 0x0, symName: __ZNSt3__116allocator_traitsINS_9allocatorIPNS_16__hash_node_baseIPNS_11__hash_nodeINS_17__hash_value_typeINS_12basic_stringIcNS_11char_traitsIcEENS1_IcEEEENS_10unique_ptrI9Mix_ChunkPFvPSB_EEEEEPvEEEEEEE8max_sizeB8ue170006ISM_vEEmRKSM_, symObjAddr: 0x4D34, symBinAddr: 0x100008768, symSize: 0x24 }
  - { offsetInCU: 0xE8ED, offset: 0x1C914, size: 0x8, addend: 0x0, symName: __ZNKSt3__19allocatorIPNS_16__hash_node_baseIPNS_11__hash_nodeINS_17__hash_value_typeINS_12basic_stringIcNS_11char_traitsIcEENS0_IcEEEENS_10unique_ptrI9Mix_ChunkPFvPSA_EEEEEPvEEEEE8max_sizeB8ue170006Ev, symObjAddr: 0x4D58, symBinAddr: 0x10000878C, symSize: 0x14 }
  - { offsetInCU: 0xE912, offset: 0x1C939, size: 0x8, addend: 0x0, symName: __ZNKSt3__117__compressed_pairIPNS_11__hash_nodeINS_17__hash_value_typeINS_12basic_stringIcNS_11char_traitsIcEENS_9allocatorIcEEEENS_10unique_ptrI9Mix_ChunkPFvPSA_EEEEEPvEENS_22__hash_node_destructorINS6_ISH_EEEEE5firstB8ue170006Ev, symObjAddr: 0x4E10, symBinAddr: 0x1000087BC, symSize: 0x24 }
  - { offsetInCU: 0xE937, offset: 0x1C95E, size: 0x8, addend: 0x0, symName: __ZNKSt3__122__compressed_pair_elemIPNS_11__hash_nodeINS_17__hash_value_typeINS_12basic_stringIcNS_11char_traitsIcEENS_9allocatorIcEEEENS_10unique_ptrI9Mix_ChunkPFvPSA_EEEEEPvEELi0ELb0EE5__getB8ue170006Ev, symObjAddr: 0x4E34, symBinAddr: 0x1000087E0, symSize: 0x14 }
  - { offsetInCU: 0xE95C, offset: 0x1C983, size: 0x8, addend: 0x0, symName: __ZNSt3__117__compressed_pairIPNS_11__hash_nodeINS_17__hash_value_typeINS_12basic_stringIcNS_11char_traitsIcEENS_9allocatorIcEEEENS_10unique_ptrI9Mix_ChunkPFvPSA_EEEEEPvEENS_22__hash_node_destructorINS6_ISH_EEEEE5firstB8ue170006Ev, symObjAddr: 0x4E48, symBinAddr: 0x1000087F4, symSize: 0x24 }
  - { offsetInCU: 0xE981, offset: 0x1C9A8, size: 0x8, addend: 0x0, symName: __ZNSt3__122__compressed_pair_elemIPNS_11__hash_nodeINS_17__hash_value_typeINS_12basic_stringIcNS_11char_traitsIcEENS_9allocatorIcEEEENS_10unique_ptrI9Mix_ChunkPFvPSA_EEEEEPvEELi0ELb0EE5__getB8ue170006Ev, symObjAddr: 0x4E6C, symBinAddr: 0x100008818, symSize: 0x14 }
  - { offsetInCU: 0xE9A6, offset: 0x1C9CD, size: 0x8, addend: 0x0, symName: __ZNSt3__110unique_ptrINS_11__hash_nodeINS_17__hash_value_typeINS_12basic_stringIcNS_11char_traitsIcEENS_9allocatorIcEEEENS0_I9Mix_ChunkPFvPS9_EEEEEPvEENS_22__hash_node_destructorINS6_ISG_EEEEED2B8ue170006Ev, symObjAddr: 0x4E80, symBinAddr: 0x10000882C, symSize: 0x30 }
  - { offsetInCU: 0xE9CF, offset: 0x1C9F6, size: 0x8, addend: 0x0, symName: __ZNSt3__110unique_ptrINS_11__hash_nodeINS_17__hash_value_typeINS_12basic_stringIcNS_11char_traitsIcEENS_9allocatorIcEEEENS0_I9Mix_ChunkPFvPS9_EEEEEPvEENS_22__hash_node_destructorINS6_ISG_EEEEE5resetB8ue170006EPSG_, symObjAddr: 0x4EB0, symBinAddr: 0x10000885C, symSize: 0x78 }
  - { offsetInCU: 0xEA12, offset: 0x1CA39, size: 0x8, addend: 0x0, symName: __ZNSt3__122__hash_node_destructorINS_9allocatorINS_11__hash_nodeINS_17__hash_value_typeINS_12basic_stringIcNS_11char_traitsIcEENS1_IcEEEENS_10unique_ptrI9Mix_ChunkPFvPSA_EEEEEPvEEEEEclB8ue170006EPSH_, symObjAddr: 0x4F28, symBinAddr: 0x1000088D4, symSize: 0x94 }
  - { offsetInCU: 0xEA46, offset: 0x1CA6D, size: 0x8, addend: 0x0, symName: __ZNSt3__115__hash_iteratorIPNS_11__hash_nodeINS_17__hash_value_typeINS_12basic_stringIcNS_11char_traitsIcEENS_9allocatorIcEEEENS_10unique_ptrI9Mix_ChunkPFvPSA_EEEEEPvEEEC2B8ue170006EPNS_16__hash_node_baseISI_EE, symObjAddr: 0x4FBC, symBinAddr: 0x100008968, symSize: 0x20 }
  - { offsetInCU: 0xEA7E, offset: 0x1CAA5, size: 0x8, addend: 0x0, symName: __ZNSt3__14pairINS_15__hash_iteratorIPNS_11__hash_nodeINS_17__hash_value_typeINS_12basic_stringIcNS_11char_traitsIcEENS_9allocatorIcEEEENS_10unique_ptrI9Mix_ChunkPFvPSB_EEEEEPvEEEEbEC2B8ue170006ISK_RbLSH_0EEEOT_OT0_, symObjAddr: 0x4FDC, symBinAddr: 0x100008988, symSize: 0x38 }
  - { offsetInCU: 0xEADB, offset: 0x1CB02, size: 0x8, addend: 0x0, symName: __ZNSt3__14pairINS_19__hash_map_iteratorINS_15__hash_iteratorIPNS_11__hash_nodeINS_17__hash_value_typeINS_12basic_stringIcNS_11char_traitsIcEENS_9allocatorIcEEEENS_10unique_ptrI9Mix_ChunkPFvPSC_EEEEEPvEEEEEEbEC2B8ue170006ISL_bLSI_0EEEONS0_IT_T0_EE, symObjAddr: 0x5014, symBinAddr: 0x1000089C0, symSize: 0x50 }
  - { offsetInCU: 0xEB2B, offset: 0x1CB52, size: 0x8, addend: 0x0, symName: __ZNSt3__119__hash_map_iteratorINS_15__hash_iteratorIPNS_11__hash_nodeINS_17__hash_value_typeINS_12basic_stringIcNS_11char_traitsIcEENS_9allocatorIcEEEENS_10unique_ptrI9Mix_ChunkPFvPSB_EEEEEPvEEEEEC1B8ue170006ESK_, symObjAddr: 0x5064, symBinAddr: 0x100008A10, symSize: 0x34 }
  - { offsetInCU: 0xEB63, offset: 0x1CB8A, size: 0x8, addend: 0x0, symName: __ZNSt3__119__hash_map_iteratorINS_15__hash_iteratorIPNS_11__hash_nodeINS_17__hash_value_typeINS_12basic_stringIcNS_11char_traitsIcEENS_9allocatorIcEEEENS_10unique_ptrI9Mix_ChunkPFvPSB_EEEEEPvEEEEEC2B8ue170006ESK_, symObjAddr: 0x5098, symBinAddr: 0x100008A44, symSize: 0x20 }
  - { offsetInCU: 0xEB9B, offset: 0x1CBC2, size: 0x8, addend: 0x0, symName: __ZNSt3__112__hash_tableINS_17__hash_value_typeINS_12basic_stringIcNS_11char_traitsIcEENS_9allocatorIcEEEENS_10unique_ptrI9Mix_ChunkPFvPS9_EEEEENS_22__unordered_map_hasherIS7_SE_NS_4hashIS7_EENS_8equal_toIS7_EELb1EEENS_21__unordered_map_equalIS7_SE_SJ_SH_Lb1EEENS5_ISE_EEE4findIS7_EENS_15__hash_iteratorIPNS_11__hash_nodeISE_PvEEEERKT_, symObjAddr: 0x50B8, symBinAddr: 0x100008A64, symSize: 0x1B0 }
  - { offsetInCU: 0xEC23, offset: 0x1CC4A, size: 0x8, addend: 0x0, symName: __ZNSt3__112__hash_tableINS_17__hash_value_typeINS_12basic_stringIcNS_11char_traitsIcEENS_9allocatorIcEEEENS_10unique_ptrI9Mix_ChunkPFvPS9_EEEEENS_22__unordered_map_hasherIS7_SE_NS_4hashIS7_EENS_8equal_toIS7_EELb1EEENS_21__unordered_map_equalIS7_SE_SJ_SH_Lb1EEENS5_ISE_EEE3endEv, symObjAddr: 0x5268, symBinAddr: 0x100008C14, symSize: 0x2C }
  - { offsetInCU: 0xEC49, offset: 0x1CC70, size: 0x8, addend: 0x0, symName: __ZNSt3__114pointer_traitsIPNS_4pairIKNS_12basic_stringIcNS_11char_traitsIcEENS_9allocatorIcEEEENS_10unique_ptrI9Mix_ChunkPFvPSA_EEEEEE10pointer_toB8ue170006ERSF_, symObjAddr: 0x52F8, symBinAddr: 0x100008CA4, symSize: 0x14 }
  - { offsetInCU: 0xEC6C, offset: 0x1CC93, size: 0x8, addend: 0x0, symName: __ZNKSt3__115__hash_iteratorIPNS_11__hash_nodeINS_17__hash_value_typeINS_12basic_stringIcNS_11char_traitsIcEENS_9allocatorIcEEEENS_10unique_ptrI9Mix_ChunkPFvPSA_EEEEEPvEEEptB8ue170006Ev, symObjAddr: 0x530C, symBinAddr: 0x100008CB8, symSize: 0x30 }
  - { offsetInCU: 0xEC91, offset: 0x1CCB8, size: 0x8, addend: 0x0, symName: __ZNSt3__114pointer_traitsIPNS_17__hash_value_typeINS_12basic_stringIcNS_11char_traitsIcEENS_9allocatorIcEEEENS_10unique_ptrI9Mix_ChunkPFvPS9_EEEEEE10pointer_toB8ue170006ERSE_, symObjAddr: 0x533C, symBinAddr: 0x100008CE8, symSize: 0x14 }
  - { offsetInCU: 0xECB4, offset: 0x1CCDB, size: 0x8, addend: 0x0, symName: __ZNKSt3__117__compressed_pairIP9Mix_ChunkPFvS2_EE5firstB8ue170006Ev, symObjAddr: 0x5350, symBinAddr: 0x100008CFC, symSize: 0x24 }
  - { offsetInCU: 0xECD9, offset: 0x1CD00, size: 0x8, addend: 0x0, symName: __ZNKSt3__122__compressed_pair_elemIP9Mix_ChunkLi0ELb0EE5__getB8ue170006Ev, symObjAddr: 0x5374, symBinAddr: 0x100008D20, symSize: 0x14 }
  - { offsetInCU: 0x2ADE, offset: 0x1F952, size: 0x8, addend: 0x0, symName: __ZN6CameraC2Eiiiiii, symObjAddr: 0x0, symBinAddr: 0x100008D34, symSize: 0x64 }
  - { offsetInCU: 0x2B5C, offset: 0x1F9D0, size: 0x8, addend: 0x0, symName: __ZN6CameraC1Eiiiiii, symObjAddr: 0x64, symBinAddr: 0x100008D98, symSize: 0x5C }
  - { offsetInCU: 0x2BDA, offset: 0x1FA4E, size: 0x8, addend: 0x0, symName: __ZN6Camera6updateEiiii, symObjAddr: 0xC0, symBinAddr: 0x100008DF4, symSize: 0x3C }
  - { offsetInCU: 0x2C39, offset: 0x1FAAD, size: 0x8, addend: 0x0, symName: __ZN6Camera6renderEii, symObjAddr: 0xFC, symBinAddr: 0x100008E30, symSize: 0x98 }
  - { offsetInCU: 0x26, offset: 0x1FB1B, size: 0x8, addend: 0x0, symName: __ZN9Collision4AABBERK8SDL_RectS2_, symObjAddr: 0x0, symBinAddr: 0x100008EC8, symSize: 0xF4 }
  - { offsetInCU: 0x4BB8, offset: 0x246AD, size: 0x8, addend: 0x0, symName: __ZN9Collision4AABBERK8SDL_RectS2_, symObjAddr: 0x0, symBinAddr: 0x100008EC8, symSize: 0xF4 }
  - { offsetInCU: 0x4BEB, offset: 0x246E0, size: 0x8, addend: 0x0, symName: __ZN9Collision4AABBERK17ColliderComponentS2_, symObjAddr: 0xF4, symBinAddr: 0x100008FBC, symSize: 0x6C }
  - { offsetInCU: 0x39, offset: 0x2474C, size: 0x8, addend: 0x0, symName: __ZN4Game8rendererE, symObjAddr: 0xCCC78, symBinAddr: 0x10003C0A8, symSize: 0x0 }
  - { offsetInCU: 0xF2A3, offset: 0x339B6, size: 0x8, addend: 0x0, symName: __ZNSt3__119piecewise_constructE, symObjAddr: 0xD099, symBinAddr: 0x100035E49, symSize: 0x0 }
  - { offsetInCU: 0xF2D4, offset: 0x339E7, size: 0x8, addend: 0x0, symName: __ZNSt3__113__fill_n_trueB8ue170006INS_8__bitsetILm15625ELm999999EEEEEvNS_14__bit_iteratorIT_Lb0EXLi0EEEENS4_9size_typeE, symObjAddr: 0x4184, symBinAddr: 0x10000CC44, symSize: 0x160 }
  - { offsetInCU: 0xF399, offset: 0x33AAC, size: 0x8, addend: 0x0, symName: __ZNSt3__114__fill_n_falseB8ue170006INS_8__bitsetILm15625ELm999999EEEEEvNS_14__bit_iteratorIT_Lb0EXLi0EEEENS4_9size_typeE, symObjAddr: 0x4318, symBinAddr: 0x10000CDD8, symSize: 0x15C }
  - { offsetInCU: 0x106EA, offset: 0x34DFD, size: 0x8, addend: 0x0, symName: '__ZNSt3__110__function10__not_nullB8ue170006IZN4Game4initEPKciiiibE3$_0EEbRKT_', symObjAddr: 0x87A8, symBinAddr: 0x100010438, symSize: 0x18 }
  - { offsetInCU: 0x129C3, offset: 0x370D6, size: 0x8, addend: 0x0, symName: __ZNSt3__112__to_addressB8ue170006INS_10unique_ptrI6EntityNS_14default_deleteIS2_EEEEEEPT_S7_, symObjAddr: 0x15CC, symBinAddr: 0x10000A500, symSize: 0x14 }
  - { offsetInCU: 0x129F8, offset: 0x3710B, size: 0x8, addend: 0x0, symName: __ZNSt3__112__to_addressB8ue170006INS_10unique_ptrI9ComponentNS_14default_deleteIS2_EEEEEEPT_S7_, symObjAddr: 0x1B7C, symBinAddr: 0x10000AAB0, symSize: 0x14 }
  - { offsetInCU: 0x12AEC, offset: 0x371FF, size: 0x8, addend: 0x0, symName: __ZNSt3__17launderB8ue170006INS_4pairIKNS_12basic_stringIcNS_11char_traitsIcEENS_9allocatorIcEEEENS_10unique_ptrI5SceneNS_14default_deleteISA_EEEEEEEEPT_SG_, symObjAddr: 0x3224, symBinAddr: 0x10000BCF8, symSize: 0x24 }
  - { offsetInCU: 0x12B24, offset: 0x37237, size: 0x8, addend: 0x0, symName: __ZNSt3__19__launderB8ue170006INS_4pairIKNS_12basic_stringIcNS_11char_traitsIcEENS_9allocatorIcEEEENS_10unique_ptrI5SceneNS_14default_deleteISA_EEEEEEEEPT_SG_, symObjAddr: 0x3248, symBinAddr: 0x10000BD1C, symSize: 0x14 }
  - { offsetInCU: 0x12B5B, offset: 0x3726E, size: 0x8, addend: 0x0, symName: __ZNSt3__1neB8ue170006IPNS_10unique_ptrI6EntityNS_14default_deleteIS2_EEEEEEbRKNS_11__wrap_iterIT_EESB_, symObjAddr: 0x35A8, symBinAddr: 0x10000C068, symSize: 0x34 }
  - { offsetInCU: 0x12B9E, offset: 0x372B1, size: 0x8, addend: 0x0, symName: __ZNSt3__1eqB8ue170006IPNS_10unique_ptrI6EntityNS_14default_deleteIS2_EEEEEEbRKNS_11__wrap_iterIT_EESB_, symObjAddr: 0x37B0, symBinAddr: 0x10000C270, symSize: 0x48 }
  - { offsetInCU: 0x12BE1, offset: 0x372F4, size: 0x8, addend: 0x0, symName: __ZNSt3__1neB8ue170006IPNS_10unique_ptrI9ComponentNS_14default_deleteIS2_EEEEEEbRKNS_11__wrap_iterIT_EESB_, symObjAddr: 0x38A8, symBinAddr: 0x10000C368, symSize: 0x34 }
  - { offsetInCU: 0x12C24, offset: 0x37337, size: 0x8, addend: 0x0, symName: __ZNSt3__1eqB8ue170006IPNS_10unique_ptrI9ComponentNS_14default_deleteIS2_EEEEEEbRKNS_11__wrap_iterIT_EESB_, symObjAddr: 0x39F4, symBinAddr: 0x10000C4B4, symSize: 0x48 }
  - { offsetInCU: 0x12C66, offset: 0x37379, size: 0x8, addend: 0x0, symName: __ZNSt3__111make_uniqueB8ue170006I6EntityJR7ManagerEEENS_11__unique_ifIT_E15__unique_singleEDpOT0_, symObjAddr: 0x3A8C, symBinAddr: 0x10000C54C, symSize: 0x70 }
  - { offsetInCU: 0x12CA9, offset: 0x373BC, size: 0x8, addend: 0x0, symName: __ZNSt3__16fill_nB8ue170006IPP9ComponentmS2_EET_S4_T0_RKT1_, symObjAddr: 0x3FC0, symBinAddr: 0x10000CA80, symSize: 0x44 }
  - { offsetInCU: 0x12D0C, offset: 0x3741F, size: 0x8, addend: 0x0, symName: __ZNSt3__18__fill_nB8ue170006IPP9ComponentmS2_EET_S4_T0_RKT1_, symObjAddr: 0x4018, symBinAddr: 0x10000CAD8, symSize: 0x64 }
  - { offsetInCU: 0x12D6F, offset: 0x37482, size: 0x8, addend: 0x0, symName: __ZNSt3__121__convert_to_integralB8ue170006Em, symObjAddr: 0x407C, symBinAddr: 0x10000CB3C, symSize: 0x14 }
  - { offsetInCU: 0x12D9A, offset: 0x374AD, size: 0x8, addend: 0x0, symName: __ZNSt3__16fill_nB8ue170006INS_8__bitsetILm15625ELm999999EEEEEvNS_14__bit_iteratorIT_Lb0EXLi0EEEENS4_9size_typeEb, symObjAddr: 0x4090, symBinAddr: 0x10000CB50, symSize: 0x94 }
  - { offsetInCU: 0x12DED, offset: 0x37500, size: 0x8, addend: 0x0, symName: __ZNSt3__16fill_nB8ue170006IPmmmEET_S2_T0_RKT1_, symObjAddr: 0x44A0, symBinAddr: 0x10000CF34, symSize: 0x44 }
  - { offsetInCU: 0x12E50, offset: 0x37563, size: 0x8, addend: 0x0, symName: __ZNSt3__112__to_addressB8ue170006ImEEPT_S2_, symObjAddr: 0x44E4, symBinAddr: 0x10000CF78, symSize: 0x14 }
  - { offsetInCU: 0x12E85, offset: 0x37598, size: 0x8, addend: 0x0, symName: __ZNSt3__18__fill_nB8ue170006IPmmmEET_S2_T0_RKT1_, symObjAddr: 0x4580, symBinAddr: 0x10000CF8C, symSize: 0x64 }
  - { offsetInCU: 0x12EE8, offset: 0x375FB, size: 0x8, addend: 0x0, symName: __ZNSt3__16fill_nB8ue170006IPmmiEET_S2_T0_RKT1_, symObjAddr: 0x4614, symBinAddr: 0x10000D020, symSize: 0x44 }
  - { offsetInCU: 0x12F4B, offset: 0x3765E, size: 0x8, addend: 0x0, symName: __ZNSt3__18__fill_nB8ue170006IPmmiEET_S2_T0_RKT1_, symObjAddr: 0x4658, symBinAddr: 0x10000D064, symSize: 0x64 }
  - { offsetInCU: 0x12FAE, offset: 0x376C1, size: 0x8, addend: 0x0, symName: __ZNSt3__119__allocate_at_leastB8ue170006INS_9allocatorINS_10unique_ptrI6EntityNS_14default_deleteIS3_EEEEEEEENS_19__allocation_resultINS_16allocator_traitsIT_E7pointerEEERSA_m, symObjAddr: 0x52A4, symBinAddr: 0x10000DB30, symSize: 0x40 }
  - { offsetInCU: 0x12FF0, offset: 0x37703, size: 0x8, addend: 0x0, symName: __ZNSt3__142__uninitialized_allocator_move_if_noexceptB8ue170006INS_9allocatorINS_10unique_ptrI6EntityNS_14default_deleteIS3_EEEEEENS_16reverse_iteratorIPS6_EESA_SA_EET2_RT_T0_T1_SB_, symObjAddr: 0x553C, symBinAddr: 0x10000DCE4, symSize: 0x12C }
  - { offsetInCU: 0x13091, offset: 0x377A4, size: 0x8, addend: 0x0, symName: __ZNSt3__14swapB8ue170006IPNS_10unique_ptrI6EntityNS_14default_deleteIS2_EEEEEENS_9enable_ifIXaasr21is_move_constructibleIT_EE5valuesr18is_move_assignableIS8_EE5valueEvE4typeERS8_SB_, symObjAddr: 0x56B4, symBinAddr: 0x10000DE5C, symSize: 0x3C }
  - { offsetInCU: 0x130E2, offset: 0x377F5, size: 0x8, addend: 0x0, symName: __ZNSt3__122__make_exception_guardB8ue170006INS_29_AllocatorDestroyRangeReverseINS_9allocatorINS_10unique_ptrI6EntityNS_14default_deleteIS4_EEEEEENS_16reverse_iteratorIPS7_EEEEEENS_28__exception_guard_exceptionsIT_EESE_, symObjAddr: 0x579C, symBinAddr: 0x10000DF44, symSize: 0x4C }
  - { offsetInCU: 0x13118, offset: 0x3782B, size: 0x8, addend: 0x0, symName: __ZNSt3__1neB8ue170006IPNS_10unique_ptrI6EntityNS_14default_deleteIS2_EEEES6_EEbRKNS_16reverse_iteratorIT_EERKNS7_IT0_EE, symObjAddr: 0x582C, symBinAddr: 0x10000DFD4, symSize: 0x48 }
  - { offsetInCU: 0x13164, offset: 0x37877, size: 0x8, addend: 0x0, symName: __ZNSt3__112__to_addressB8ue170006INS_16reverse_iteratorIPNS_10unique_ptrI6EntityNS_14default_deleteIS3_EEEEEEvEEu7__decayIDTclsr19__to_address_helperIT_EE6__callclsr3stdE7declvalIRKS9_EEEEESB_, symObjAddr: 0x5874, symBinAddr: 0x10000E01C, symSize: 0x24 }
  - { offsetInCU: 0x131C3, offset: 0x378D6, size: 0x8, addend: 0x0, symName: __ZNSt3__119__allocator_destroyB8ue170006INS_9allocatorINS_10unique_ptrI6EntityNS_14default_deleteIS3_EEEEEENS_16reverse_iteratorINS8_IPS6_EEEESB_EEvRT_T0_T1_, symObjAddr: 0x5B24, symBinAddr: 0x10000E2CC, symSize: 0x70 }
  - { offsetInCU: 0x13229, offset: 0x3793C, size: 0x8, addend: 0x0, symName: __ZNSt3__1neB8ue170006INS_16reverse_iteratorIPNS_10unique_ptrI6EntityNS_14default_deleteIS3_EEEEEES8_EEbRKNS1_IT_EERKNS1_IT0_EE, symObjAddr: 0x5BD0, symBinAddr: 0x10000E378, symSize: 0x60 }
  - { offsetInCU: 0x13275, offset: 0x37988, size: 0x8, addend: 0x0, symName: __ZNSt3__112__to_addressB8ue170006INS_16reverse_iteratorINS1_IPNS_10unique_ptrI6EntityNS_14default_deleteIS3_EEEEEEEEvEEu7__decayIDTclsr19__to_address_helperIT_EE6__callclsr3stdE7declvalIRKSA_EEEEESC_, symObjAddr: 0x5C30, symBinAddr: 0x10000E3D8, symSize: 0x24 }
  - { offsetInCU: 0x132D5, offset: 0x379E8, size: 0x8, addend: 0x0, symName: __ZNSt3__122__make_exception_guardB8ue170006INS_6vectorI12SDL_ScancodeNS_9allocatorIS2_EEE16__destroy_vectorEEENS_28__exception_guard_exceptionsIT_EES8_, symObjAddr: 0x6C64, symBinAddr: 0x10000E8F4, symSize: 0x40 }
  - { offsetInCU: 0x1330A, offset: 0x37A1D, size: 0x8, addend: 0x0, symName: __ZNSt3__119__allocate_at_leastB8ue170006INS_9allocatorI12SDL_ScancodeEEEENS_19__allocation_resultINS_16allocator_traitsIT_E7pointerEEERS6_m, symObjAddr: 0x7064, symBinAddr: 0x10000ECF4, symSize: 0x40 }
  - { offsetInCU: 0x1334D, offset: 0x37A60, size: 0x8, addend: 0x0, symName: __ZNSt3__112__to_addressB8ue170006I12SDL_ScancodeEEPT_S3_, symObjAddr: 0x7388, symBinAddr: 0x10000F018, symSize: 0x14 }
  - { offsetInCU: 0x13381, offset: 0x37A94, size: 0x8, addend: 0x0, symName: __ZNSt3__130__uninitialized_allocator_copyB8ue170006INS_9allocatorI12SDL_ScancodeEEPKS2_S5_PS2_EET2_RT_T0_T1_S7_, symObjAddr: 0x7438, symBinAddr: 0x10000F0C8, symSize: 0x80 }
  - { offsetInCU: 0x1341F, offset: 0x37B32, size: 0x8, addend: 0x0, symName: __ZNSt3__114__unwrap_rangeB8ue170006IPK12SDL_ScancodeS3_EENS_4pairIT0_S5_EET_S7_, symObjAddr: 0x7528, symBinAddr: 0x10000F1B8, symSize: 0x60 }
  - { offsetInCU: 0x1346A, offset: 0x37B7D, size: 0x8, addend: 0x0, symName: __ZNSt3__135__uninitialized_allocator_copy_implB8ue170006INS_9allocatorI12SDL_ScancodeEEKS2_S2_S2_LPv0EEEPT2_RT_PT0_SB_S7_, symObjAddr: 0x7588, symBinAddr: 0x10000F218, symSize: 0x38 }
  - { offsetInCU: 0x134EC, offset: 0x37BFF, size: 0x8, addend: 0x0, symName: __ZNSt3__113__unwrap_iterB8ue170006IP12SDL_ScancodeNS_18__unwrap_iter_implIS2_Lb1EEELi0EEEDTclsrT0_8__unwrapclsr3stdE7declvalIT_EEEES6_, symObjAddr: 0x75C0, symBinAddr: 0x10000F250, symSize: 0x24 }
  - { offsetInCU: 0x13530, offset: 0x37C43, size: 0x8, addend: 0x0, symName: __ZNSt3__113__rewrap_iterB8ue170006IP12SDL_ScancodeS2_NS_18__unwrap_iter_implIS2_Lb1EEEEET_S5_T0_, symObjAddr: 0x75E4, symBinAddr: 0x10000F274, symSize: 0x3C }
  - { offsetInCU: 0x13584, offset: 0x37C97, size: 0x8, addend: 0x0, symName: __ZNSt3__19make_pairB8ue170006IPK12SDL_ScancodeS3_EENS_4pairINS_18__unwrap_ref_decayIT_E4typeENS5_IT0_E4typeEEEOS6_OS9_, symObjAddr: 0x7620, symBinAddr: 0x10000F2B0, symSize: 0x38 }
  - { offsetInCU: 0x135D4, offset: 0x37CE7, size: 0x8, addend: 0x0, symName: __ZNSt3__113__unwrap_iterB8ue170006IPK12SDL_ScancodeNS_18__unwrap_iter_implIS3_Lb1EEELi0EEEDTclsrT0_8__unwrapclsr3stdE7declvalIT_EEEES7_, symObjAddr: 0x7658, symBinAddr: 0x10000F2E8, symSize: 0x24 }
  - { offsetInCU: 0x1373F, offset: 0x37E52, size: 0x8, addend: 0x0, symName: __ZNSt3__112__to_addressB8ue170006IK12SDL_ScancodeEEPT_S4_, symObjAddr: 0x7710, symBinAddr: 0x10000F3A0, symSize: 0x14 }
  - { offsetInCU: 0x13774, offset: 0x37E87, size: 0x8, addend: 0x0, symName: __ZNSt3__14copyB8ue170006IPK12SDL_ScancodePS1_EET0_T_S6_S5_, symObjAddr: 0x7724, symBinAddr: 0x10000F3B4, symSize: 0x40 }
  - { offsetInCU: 0x137CE, offset: 0x37EE1, size: 0x8, addend: 0x0, symName: __ZNSt3__16__copyB8ue170006INS_17_ClassicAlgPolicyEPK12SDL_ScancodeS4_PS2_EENS_4pairIT0_T2_EES7_T1_S8_, symObjAddr: 0x7764, symBinAddr: 0x10000F3F4, symSize: 0x44 }
  - { offsetInCU: 0x1383A, offset: 0x37F4D, size: 0x8, addend: 0x0, symName: __ZNSt3__123__dispatch_copy_or_moveB8ue170006INS_17_ClassicAlgPolicyENS_11__copy_loopIS1_EENS_14__copy_trivialEPK12SDL_ScancodeS7_PS5_EENS_4pairIT2_T4_EESA_T3_SB_, symObjAddr: 0x77A8, symBinAddr: 0x10000F438, symSize: 0x44 }
  - { offsetInCU: 0x138B8, offset: 0x37FCB, size: 0x8, addend: 0x0, symName: __ZNSt3__121__unwrap_and_dispatchB8ue170006INS_10__overloadINS_11__copy_loopINS_17_ClassicAlgPolicyEEENS_14__copy_trivialEEEPK12SDL_ScancodeS9_PS7_Li0EEENS_4pairIT0_T2_EESC_T1_SD_, symObjAddr: 0x77EC, symBinAddr: 0x10000F47C, symSize: 0xB4 }
  - { offsetInCU: 0x13A8E, offset: 0x381A1, size: 0x8, addend: 0x0, symName: __ZNSt3__19make_pairB8ue170006IPK12SDL_ScancodePS1_EENS_4pairINS_18__unwrap_ref_decayIT_E4typeENS6_IT0_E4typeEEEOS7_OSA_, symObjAddr: 0x78E8, symBinAddr: 0x10000F578, symSize: 0x38 }
  - { offsetInCU: 0x13ADE, offset: 0x381F1, size: 0x8, addend: 0x0, symName: __ZNSt3__114__rewrap_rangeB8ue170006IPK12SDL_ScancodeS3_EET_S4_T0_, symObjAddr: 0x7920, symBinAddr: 0x10000F5B0, symSize: 0x2C }
  - { offsetInCU: 0x13B2A, offset: 0x3823D, size: 0x8, addend: 0x0, symName: __ZNSt3__119__copy_trivial_implB8ue170006IK12SDL_ScancodeS1_EENS_4pairIPT_PT0_EES5_S5_S7_, symObjAddr: 0x794C, symBinAddr: 0x10000F5DC, symSize: 0x80 }
  - { offsetInCU: 0x13B92, offset: 0x382A5, size: 0x8, addend: 0x0, symName: __ZNSt3__119__constexpr_memmoveB8ue170006I12SDL_ScancodeKS1_Li0EEEPT_S4_PT0_NS_15__element_countE, symObjAddr: 0x79CC, symBinAddr: 0x10000F65C, symSize: 0x64 }
  - { offsetInCU: 0x13BFF, offset: 0x38312, size: 0x8, addend: 0x0, symName: __ZNSt3__19make_pairB8ue170006IRPK12SDL_ScancodePS1_EENS_4pairINS_18__unwrap_ref_decayIT_E4typeENS7_IT0_E4typeEEEOS8_OSB_, symObjAddr: 0x7A30, symBinAddr: 0x10000F6C0, symSize: 0x38 }
  - { offsetInCU: 0x13C4F, offset: 0x38362, size: 0x8, addend: 0x0, symName: __ZNSt3__113__rewrap_iterB8ue170006IPK12SDL_ScancodeS3_NS_18__unwrap_iter_implIS3_Lb1EEEEET_S6_T0_, symObjAddr: 0x7B48, symBinAddr: 0x10000F7D8, symSize: 0x3C }
  - { offsetInCU: 0x13CF7, offset: 0x3840A, size: 0x8, addend: 0x0, symName: __ZNSt3__112__to_addressB8ue170006IP17ColliderComponentEEPT_S4_, symObjAddr: 0x847C, symBinAddr: 0x10001010C, symSize: 0x14 }
  - { offsetInCU: 0x13E99, offset: 0x385AC, size: 0x8, addend: 0x0, symName: '__ZNSt3__116forward_as_tupleB8ue170006IJZN4Game4initEPKciiiibE3$_0EEENS_5tupleIJDpOT_EEES8_', symObjAddr: 0x8D28, symBinAddr: 0x1000109B8, symSize: 0x2C }
  - { offsetInCU: 0x13ED3, offset: 0x385E6, size: 0x8, addend: 0x0, symName: '__ZNSt3__116forward_as_tupleB8ue170006IJNS_9allocatorIZN4Game4initEPKciiiibE3$_0EEEEENS_5tupleIJDpOT_EEESA_', symObjAddr: 0x8D54, symBinAddr: 0x1000109E4, symSize: 0x2C }
  - { offsetInCU: 0x13F52, offset: 0x38665, size: 0x8, addend: 0x0, symName: '__ZNSt3__13getB8ue170006ILm0EJOZN4Game4initEPKciiiibE3$_0EEERNS_13tuple_elementIXT_ENS_5tupleIJDpT0_EEEE4typeERSA_', symObjAddr: 0x9060, symBinAddr: 0x100010CF0, symSize: 0x24 }
  - { offsetInCU: 0x13F95, offset: 0x386A8, size: 0x8, addend: 0x0, symName: '__ZNSt3__13getB8ue170006ILm0EJONS_9allocatorIZN4Game4initEPKciiiibE3$_0EEEEERNS_13tuple_elementIXT_ENS_5tupleIJDpT0_EEEE4typeERSC_', symObjAddr: 0x909C, symBinAddr: 0x100010D2C, symSize: 0x24 }
  - { offsetInCU: 0x144E1, offset: 0x38BF4, size: 0x8, addend: 0x0, symName: '__ZNSt3__116forward_as_tupleB8ue170006IJRKZN4Game4initEPKciiiibE3$_0EEENS_5tupleIJDpOT_EEESA_', symObjAddr: 0x9630, symBinAddr: 0x1000112C0, symSize: 0x2C }
  - { offsetInCU: 0x14530, offset: 0x38C43, size: 0x8, addend: 0x0, symName: '__ZNSt3__13getB8ue170006ILm0EJRKZN4Game4initEPKciiiibE3$_0EEERNS_13tuple_elementIXT_ENS_5tupleIJDpT0_EEEE4typeERSB_', symObjAddr: 0x9814, symBinAddr: 0x1000114A4, symSize: 0x24 }
  - { offsetInCU: 0x14573, offset: 0x38C86, size: 0x8, addend: 0x0, symName: '__ZNSt3__116forward_as_tupleB8ue170006IJRKNS_9allocatorIZN4Game4initEPKciiiibE3$_0EEEEENS_5tupleIJDpOT_EEESC_', symObjAddr: 0x9B70, symBinAddr: 0x100011800, symSize: 0x2C }
  - { offsetInCU: 0x145C2, offset: 0x38CD5, size: 0x8, addend: 0x0, symName: '__ZNSt3__13getB8ue170006ILm0EJRKNS_9allocatorIZN4Game4initEPKciiiibE3$_0EEEEERNS_13tuple_elementIXT_ENS_5tupleIJDpT0_EEEE4typeERSD_', symObjAddr: 0x9D54, symBinAddr: 0x1000119E4, symSize: 0x24 }
  - { offsetInCU: 0x14641, offset: 0x38D54, size: 0x8, addend: 0x0, symName: '__ZNSt3__18__invokeB8ue170006IRZN4Game4initEPKciiiibE3$_0JEEEDTclclsr3stdE7declvalIT_EEspclsr3stdE7declvalIT0_EEEEOS6_DpOS7_', symObjAddr: 0x9E40, symBinAddr: 0x100011AD0, symSize: 0x2C }
  - { offsetInCU: 0x1469D, offset: 0x38DB0, size: 0x8, addend: 0x0, symName: __ZNSt3__111make_uniqueB8ue170006I8MainMenuJEEENS_11__unique_ifIT_E15__unique_singleEDpOT0_, symObjAddr: 0x9EF4, symBinAddr: 0x100011B84, symSize: 0x64 }
  - { offsetInCU: 0x146CA, offset: 0x38DDD, size: 0x8, addend: 0x0, symName: __ZNSt3__111make_uniqueB8ue170006I13TileComponentJRiS2_S2_S2_RPKcEEENS_11__unique_ifIT_E15__unique_singleEDpOT0_, symObjAddr: 0xA5A0, symBinAddr: 0x100012230, symSize: 0xA0 }
  - { offsetInCU: 0x1475D, offset: 0x38E70, size: 0x8, addend: 0x0, symName: __ZNSt3__119__allocate_at_leastB8ue170006INS_9allocatorINS_10unique_ptrI9ComponentNS_14default_deleteIS3_EEEEEEEENS_19__allocation_resultINS_16allocator_traitsIT_E7pointerEEERSA_m, symObjAddr: 0xB69C, symBinAddr: 0x10001332C, symSize: 0x40 }
  - { offsetInCU: 0x1479F, offset: 0x38EB2, size: 0x8, addend: 0x0, symName: __ZNSt3__142__uninitialized_allocator_move_if_noexceptB8ue170006INS_9allocatorINS_10unique_ptrI9ComponentNS_14default_deleteIS3_EEEEEENS_16reverse_iteratorIPS6_EESA_SA_EET2_RT_T0_T1_SB_, symObjAddr: 0xB850, symBinAddr: 0x1000134E0, symSize: 0x12C }
  - { offsetInCU: 0x14840, offset: 0x38F53, size: 0x8, addend: 0x0, symName: __ZNSt3__14swapB8ue170006IPNS_10unique_ptrI9ComponentNS_14default_deleteIS2_EEEEEENS_9enable_ifIXaasr21is_move_constructibleIT_EE5valuesr18is_move_assignableIS8_EE5valueEvE4typeERS8_SB_, symObjAddr: 0xB9C8, symBinAddr: 0x100013658, symSize: 0x3C }
  - { offsetInCU: 0x14891, offset: 0x38FA4, size: 0x8, addend: 0x0, symName: __ZNSt3__122__make_exception_guardB8ue170006INS_29_AllocatorDestroyRangeReverseINS_9allocatorINS_10unique_ptrI9ComponentNS_14default_deleteIS4_EEEEEENS_16reverse_iteratorIPS7_EEEEEENS_28__exception_guard_exceptionsIT_EESE_, symObjAddr: 0xBAB0, symBinAddr: 0x100013740, symSize: 0x4C }
  - { offsetInCU: 0x148C7, offset: 0x38FDA, size: 0x8, addend: 0x0, symName: __ZNSt3__1neB8ue170006IPNS_10unique_ptrI9ComponentNS_14default_deleteIS2_EEEES6_EEbRKNS_16reverse_iteratorIT_EERKNS7_IT0_EE, symObjAddr: 0xBB40, symBinAddr: 0x1000137D0, symSize: 0x48 }
  - { offsetInCU: 0x14913, offset: 0x39026, size: 0x8, addend: 0x0, symName: __ZNSt3__112__to_addressB8ue170006INS_16reverse_iteratorIPNS_10unique_ptrI9ComponentNS_14default_deleteIS3_EEEEEEvEEu7__decayIDTclsr19__to_address_helperIT_EE6__callclsr3stdE7declvalIRKS9_EEEEESB_, symObjAddr: 0xBBBC, symBinAddr: 0x10001384C, symSize: 0x24 }
  - { offsetInCU: 0x14972, offset: 0x39085, size: 0x8, addend: 0x0, symName: __ZNSt3__119__allocator_destroyB8ue170006INS_9allocatorINS_10unique_ptrI9ComponentNS_14default_deleteIS3_EEEEEENS_16reverse_iteratorINS8_IPS6_EEEESB_EEvRT_T0_T1_, symObjAddr: 0xC054, symBinAddr: 0x100013CE4, symSize: 0x70 }
  - { offsetInCU: 0x149D8, offset: 0x390EB, size: 0x8, addend: 0x0, symName: __ZNSt3__1neB8ue170006INS_16reverse_iteratorIPNS_10unique_ptrI9ComponentNS_14default_deleteIS3_EEEEEES8_EEbRKNS1_IT_EERKNS1_IT0_EE, symObjAddr: 0xC100, symBinAddr: 0x100013D90, symSize: 0x60 }
  - { offsetInCU: 0x14A24, offset: 0x39137, size: 0x8, addend: 0x0, symName: __ZNSt3__112__to_addressB8ue170006INS_16reverse_iteratorINS1_IPNS_10unique_ptrI9ComponentNS_14default_deleteIS3_EEEEEEEEvEEu7__decayIDTclsr19__to_address_helperIT_EE6__callclsr3stdE7declvalIRKSA_EEEEESC_, symObjAddr: 0xC160, symBinAddr: 0x100013DF0, symSize: 0x24 }
  - { offsetInCU: 0x17E81, offset: 0x3C594, size: 0x8, addend: 0x0, symName: __ZN4Game12inputManagerE, symObjAddr: 0xCCC80, symBinAddr: 0x10003C0B0, symSize: 0x0 }
  - { offsetInCU: 0x17E9C, offset: 0x3C5AF, size: 0x8, addend: 0x0, symName: _map, symObjAddr: 0xCCCB8, symBinAddr: 0x10003C0E8, symSize: 0x0 }
  - { offsetInCU: 0x17F12, offset: 0x3C625, size: 0x8, addend: 0x0, symName: __ZN4Game5eventE, symObjAddr: 0xCCCC0, symBinAddr: 0x10003C0F0, symSize: 0x0 }
  - { offsetInCU: 0x17F26, offset: 0x3C639, size: 0x8, addend: 0x0, symName: __ZN4Game6cameraE, symObjAddr: 0xCCCF8, symBinAddr: 0x10003C128, symSize: 0x0 }
  - { offsetInCU: 0x17F3A, offset: 0x3C64D, size: 0x8, addend: 0x0, symName: __ZN4Game7managerE, symObjAddr: 0xCCD10, symBinAddr: 0x10003C140, symSize: 0x0 }
  - { offsetInCU: 0x17F4E, offset: 0x3C661, size: 0x8, addend: 0x0, symName: __ZN4Game12audioManagerE, symObjAddr: 0xCD028, symBinAddr: 0x10003C458, symSize: 0x0 }
  - { offsetInCU: 0x17F69, offset: 0x3C67C, size: 0x8, addend: 0x0, symName: _mapfile, symObjAddr: 0xCE20, symBinAddr: 0x10003C000, symSize: 0x0 }
  - { offsetInCU: 0x17F78, offset: 0x3C68B, size: 0x8, addend: 0x0, symName: __ZN4Game9isRunningE, symObjAddr: 0xCE28, symBinAddr: 0x10003C008, symSize: 0x0 }
  - { offsetInCU: 0x17F8C, offset: 0x3C69F, size: 0x8, addend: 0x0, symName: __ZN4Game9collidersE, symObjAddr: 0xCD050, symBinAddr: 0x10003C480, symSize: 0x0 }
  - { offsetInCU: 0x17FA5, offset: 0x3C6B8, size: 0x8, addend: 0x0, symName: __Z18getComponentTypeIDI13TileComponentEmv, symObjAddr: 0xA724, symBinAddr: 0x1000123B4, symSize: 0x8C }
  - { offsetInCU: 0x17FCE, offset: 0x3C6E1, size: 0x8, addend: 0x0, symName: __ZZ18getComponentTypeIDI13TileComponentEmvE6typeID, symObjAddr: 0xCE30, symBinAddr: 0x10003C010, symSize: 0x0 }
  - { offsetInCU: 0x17FED, offset: 0x3C700, size: 0x8, addend: 0x0, symName: __Z21getNewComponentTypeIDv, symObjAddr: 0xC4C8, symBinAddr: 0x100014158, symSize: 0x18 }
  - { offsetInCU: 0x18016, offset: 0x3C729, size: 0x8, addend: 0x0, symName: __ZZ21getNewComponentTypeIDvE6lastID, symObjAddr: 0xCE40, symBinAddr: 0x10003C020, symSize: 0x0 }
  - { offsetInCU: 0x18035, offset: 0x3C748, size: 0x8, addend: 0x0, symName: __ZNSt3__16vectorINS_10unique_ptrI6EntityNS_14default_deleteIS2_EEEENS_9allocatorIS5_EEE26__swap_out_circular_bufferERNS_14__split_bufferIS5_RS7_EE, symObjAddr: 0x4DC4, symBinAddr: 0x10000D7D0, symSize: 0x110 }
  - { offsetInCU: 0x180F7, offset: 0x3C80A, size: 0x8, addend: 0x0, symName: __ZN4Game4initEPKciiiib, symObjAddr: 0x614, symBinAddr: 0x10000963C, symSize: 0x288 }
  - { offsetInCU: 0x18680, offset: 0x3CD93, size: 0x8, addend: 0x0, symName: __ZNSt3__16vectorINS_10unique_ptrI9ComponentNS_14default_deleteIS2_EEEENS_9allocatorIS5_EEE26__swap_out_circular_bufferERNS_14__split_bufferIS5_RS7_EE, symObjAddr: 0xB33C, symBinAddr: 0x100012FCC, symSize: 0x110 }
  - { offsetInCU: 0x1A4F8, offset: 0x3EC0B, size: 0x8, addend: 0x0, symName: __Z11setupInputsv, symObjAddr: 0x0, symBinAddr: 0x100009028, symSize: 0x3B4 }
  - { offsetInCU: 0x1A517, offset: 0x3EC2A, size: 0x8, addend: 0x0, symName: __ZNSt3__112basic_stringIcNS_11char_traitsIcEENS_9allocatorIcEEEC1B8ue170006ILi0EEEPKc, symObjAddr: 0x3B4, symBinAddr: 0x1000093DC, symSize: 0x34 }
  - { offsetInCU: 0x1A555, offset: 0x3EC68, size: 0x8, addend: 0x0, symName: __ZNSt3__16vectorI12SDL_ScancodeNS_9allocatorIS1_EEEC1B8ue170006ESt16initializer_listIS1_E, symObjAddr: 0x3E8, symBinAddr: 0x100009410, symSize: 0x3C }
  - { offsetInCU: 0x1A58F, offset: 0x3ECA2, size: 0x8, addend: 0x0, symName: __ZNSt3__16vectorI12SDL_ScancodeNS_9allocatorIS1_EEED1B8ue170006Ev, symObjAddr: 0x424, symBinAddr: 0x10000944C, symSize: 0x2C }
  - { offsetInCU: 0x1A5B8, offset: 0x3ECCB, size: 0x8, addend: 0x0, symName: __ZN7ManagerC1Ev, symObjAddr: 0x450, symBinAddr: 0x100009478, symSize: 0x2C }
  - { offsetInCU: 0x1A5E3, offset: 0x3ECF6, size: 0x8, addend: 0x0, symName: __ZN7ManagerD1Ev, symObjAddr: 0x47C, symBinAddr: 0x1000094A4, symSize: 0x2C }
  - { offsetInCU: 0x1A60E, offset: 0x3ED21, size: 0x8, addend: 0x0, symName: __ZNSt3__16vectorIP17ColliderComponentNS_9allocatorIS2_EEEC1B8ue170006Ev, symObjAddr: 0x4A8, symBinAddr: 0x1000094D0, symSize: 0x2C }
  - { offsetInCU: 0x1A637, offset: 0x3ED4A, size: 0x8, addend: 0x0, symName: __ZNSt3__16vectorIP17ColliderComponentNS_9allocatorIS2_EEED1B8ue170006Ev, symObjAddr: 0x4D4, symBinAddr: 0x1000094FC, symSize: 0x2C }
  - { offsetInCU: 0x1A660, offset: 0x3ED73, size: 0x8, addend: 0x0, symName: __ZN4GameC2Ev, symObjAddr: 0x500, symBinAddr: 0x100009528, symSize: 0x34 }
  - { offsetInCU: 0x1A68B, offset: 0x3ED9E, size: 0x8, addend: 0x0, symName: __ZN12SceneManagerC1Ev, symObjAddr: 0x534, symBinAddr: 0x10000955C, symSize: 0x2C }
  - { offsetInCU: 0x1A6B4, offset: 0x3EDC7, size: 0x8, addend: 0x0, symName: __ZN4GameC1Ev, symObjAddr: 0x560, symBinAddr: 0x100009588, symSize: 0x2C }
  - { offsetInCU: 0x1A6DF, offset: 0x3EDF2, size: 0x8, addend: 0x0, symName: __ZN4GameD2Ev, symObjAddr: 0x58C, symBinAddr: 0x1000095B4, symSize: 0x30 }
  - { offsetInCU: 0x1A70A, offset: 0x3EE1D, size: 0x8, addend: 0x0, symName: __ZN12SceneManagerD1Ev, symObjAddr: 0x5BC, symBinAddr: 0x1000095E4, symSize: 0x2C }
  - { offsetInCU: 0x1A733, offset: 0x3EE46, size: 0x8, addend: 0x0, symName: __ZN4GameD1Ev, symObjAddr: 0x5E8, symBinAddr: 0x100009610, symSize: 0x2C }
  - { offsetInCU: 0x1A7AB, offset: 0x3EEBE, size: 0x8, addend: 0x0, symName: '__ZNSt3__18functionIFNS_10unique_ptrI5SceneNS_14default_deleteIS2_EEEEvEEC1IZN4Game4initEPKciiiibE3$_0vEET_', symObjAddr: 0x968, symBinAddr: 0x1000098C4, symSize: 0x2C }
  - { offsetInCU: 0x1A7EF, offset: 0x3EF02, size: 0x8, addend: 0x0, symName: __ZNSt3__18functionIFNS_10unique_ptrI5SceneNS_14default_deleteIS2_EEEEvEED1Ev, symObjAddr: 0x994, symBinAddr: 0x1000098F0, symSize: 0x2C }
  - { offsetInCU: 0x1A81A, offset: 0x3EF2D, size: 0x8, addend: 0x0, symName: __ZN4Game12handleEventsEv, symObjAddr: 0x9C0, symBinAddr: 0x10000991C, symSize: 0x58 }
  - { offsetInCU: 0x1A841, offset: 0x3EF54, size: 0x8, addend: 0x0, symName: __ZN4Game6updateEf, symObjAddr: 0xA18, symBinAddr: 0x100009974, symSize: 0x54 }
  - { offsetInCU: 0x1A876, offset: 0x3EF89, size: 0x8, addend: 0x0, symName: __ZN7Manager6updateEf, symObjAddr: 0xA6C, symBinAddr: 0x1000099C8, symSize: 0x9C }
  - { offsetInCU: 0x1A8FA, offset: 0x3F00D, size: 0x8, addend: 0x0, symName: __ZN4Game6renderEv, symObjAddr: 0xB08, symBinAddr: 0x100009A64, symSize: 0x4C }
  - { offsetInCU: 0x1A921, offset: 0x3F034, size: 0x8, addend: 0x0, symName: __ZN4Game5cleanEv, symObjAddr: 0xB54, symBinAddr: 0x100009AB0, symSize: 0x58 }
  - { offsetInCU: 0x1A948, offset: 0x3F05B, size: 0x8, addend: 0x0, symName: __ZN4Game7AddTileEiiii, symObjAddr: 0xBAC, symBinAddr: 0x100009B08, symSize: 0x84 }
  - { offsetInCU: 0x1A9A5, offset: 0x3F0B8, size: 0x8, addend: 0x0, symName: __ZN7Manager9addEntityEv, symObjAddr: 0xC30, symBinAddr: 0x100009B8C, symSize: 0x90 }
  - { offsetInCU: 0x1A9F0, offset: 0x3F103, size: 0x8, addend: 0x0, symName: __ZN6Entity12addComponentI13TileComponentJRiS2_S2_S2_RPKcEEERT_DpOT0_, symObjAddr: 0xCC0, symBinAddr: 0x100009C1C, symSize: 0x150 }
  - { offsetInCU: 0x1AA9F, offset: 0x3F1B2, size: 0x8, addend: 0x0, symName: __ZN7ManagerC2Ev, symObjAddr: 0xE10, symBinAddr: 0x100009D6C, symSize: 0x38 }
  - { offsetInCU: 0x1AACA, offset: 0x3F1DD, size: 0x8, addend: 0x0, symName: __ZNSt3__15arrayINS_6vectorIP6EntityNS_9allocatorIS3_EEEELm32EEC1Ev, symObjAddr: 0xE48, symBinAddr: 0x100009DA4, symSize: 0x2C }
  - { offsetInCU: 0x1AAF5, offset: 0x3F208, size: 0x8, addend: 0x0, symName: __ZNSt3__16vectorINS_10unique_ptrI6EntityNS_14default_deleteIS2_EEEENS_9allocatorIS5_EEEC1B8ue170006Ev, symObjAddr: 0xE74, symBinAddr: 0x100009DD0, symSize: 0x2C }
  - { offsetInCU: 0x1AB1E, offset: 0x3F231, size: 0x8, addend: 0x0, symName: __ZNSt3__15arrayINS_6vectorIP6EntityNS_9allocatorIS3_EEEELm32EEC2Ev, symObjAddr: 0xEA0, symBinAddr: 0x100009DFC, symSize: 0x68 }
  - { offsetInCU: 0x1AB49, offset: 0x3F25C, size: 0x8, addend: 0x0, symName: __ZNSt3__16vectorIP6EntityNS_9allocatorIS2_EEEC1B8ue170006Ev, symObjAddr: 0xF08, symBinAddr: 0x100009E64, symSize: 0x2C }
  - { offsetInCU: 0x1AB72, offset: 0x3F285, size: 0x8, addend: 0x0, symName: __ZNSt3__16vectorIP6EntityNS_9allocatorIS2_EEEC2B8ue170006Ev, symObjAddr: 0xF34, symBinAddr: 0x100009E90, symSize: 0x4C }
  - { offsetInCU: 0x1ABA5, offset: 0x3F2B8, size: 0x8, addend: 0x0, symName: __ZNSt3__117__compressed_pairIPP6EntityNS_9allocatorIS2_EEEC1B8ue170006IDnNS_18__default_init_tagEEEOT_OT0_, symObjAddr: 0xF80, symBinAddr: 0x100009EDC, symSize: 0x3C }
  - { offsetInCU: 0x1ABFC, offset: 0x3F30F, size: 0x8, addend: 0x0, symName: __ZNSt3__117__compressed_pairIPP6EntityNS_9allocatorIS2_EEEC2B8ue170006IDnNS_18__default_init_tagEEEOT_OT0_, symObjAddr: 0xFC8, symBinAddr: 0x100009F18, symSize: 0x40 }
  - { offsetInCU: 0x1AC53, offset: 0x3F366, size: 0x8, addend: 0x0, symName: __ZNSt3__122__compressed_pair_elemINS_9allocatorIP6EntityEELi1ELb1EEC2B8ue170006ENS_18__default_init_tagE, symObjAddr: 0x1024, symBinAddr: 0x100009F58, symSize: 0x2C }
  - { offsetInCU: 0x1AC87, offset: 0x3F39A, size: 0x8, addend: 0x0, symName: __ZNSt3__19allocatorIP6EntityEC2B8ue170006Ev, symObjAddr: 0x1050, symBinAddr: 0x100009F84, symSize: 0x2C }
  - { offsetInCU: 0x1ACB0, offset: 0x3F3C3, size: 0x8, addend: 0x0, symName: __ZNSt3__116__non_trivial_ifILb1ENS_9allocatorIP6EntityEEEC2B8ue170006Ev, symObjAddr: 0x107C, symBinAddr: 0x100009FB0, symSize: 0x14 }
  - { offsetInCU: 0x1ACD9, offset: 0x3F3EC, size: 0x8, addend: 0x0, symName: __ZNSt3__16vectorINS_10unique_ptrI6EntityNS_14default_deleteIS2_EEEENS_9allocatorIS5_EEEC2B8ue170006Ev, symObjAddr: 0x1090, symBinAddr: 0x100009FC4, symSize: 0x4C }
  - { offsetInCU: 0x1AD02, offset: 0x3F415, size: 0x8, addend: 0x0, symName: __ZNSt3__117__compressed_pairIPNS_10unique_ptrI6EntityNS_14default_deleteIS2_EEEENS_9allocatorIS5_EEEC1B8ue170006IDnNS_18__default_init_tagEEEOT_OT0_, symObjAddr: 0x10DC, symBinAddr: 0x10000A010, symSize: 0x3C }
  - { offsetInCU: 0x1AD59, offset: 0x3F46C, size: 0x8, addend: 0x0, symName: __ZNSt3__117__compressed_pairIPNS_10unique_ptrI6EntityNS_14default_deleteIS2_EEEENS_9allocatorIS5_EEEC2B8ue170006IDnNS_18__default_init_tagEEEOT_OT0_, symObjAddr: 0x1118, symBinAddr: 0x10000A04C, symSize: 0x40 }
  - { offsetInCU: 0x1ADB0, offset: 0x3F4C3, size: 0x8, addend: 0x0, symName: __ZNSt3__122__compressed_pair_elemIPNS_10unique_ptrI6EntityNS_14default_deleteIS2_EEEELi0ELb0EEC2B8ue170006IDnvEEOT_, symObjAddr: 0x1158, symBinAddr: 0x10000A08C, symSize: 0x1C }
  - { offsetInCU: 0x1ADF1, offset: 0x3F504, size: 0x8, addend: 0x0, symName: __ZNSt3__122__compressed_pair_elemINS_9allocatorINS_10unique_ptrI6EntityNS_14default_deleteIS3_EEEEEELi1ELb1EEC2B8ue170006ENS_18__default_init_tagE, symObjAddr: 0x1174, symBinAddr: 0x10000A0A8, symSize: 0x2C }
  - { offsetInCU: 0x1AE25, offset: 0x3F538, size: 0x8, addend: 0x0, symName: __ZNSt3__19allocatorINS_10unique_ptrI6EntityNS_14default_deleteIS2_EEEEEC2B8ue170006Ev, symObjAddr: 0x11A0, symBinAddr: 0x10000A0D4, symSize: 0x2C }
  - { offsetInCU: 0x1AE4E, offset: 0x3F561, size: 0x8, addend: 0x0, symName: __ZNSt3__116__non_trivial_ifILb1ENS_9allocatorINS_10unique_ptrI6EntityNS_14default_deleteIS3_EEEEEEEC2B8ue170006Ev, symObjAddr: 0x11CC, symBinAddr: 0x10000A100, symSize: 0x14 }
  - { offsetInCU: 0x1AE77, offset: 0x3F58A, size: 0x8, addend: 0x0, symName: __ZN7ManagerD2Ev, symObjAddr: 0x11E0, symBinAddr: 0x10000A114, symSize: 0x38 }
  - { offsetInCU: 0x1AEA2, offset: 0x3F5B5, size: 0x8, addend: 0x0, symName: __ZNSt3__16vectorINS_10unique_ptrI6EntityNS_14default_deleteIS2_EEEENS_9allocatorIS5_EEED1B8ue170006Ev, symObjAddr: 0x1218, symBinAddr: 0x10000A14C, symSize: 0x2C }
  - { offsetInCU: 0x1AECB, offset: 0x3F5DE, size: 0x8, addend: 0x0, symName: __ZNSt3__15arrayINS_6vectorIP6EntityNS_9allocatorIS3_EEEELm32EED1Ev, symObjAddr: 0x1244, symBinAddr: 0x10000A178, symSize: 0x2C }
  - { offsetInCU: 0x1AEF6, offset: 0x3F609, size: 0x8, addend: 0x0, symName: __ZNSt3__16vectorINS_10unique_ptrI6EntityNS_14default_deleteIS2_EEEENS_9allocatorIS5_EEED2B8ue170006Ev, symObjAddr: 0x1270, symBinAddr: 0x10000A1A4, symSize: 0x44 }
  - { offsetInCU: 0x1AF1F, offset: 0x3F632, size: 0x8, addend: 0x0, symName: __ZNSt3__16vectorINS_10unique_ptrI6EntityNS_14default_deleteIS2_EEEENS_9allocatorIS5_EEE16__destroy_vectorC1B8ue170006ERS8_, symObjAddr: 0x12B4, symBinAddr: 0x10000A1E8, symSize: 0x34 }
  - { offsetInCU: 0x1AF57, offset: 0x3F66A, size: 0x8, addend: 0x0, symName: __ZNSt3__16vectorINS_10unique_ptrI6EntityNS_14default_deleteIS2_EEEENS_9allocatorIS5_EEE16__destroy_vectorclB8ue170006Ev, symObjAddr: 0x12E8, symBinAddr: 0x10000A21C, symSize: 0x90 }
  - { offsetInCU: 0x1AF7C, offset: 0x3F68F, size: 0x8, addend: 0x0, symName: __ZNSt3__16vectorINS_10unique_ptrI6EntityNS_14default_deleteIS2_EEEENS_9allocatorIS5_EEE16__destroy_vectorC2B8ue170006ERS8_, symObjAddr: 0x1378, symBinAddr: 0x10000A2AC, symSize: 0x20 }
  - { offsetInCU: 0x1AFB4, offset: 0x3F6C7, size: 0x8, addend: 0x0, symName: __ZNSt3__16vectorINS_10unique_ptrI6EntityNS_14default_deleteIS2_EEEENS_9allocatorIS5_EEE7__clearB8ue170006Ev, symObjAddr: 0x1398, symBinAddr: 0x10000A2CC, symSize: 0x28 }
  - { offsetInCU: 0x1AFD9, offset: 0x3F6EC, size: 0x8, addend: 0x0, symName: __ZNKSt3__16vectorINS_10unique_ptrI6EntityNS_14default_deleteIS2_EEEENS_9allocatorIS5_EEE17__annotate_deleteB8ue170006Ev, symObjAddr: 0x13C0, symBinAddr: 0x10000A2F4, symSize: 0xB8 }
  - { offsetInCU: 0x1AFFE, offset: 0x3F711, size: 0x8, addend: 0x0, symName: __ZNSt3__116allocator_traitsINS_9allocatorINS_10unique_ptrI6EntityNS_14default_deleteIS3_EEEEEEE10deallocateB8ue170006ERS7_PS6_m, symObjAddr: 0x1478, symBinAddr: 0x10000A3AC, symSize: 0x34 }
  - { offsetInCU: 0x1B040, offset: 0x3F753, size: 0x8, addend: 0x0, symName: __ZNSt3__16vectorINS_10unique_ptrI6EntityNS_14default_deleteIS2_EEEENS_9allocatorIS5_EEE7__allocB8ue170006Ev, symObjAddr: 0x14AC, symBinAddr: 0x10000A3E0, symSize: 0x28 }
  - { offsetInCU: 0x1B065, offset: 0x3F778, size: 0x8, addend: 0x0, symName: __ZNKSt3__16vectorINS_10unique_ptrI6EntityNS_14default_deleteIS2_EEEENS_9allocatorIS5_EEE8capacityB8ue170006Ev, symObjAddr: 0x14D4, symBinAddr: 0x10000A408, symSize: 0x40 }
  - { offsetInCU: 0x1B08A, offset: 0x3F79D, size: 0x8, addend: 0x0, symName: __ZNSt3__16vectorINS_10unique_ptrI6EntityNS_14default_deleteIS2_EEEENS_9allocatorIS5_EEE22__base_destruct_at_endB8ue170006EPS5_, symObjAddr: 0x1514, symBinAddr: 0x10000A448, symSize: 0x8C }
  - { offsetInCU: 0x1B0CD, offset: 0x3F7E0, size: 0x8, addend: 0x0, symName: __ZNSt3__116allocator_traitsINS_9allocatorINS_10unique_ptrI6EntityNS_14default_deleteIS3_EEEEEEE7destroyB8ue170006IS6_vEEvRS7_PT_, symObjAddr: 0x15A0, symBinAddr: 0x10000A4D4, symSize: 0x2C }
  - { offsetInCU: 0x1B10A, offset: 0x3F81D, size: 0x8, addend: 0x0, symName: __ZNSt3__19allocatorINS_10unique_ptrI6EntityNS_14default_deleteIS2_EEEEE7destroyB8ue170006EPS5_, symObjAddr: 0x15E0, symBinAddr: 0x10000A514, symSize: 0x28 }
  - { offsetInCU: 0x1B13D, offset: 0x3F850, size: 0x8, addend: 0x0, symName: __ZNSt3__110unique_ptrI6EntityNS_14default_deleteIS1_EEED1B8ue170006Ev, symObjAddr: 0x1608, symBinAddr: 0x10000A53C, symSize: 0x2C }
  - { offsetInCU: 0x1B166, offset: 0x3F879, size: 0x8, addend: 0x0, symName: __ZNSt3__110unique_ptrI6EntityNS_14default_deleteIS1_EEED2B8ue170006Ev, symObjAddr: 0x1634, symBinAddr: 0x10000A568, symSize: 0x30 }
  - { offsetInCU: 0x1B18F, offset: 0x3F8A2, size: 0x8, addend: 0x0, symName: __ZNSt3__110unique_ptrI6EntityNS_14default_deleteIS1_EEE5resetB8ue170006EPS1_, symObjAddr: 0x1664, symBinAddr: 0x10000A598, symSize: 0x78 }
  - { offsetInCU: 0x1B1D2, offset: 0x3F8E5, size: 0x8, addend: 0x0, symName: __ZNSt3__117__compressed_pairIP6EntityNS_14default_deleteIS1_EEE5firstB8ue170006Ev, symObjAddr: 0x16DC, symBinAddr: 0x10000A610, symSize: 0x24 }
  - { offsetInCU: 0x1B1F7, offset: 0x3F90A, size: 0x8, addend: 0x0, symName: __ZNSt3__117__compressed_pairIP6EntityNS_14default_deleteIS1_EEE6secondB8ue170006Ev, symObjAddr: 0x1700, symBinAddr: 0x10000A634, symSize: 0x24 }
  - { offsetInCU: 0x1B21C, offset: 0x3F92F, size: 0x8, addend: 0x0, symName: __ZNKSt3__114default_deleteI6EntityEclB8ue170006EPS1_, symObjAddr: 0x1724, symBinAddr: 0x10000A658, symSize: 0x4C }
  - { offsetInCU: 0x1B24F, offset: 0x3F962, size: 0x8, addend: 0x0, symName: __ZNSt3__122__compressed_pair_elemIP6EntityLi0ELb0EE5__getB8ue170006Ev, symObjAddr: 0x1770, symBinAddr: 0x10000A6A4, symSize: 0x14 }
  - { offsetInCU: 0x1B274, offset: 0x3F987, size: 0x8, addend: 0x0, symName: __ZNSt3__122__compressed_pair_elemINS_14default_deleteI6EntityEELi1ELb1EE5__getB8ue170006Ev, symObjAddr: 0x1784, symBinAddr: 0x10000A6B8, symSize: 0x14 }
  - { offsetInCU: 0x1B299, offset: 0x3F9AC, size: 0x8, addend: 0x0, symName: __ZN6EntityD1Ev, symObjAddr: 0x1798, symBinAddr: 0x10000A6CC, symSize: 0x2C }
  - { offsetInCU: 0x1B2C4, offset: 0x3F9D7, size: 0x8, addend: 0x0, symName: __ZN6EntityD2Ev, symObjAddr: 0x17C4, symBinAddr: 0x10000A6F8, symSize: 0x30 }
  - { offsetInCU: 0x1B2EF, offset: 0x3FA02, size: 0x8, addend: 0x0, symName: __ZNSt3__16vectorINS_10unique_ptrI9ComponentNS_14default_deleteIS2_EEEENS_9allocatorIS5_EEED1B8ue170006Ev, symObjAddr: 0x17F4, symBinAddr: 0x10000A728, symSize: 0x2C }
  - { offsetInCU: 0x1B318, offset: 0x3FA2B, size: 0x8, addend: 0x0, symName: __ZNSt3__16vectorINS_10unique_ptrI9ComponentNS_14default_deleteIS2_EEEENS_9allocatorIS5_EEED2B8ue170006Ev, symObjAddr: 0x1820, symBinAddr: 0x10000A754, symSize: 0x44 }
  - { offsetInCU: 0x1B341, offset: 0x3FA54, size: 0x8, addend: 0x0, symName: __ZNSt3__16vectorINS_10unique_ptrI9ComponentNS_14default_deleteIS2_EEEENS_9allocatorIS5_EEE16__destroy_vectorC1B8ue170006ERS8_, symObjAddr: 0x1864, symBinAddr: 0x10000A798, symSize: 0x34 }
  - { offsetInCU: 0x1B379, offset: 0x3FA8C, size: 0x8, addend: 0x0, symName: __ZNSt3__16vectorINS_10unique_ptrI9ComponentNS_14default_deleteIS2_EEEENS_9allocatorIS5_EEE16__destroy_vectorclB8ue170006Ev, symObjAddr: 0x1898, symBinAddr: 0x10000A7CC, symSize: 0x90 }
  - { offsetInCU: 0x1B39E, offset: 0x3FAB1, size: 0x8, addend: 0x0, symName: __ZNSt3__16vectorINS_10unique_ptrI9ComponentNS_14default_deleteIS2_EEEENS_9allocatorIS5_EEE16__destroy_vectorC2B8ue170006ERS8_, symObjAddr: 0x1928, symBinAddr: 0x10000A85C, symSize: 0x20 }
  - { offsetInCU: 0x1B3D6, offset: 0x3FAE9, size: 0x8, addend: 0x0, symName: __ZNSt3__16vectorINS_10unique_ptrI9ComponentNS_14default_deleteIS2_EEEENS_9allocatorIS5_EEE7__clearB8ue170006Ev, symObjAddr: 0x1948, symBinAddr: 0x10000A87C, symSize: 0x28 }
  - { offsetInCU: 0x1B3FB, offset: 0x3FB0E, size: 0x8, addend: 0x0, symName: __ZNKSt3__16vectorINS_10unique_ptrI9ComponentNS_14default_deleteIS2_EEEENS_9allocatorIS5_EEE17__annotate_deleteB8ue170006Ev, symObjAddr: 0x1970, symBinAddr: 0x10000A8A4, symSize: 0xB8 }
  - { offsetInCU: 0x1B420, offset: 0x3FB33, size: 0x8, addend: 0x0, symName: __ZNSt3__116allocator_traitsINS_9allocatorINS_10unique_ptrI9ComponentNS_14default_deleteIS3_EEEEEEE10deallocateB8ue170006ERS7_PS6_m, symObjAddr: 0x1A28, symBinAddr: 0x10000A95C, symSize: 0x34 }
  - { offsetInCU: 0x1B462, offset: 0x3FB75, size: 0x8, addend: 0x0, symName: __ZNSt3__16vectorINS_10unique_ptrI9ComponentNS_14default_deleteIS2_EEEENS_9allocatorIS5_EEE7__allocB8ue170006Ev, symObjAddr: 0x1A5C, symBinAddr: 0x10000A990, symSize: 0x28 }
  - { offsetInCU: 0x1B487, offset: 0x3FB9A, size: 0x8, addend: 0x0, symName: __ZNKSt3__16vectorINS_10unique_ptrI9ComponentNS_14default_deleteIS2_EEEENS_9allocatorIS5_EEE8capacityB8ue170006Ev, symObjAddr: 0x1A84, symBinAddr: 0x10000A9B8, symSize: 0x40 }
  - { offsetInCU: 0x1B4AC, offset: 0x3FBBF, size: 0x8, addend: 0x0, symName: __ZNSt3__16vectorINS_10unique_ptrI9ComponentNS_14default_deleteIS2_EEEENS_9allocatorIS5_EEE22__base_destruct_at_endB8ue170006EPS5_, symObjAddr: 0x1AC4, symBinAddr: 0x10000A9F8, symSize: 0x8C }
  - { offsetInCU: 0x1B4EF, offset: 0x3FC02, size: 0x8, addend: 0x0, symName: __ZNSt3__116allocator_traitsINS_9allocatorINS_10unique_ptrI9ComponentNS_14default_deleteIS3_EEEEEEE7destroyB8ue170006IS6_vEEvRS7_PT_, symObjAddr: 0x1B50, symBinAddr: 0x10000AA84, symSize: 0x2C }
  - { offsetInCU: 0x1B52C, offset: 0x3FC3F, size: 0x8, addend: 0x0, symName: __ZNSt3__19allocatorINS_10unique_ptrI9ComponentNS_14default_deleteIS2_EEEEE7destroyB8ue170006EPS5_, symObjAddr: 0x1B90, symBinAddr: 0x10000AAC4, symSize: 0x28 }
  - { offsetInCU: 0x1B55F, offset: 0x3FC72, size: 0x8, addend: 0x0, symName: __ZNSt3__110unique_ptrI9ComponentNS_14default_deleteIS1_EEED1B8ue170006Ev, symObjAddr: 0x1BB8, symBinAddr: 0x10000AAEC, symSize: 0x2C }
  - { offsetInCU: 0x1B588, offset: 0x3FC9B, size: 0x8, addend: 0x0, symName: __ZNSt3__110unique_ptrI9ComponentNS_14default_deleteIS1_EEED2B8ue170006Ev, symObjAddr: 0x1BE4, symBinAddr: 0x10000AB18, symSize: 0x30 }
  - { offsetInCU: 0x1B5B1, offset: 0x3FCC4, size: 0x8, addend: 0x0, symName: __ZNSt3__110unique_ptrI9ComponentNS_14default_deleteIS1_EEE5resetB8ue170006EPS1_, symObjAddr: 0x1C14, symBinAddr: 0x10000AB48, symSize: 0x78 }
  - { offsetInCU: 0x1B5F4, offset: 0x3FD07, size: 0x8, addend: 0x0, symName: __ZNSt3__117__compressed_pairIP9ComponentNS_14default_deleteIS1_EEE5firstB8ue170006Ev, symObjAddr: 0x1C8C, symBinAddr: 0x10000ABC0, symSize: 0x24 }
  - { offsetInCU: 0x1B619, offset: 0x3FD2C, size: 0x8, addend: 0x0, symName: __ZNSt3__117__compressed_pairIP9ComponentNS_14default_deleteIS1_EEE6secondB8ue170006Ev, symObjAddr: 0x1CB0, symBinAddr: 0x10000ABE4, symSize: 0x24 }
  - { offsetInCU: 0x1B63E, offset: 0x3FD51, size: 0x8, addend: 0x0, symName: __ZNKSt3__114default_deleteI9ComponentEclB8ue170006EPS1_, symObjAddr: 0x1CD4, symBinAddr: 0x10000AC08, symSize: 0x4C }
  - { offsetInCU: 0x1B671, offset: 0x3FD84, size: 0x8, addend: 0x0, symName: __ZNSt3__122__compressed_pair_elemIP9ComponentLi0ELb0EE5__getB8ue170006Ev, symObjAddr: 0x1D20, symBinAddr: 0x10000AC54, symSize: 0x14 }
  - { offsetInCU: 0x1B696, offset: 0x3FDA9, size: 0x8, addend: 0x0, symName: __ZNSt3__122__compressed_pair_elemINS_14default_deleteI9ComponentEELi1ELb1EE5__getB8ue170006Ev, symObjAddr: 0x1D34, symBinAddr: 0x10000AC68, symSize: 0x14 }
  - { offsetInCU: 0x1B6BB, offset: 0x3FDCE, size: 0x8, addend: 0x0, symName: __ZNKSt3__16vectorINS_10unique_ptrI9ComponentNS_14default_deleteIS2_EEEENS_9allocatorIS5_EEE31__annotate_contiguous_containerB8ue170006EPKvSA_SA_SA_, symObjAddr: 0x1D48, symBinAddr: 0x10000AC7C, symSize: 0x20 }
  - { offsetInCU: 0x1B70C, offset: 0x3FE1F, size: 0x8, addend: 0x0, symName: __ZNKSt3__16vectorINS_10unique_ptrI9ComponentNS_14default_deleteIS2_EEEENS_9allocatorIS5_EEE4dataB8ue170006Ev, symObjAddr: 0x1D68, symBinAddr: 0x10000AC9C, symSize: 0x28 }
  - { offsetInCU: 0x1B731, offset: 0x3FE44, size: 0x8, addend: 0x0, symName: __ZNKSt3__16vectorINS_10unique_ptrI9ComponentNS_14default_deleteIS2_EEEENS_9allocatorIS5_EEE4sizeB8ue170006Ev, symObjAddr: 0x1D90, symBinAddr: 0x10000ACC4, symSize: 0x28 }
  - { offsetInCU: 0x1B756, offset: 0x3FE69, size: 0x8, addend: 0x0, symName: __ZNSt3__19allocatorINS_10unique_ptrI9ComponentNS_14default_deleteIS2_EEEEE10deallocateB8ue170006EPS5_m, symObjAddr: 0x1DB8, symBinAddr: 0x10000ACEC, symSize: 0x40 }
  - { offsetInCU: 0x1B797, offset: 0x3FEAA, size: 0x8, addend: 0x0, symName: __ZNSt3__117__compressed_pairIPNS_10unique_ptrI9ComponentNS_14default_deleteIS2_EEEENS_9allocatorIS5_EEE6secondB8ue170006Ev, symObjAddr: 0x1F20, symBinAddr: 0x10000AD2C, symSize: 0x24 }
  - { offsetInCU: 0x1B7BC, offset: 0x3FECF, size: 0x8, addend: 0x0, symName: __ZNSt3__122__compressed_pair_elemINS_9allocatorINS_10unique_ptrI9ComponentNS_14default_deleteIS3_EEEEEELi1ELb1EE5__getB8ue170006Ev, symObjAddr: 0x1F44, symBinAddr: 0x10000AD50, symSize: 0x14 }
  - { offsetInCU: 0x1B7E1, offset: 0x3FEF4, size: 0x8, addend: 0x0, symName: __ZNKSt3__16vectorINS_10unique_ptrI9ComponentNS_14default_deleteIS2_EEEENS_9allocatorIS5_EEE9__end_capB8ue170006Ev, symObjAddr: 0x1F58, symBinAddr: 0x10000AD64, symSize: 0x28 }
  - { offsetInCU: 0x1B806, offset: 0x3FF19, size: 0x8, addend: 0x0, symName: __ZNKSt3__117__compressed_pairIPNS_10unique_ptrI9ComponentNS_14default_deleteIS2_EEEENS_9allocatorIS5_EEE5firstB8ue170006Ev, symObjAddr: 0x1F80, symBinAddr: 0x10000AD8C, symSize: 0x24 }
  - { offsetInCU: 0x1B82B, offset: 0x3FF3E, size: 0x8, addend: 0x0, symName: __ZNKSt3__122__compressed_pair_elemIPNS_10unique_ptrI9ComponentNS_14default_deleteIS2_EEEELi0ELb0EE5__getB8ue170006Ev, symObjAddr: 0x1FA4, symBinAddr: 0x10000ADB0, symSize: 0x14 }
  - { offsetInCU: 0x1B850, offset: 0x3FF63, size: 0x8, addend: 0x0, symName: __ZNKSt3__16vectorINS_10unique_ptrI6EntityNS_14default_deleteIS2_EEEENS_9allocatorIS5_EEE31__annotate_contiguous_containerB8ue170006EPKvSA_SA_SA_, symObjAddr: 0x1FB8, symBinAddr: 0x10000ADC4, symSize: 0x20 }
  - { offsetInCU: 0x1B8A1, offset: 0x3FFB4, size: 0x8, addend: 0x0, symName: __ZNKSt3__16vectorINS_10unique_ptrI6EntityNS_14default_deleteIS2_EEEENS_9allocatorIS5_EEE4dataB8ue170006Ev, symObjAddr: 0x1FD8, symBinAddr: 0x10000ADE4, symSize: 0x28 }
  - { offsetInCU: 0x1B8C6, offset: 0x3FFD9, size: 0x8, addend: 0x0, symName: __ZNKSt3__16vectorINS_10unique_ptrI6EntityNS_14default_deleteIS2_EEEENS_9allocatorIS5_EEE4sizeB8ue170006Ev, symObjAddr: 0x2000, symBinAddr: 0x10000AE0C, symSize: 0x28 }
  - { offsetInCU: 0x1B8EB, offset: 0x3FFFE, size: 0x8, addend: 0x0, symName: __ZNSt3__19allocatorINS_10unique_ptrI6EntityNS_14default_deleteIS2_EEEEE10deallocateB8ue170006EPS5_m, symObjAddr: 0x2028, symBinAddr: 0x10000AE34, symSize: 0x40 }
  - { offsetInCU: 0x1B92C, offset: 0x4003F, size: 0x8, addend: 0x0, symName: __ZNSt3__117__compressed_pairIPNS_10unique_ptrI6EntityNS_14default_deleteIS2_EEEENS_9allocatorIS5_EEE6secondB8ue170006Ev, symObjAddr: 0x2068, symBinAddr: 0x10000AE74, symSize: 0x24 }
  - { offsetInCU: 0x1B951, offset: 0x40064, size: 0x8, addend: 0x0, symName: __ZNSt3__122__compressed_pair_elemINS_9allocatorINS_10unique_ptrI6EntityNS_14default_deleteIS3_EEEEEELi1ELb1EE5__getB8ue170006Ev, symObjAddr: 0x208C, symBinAddr: 0x10000AE98, symSize: 0x14 }
  - { offsetInCU: 0x1B976, offset: 0x40089, size: 0x8, addend: 0x0, symName: __ZNKSt3__16vectorINS_10unique_ptrI6EntityNS_14default_deleteIS2_EEEENS_9allocatorIS5_EEE9__end_capB8ue170006Ev, symObjAddr: 0x20A0, symBinAddr: 0x10000AEAC, symSize: 0x28 }
  - { offsetInCU: 0x1B99B, offset: 0x400AE, size: 0x8, addend: 0x0, symName: __ZNKSt3__117__compressed_pairIPNS_10unique_ptrI6EntityNS_14default_deleteIS2_EEEENS_9allocatorIS5_EEE5firstB8ue170006Ev, symObjAddr: 0x20C8, symBinAddr: 0x10000AED4, symSize: 0x24 }
  - { offsetInCU: 0x1B9C0, offset: 0x400D3, size: 0x8, addend: 0x0, symName: __ZNKSt3__122__compressed_pair_elemIPNS_10unique_ptrI6EntityNS_14default_deleteIS2_EEEELi0ELb0EE5__getB8ue170006Ev, symObjAddr: 0x20EC, symBinAddr: 0x10000AEF8, symSize: 0x14 }
  - { offsetInCU: 0x1B9E5, offset: 0x400F8, size: 0x8, addend: 0x0, symName: __ZNSt3__15arrayINS_6vectorIP6EntityNS_9allocatorIS3_EEEELm32EED2Ev, symObjAddr: 0x2100, symBinAddr: 0x10000AF0C, symSize: 0x64 }
  - { offsetInCU: 0x1BA10, offset: 0x40123, size: 0x8, addend: 0x0, symName: __ZNSt3__16vectorIP6EntityNS_9allocatorIS2_EEED1B8ue170006Ev, symObjAddr: 0x2164, symBinAddr: 0x10000AF70, symSize: 0x2C }
  - { offsetInCU: 0x1BA39, offset: 0x4014C, size: 0x8, addend: 0x0, symName: __ZNSt3__16vectorIP6EntityNS_9allocatorIS2_EEED2B8ue170006Ev, symObjAddr: 0x2190, symBinAddr: 0x10000AF9C, symSize: 0x44 }
  - { offsetInCU: 0x1BA62, offset: 0x40175, size: 0x8, addend: 0x0, symName: __ZNSt3__16vectorIP6EntityNS_9allocatorIS2_EEE16__destroy_vectorC1B8ue170006ERS5_, symObjAddr: 0x21D4, symBinAddr: 0x10000AFE0, symSize: 0x34 }
  - { offsetInCU: 0x1BA9A, offset: 0x401AD, size: 0x8, addend: 0x0, symName: __ZNSt3__16vectorIP6EntityNS_9allocatorIS2_EEE16__destroy_vectorclB8ue170006Ev, symObjAddr: 0x2208, symBinAddr: 0x10000B014, symSize: 0x90 }
  - { offsetInCU: 0x1BABF, offset: 0x401D2, size: 0x8, addend: 0x0, symName: __ZNSt3__16vectorIP6EntityNS_9allocatorIS2_EEE16__destroy_vectorC2B8ue170006ERS5_, symObjAddr: 0x2298, symBinAddr: 0x10000B0A4, symSize: 0x20 }
  - { offsetInCU: 0x1BAF7, offset: 0x4020A, size: 0x8, addend: 0x0, symName: __ZNSt3__16vectorIP6EntityNS_9allocatorIS2_EEE7__clearB8ue170006Ev, symObjAddr: 0x22B8, symBinAddr: 0x10000B0C4, symSize: 0x28 }
  - { offsetInCU: 0x1BB1C, offset: 0x4022F, size: 0x8, addend: 0x0, symName: __ZNSt3__16vectorIP6EntityNS_9allocatorIS2_EEE22__base_destruct_at_endB8ue170006EPS2_, symObjAddr: 0x2434, symBinAddr: 0x10000B0EC, symSize: 0x8C }
  - { offsetInCU: 0x1BB5F, offset: 0x40272, size: 0x8, addend: 0x0, symName: __ZN12SceneManagerC2Ev, symObjAddr: 0x265C, symBinAddr: 0x10000B178, symSize: 0x30 }
  - { offsetInCU: 0x1BB88, offset: 0x4029B, size: 0x8, addend: 0x0, symName: __ZNSt3__113unordered_mapINS_12basic_stringIcNS_11char_traitsIcEENS_9allocatorIcEEEENS_10unique_ptrI5SceneNS_14default_deleteIS8_EEEENS_4hashIS6_EENS_8equal_toIS6_EENS4_INS_4pairIKS6_SB_EEEEEC1B8ue170006Ev, symObjAddr: 0x268C, symBinAddr: 0x10000B1A8, symSize: 0x2C }
  - { offsetInCU: 0x1BBB1, offset: 0x402C4, size: 0x8, addend: 0x0, symName: __ZNSt3__113unordered_mapINS_12basic_stringIcNS_11char_traitsIcEENS_9allocatorIcEEEENS_10unique_ptrI5SceneNS_14default_deleteIS8_EEEENS_4hashIS6_EENS_8equal_toIS6_EENS4_INS_4pairIKS6_SB_EEEEEC2B8ue170006Ev, symObjAddr: 0x26B8, symBinAddr: 0x10000B1D4, symSize: 0x2C }
  - { offsetInCU: 0x1BBDA, offset: 0x402ED, size: 0x8, addend: 0x0, symName: __ZNSt3__112__hash_tableINS_17__hash_value_typeINS_12basic_stringIcNS_11char_traitsIcEENS_9allocatorIcEEEENS_10unique_ptrI5SceneNS_14default_deleteIS9_EEEEEENS_22__unordered_map_hasherIS7_SD_NS_4hashIS7_EENS_8equal_toIS7_EELb1EEENS_21__unordered_map_equalIS7_SD_SI_SG_Lb1EEENS5_ISD_EEEC1Ev, symObjAddr: 0x26E4, symBinAddr: 0x10000B200, symSize: 0x2C }
  - { offsetInCU: 0x1BC05, offset: 0x40318, size: 0x8, addend: 0x0, symName: __ZNSt3__112__hash_tableINS_17__hash_value_typeINS_12basic_stringIcNS_11char_traitsIcEENS_9allocatorIcEEEENS_10unique_ptrI5SceneNS_14default_deleteIS9_EEEEEENS_22__unordered_map_hasherIS7_SD_NS_4hashIS7_EENS_8equal_toIS7_EELb1EEENS_21__unordered_map_equalIS7_SD_SI_SG_Lb1EEENS5_ISD_EEEC2Ev, symObjAddr: 0x2710, symBinAddr: 0x10000B22C, symSize: 0x7C }
  - { offsetInCU: 0x1BC30, offset: 0x40343, size: 0x8, addend: 0x0, symName: __ZNSt3__110unique_ptrIA_PNS_16__hash_node_baseIPNS_11__hash_nodeINS_17__hash_value_typeINS_12basic_stringIcNS_11char_traitsIcEENS_9allocatorIcEEEENS0_I5SceneNS_14default_deleteISA_EEEEEEPvEEEENS_25__bucket_list_deallocatorINS7_ISJ_EEEEEC1B8ue170006ILb1EvEEv, symObjAddr: 0x278C, symBinAddr: 0x10000B2A8, symSize: 0x2C }
  - { offsetInCU: 0x1BC64, offset: 0x40377, size: 0x8, addend: 0x0, symName: __ZNSt3__117__compressed_pairINS_16__hash_node_baseIPNS_11__hash_nodeINS_17__hash_value_typeINS_12basic_stringIcNS_11char_traitsIcEENS_9allocatorIcEEEENS_10unique_ptrI5SceneNS_14default_deleteISB_EEEEEEPvEEEENS7_ISH_EEEC1B8ue170006ILb1EvEEv, symObjAddr: 0x27B8, symBinAddr: 0x10000B2D4, symSize: 0x2C }
  - { offsetInCU: 0x1BC9D, offset: 0x403B0, size: 0x8, addend: 0x0, symName: __ZNSt3__117__compressed_pairImNS_22__unordered_map_hasherINS_12basic_stringIcNS_11char_traitsIcEENS_9allocatorIcEEEENS_17__hash_value_typeIS7_NS_10unique_ptrI5SceneNS_14default_deleteISA_EEEEEENS_4hashIS7_EENS_8equal_toIS7_EELb1EEEEC1B8ue170006IiNS_18__default_init_tagEEEOT_OT0_, symObjAddr: 0x27E4, symBinAddr: 0x10000B300, symSize: 0x3C }
  - { offsetInCU: 0x1BCF9, offset: 0x4040C, size: 0x8, addend: 0x0, symName: __ZNSt3__117__compressed_pairIfNS_21__unordered_map_equalINS_12basic_stringIcNS_11char_traitsIcEENS_9allocatorIcEEEENS_17__hash_value_typeIS7_NS_10unique_ptrI5SceneNS_14default_deleteISA_EEEEEENS_8equal_toIS7_EENS_4hashIS7_EELb1EEEEC1B8ue170006IfNS_18__default_init_tagEEEOT_OT0_, symObjAddr: 0x2820, symBinAddr: 0x10000B33C, symSize: 0x3C }
  - { offsetInCU: 0x1BD50, offset: 0x40463, size: 0x8, addend: 0x0, symName: __ZNSt3__110unique_ptrIA_PNS_16__hash_node_baseIPNS_11__hash_nodeINS_17__hash_value_typeINS_12basic_stringIcNS_11char_traitsIcEENS_9allocatorIcEEEENS0_I5SceneNS_14default_deleteISA_EEEEEEPvEEEENS_25__bucket_list_deallocatorINS7_ISJ_EEEEEC2B8ue170006ILb1EvEEv, symObjAddr: 0x285C, symBinAddr: 0x10000B378, symSize: 0x3C }
  - { offsetInCU: 0x1BD89, offset: 0x4049C, size: 0x8, addend: 0x0, symName: __ZNSt3__117__compressed_pairIPPNS_16__hash_node_baseIPNS_11__hash_nodeINS_17__hash_value_typeINS_12basic_stringIcNS_11char_traitsIcEENS_9allocatorIcEEEENS_10unique_ptrI5SceneNS_14default_deleteISB_EEEEEEPvEEEENS_25__bucket_list_deallocatorINS7_ISK_EEEEEC1B8ue170006INS_16__value_init_tagESR_EEOT_OT0_, symObjAddr: 0x2898, symBinAddr: 0x10000B3B4, symSize: 0x3C }
  - { offsetInCU: 0x1BDE0, offset: 0x404F3, size: 0x8, addend: 0x0, symName: __ZNSt3__117__compressed_pairIPPNS_16__hash_node_baseIPNS_11__hash_nodeINS_17__hash_value_typeINS_12basic_stringIcNS_11char_traitsIcEENS_9allocatorIcEEEENS_10unique_ptrI5SceneNS_14default_deleteISB_EEEEEEPvEEEENS_25__bucket_list_deallocatorINS7_ISK_EEEEEC2B8ue170006INS_16__value_init_tagESR_EEOT_OT0_, symObjAddr: 0x28D4, symBinAddr: 0x10000B3F0, symSize: 0x40 }
  - { offsetInCU: 0x1BE37, offset: 0x4054A, size: 0x8, addend: 0x0, symName: __ZNSt3__122__compressed_pair_elemIPPNS_16__hash_node_baseIPNS_11__hash_nodeINS_17__hash_value_typeINS_12basic_stringIcNS_11char_traitsIcEENS_9allocatorIcEEEENS_10unique_ptrI5SceneNS_14default_deleteISB_EEEEEEPvEEEELi0ELb0EEC2B8ue170006ENS_16__value_init_tagE, symObjAddr: 0x2914, symBinAddr: 0x10000B430, symSize: 0x18 }
  - { offsetInCU: 0x1BE6B, offset: 0x4057E, size: 0x8, addend: 0x0, symName: __ZNSt3__122__compressed_pair_elemINS_25__bucket_list_deallocatorINS_9allocatorIPNS_16__hash_node_baseIPNS_11__hash_nodeINS_17__hash_value_typeINS_12basic_stringIcNS_11char_traitsIcEENS2_IcEEEENS_10unique_ptrI5SceneNS_14default_deleteISC_EEEEEEPvEEEEEEEELi1ELb0EEC2B8ue170006ENS_16__value_init_tagE, symObjAddr: 0x292C, symBinAddr: 0x10000B448, symSize: 0x2C }
  - { offsetInCU: 0x1BE9F, offset: 0x405B2, size: 0x8, addend: 0x0, symName: __ZNSt3__125__bucket_list_deallocatorINS_9allocatorIPNS_16__hash_node_baseIPNS_11__hash_nodeINS_17__hash_value_typeINS_12basic_stringIcNS_11char_traitsIcEENS1_IcEEEENS_10unique_ptrI5SceneNS_14default_deleteISB_EEEEEEPvEEEEEEEC1B8ue170006Ev, symObjAddr: 0x2958, symBinAddr: 0x10000B474, symSize: 0x2C }
  - { offsetInCU: 0x1BEC8, offset: 0x405DB, size: 0x8, addend: 0x0, symName: __ZNSt3__125__bucket_list_deallocatorINS_9allocatorIPNS_16__hash_node_baseIPNS_11__hash_nodeINS_17__hash_value_typeINS_12basic_stringIcNS_11char_traitsIcEENS1_IcEEEENS_10unique_ptrI5SceneNS_14default_deleteISB_EEEEEEPvEEEEEEEC2B8ue170006Ev, symObjAddr: 0x2984, symBinAddr: 0x10000B4A0, symSize: 0x40 }
  - { offsetInCU: 0x1BEF1, offset: 0x40604, size: 0x8, addend: 0x0, symName: __ZNSt3__117__compressed_pairImNS_9allocatorIPNS_16__hash_node_baseIPNS_11__hash_nodeINS_17__hash_value_typeINS_12basic_stringIcNS_11char_traitsIcEENS1_IcEEEENS_10unique_ptrI5SceneNS_14default_deleteISB_EEEEEEPvEEEEEEEC1B8ue170006IiNS_18__default_init_tagEEEOT_OT0_, symObjAddr: 0x29C4, symBinAddr: 0x10000B4E0, symSize: 0x3C }
  - { offsetInCU: 0x1BF48, offset: 0x4065B, size: 0x8, addend: 0x0, symName: __ZNSt3__117__compressed_pairImNS_9allocatorIPNS_16__hash_node_baseIPNS_11__hash_nodeINS_17__hash_value_typeINS_12basic_stringIcNS_11char_traitsIcEENS1_IcEEEENS_10unique_ptrI5SceneNS_14default_deleteISB_EEEEEEPvEEEEEEEC2B8ue170006IiNS_18__default_init_tagEEEOT_OT0_, symObjAddr: 0x2A00, symBinAddr: 0x10000B51C, symSize: 0x40 }
  - { offsetInCU: 0x1BF9F, offset: 0x406B2, size: 0x8, addend: 0x0, symName: __ZNSt3__122__compressed_pair_elemINS_9allocatorIPNS_16__hash_node_baseIPNS_11__hash_nodeINS_17__hash_value_typeINS_12basic_stringIcNS_11char_traitsIcEENS1_IcEEEENS_10unique_ptrI5SceneNS_14default_deleteISB_EEEEEEPvEEEEEELi1ELb1EEC2B8ue170006ENS_18__default_init_tagE, symObjAddr: 0x2A64, symBinAddr: 0x10000B55C, symSize: 0x2C }
  - { offsetInCU: 0x1BFD3, offset: 0x406E6, size: 0x8, addend: 0x0, symName: __ZNSt3__19allocatorIPNS_16__hash_node_baseIPNS_11__hash_nodeINS_17__hash_value_typeINS_12basic_stringIcNS_11char_traitsIcEENS0_IcEEEENS_10unique_ptrI5SceneNS_14default_deleteISA_EEEEEEPvEEEEEC2B8ue170006Ev, symObjAddr: 0x2A90, symBinAddr: 0x10000B588, symSize: 0x2C }
  - { offsetInCU: 0x1BFFC, offset: 0x4070F, size: 0x8, addend: 0x0, symName: __ZNSt3__116__non_trivial_ifILb1ENS_9allocatorIPNS_16__hash_node_baseIPNS_11__hash_nodeINS_17__hash_value_typeINS_12basic_stringIcNS_11char_traitsIcEENS1_IcEEEENS_10unique_ptrI5SceneNS_14default_deleteISB_EEEEEEPvEEEEEEEC2B8ue170006Ev, symObjAddr: 0x2ABC, symBinAddr: 0x10000B5B4, symSize: 0x14 }
  - { offsetInCU: 0x1C025, offset: 0x40738, size: 0x8, addend: 0x0, symName: __ZNSt3__117__compressed_pairINS_16__hash_node_baseIPNS_11__hash_nodeINS_17__hash_value_typeINS_12basic_stringIcNS_11char_traitsIcEENS_9allocatorIcEEEENS_10unique_ptrI5SceneNS_14default_deleteISB_EEEEEEPvEEEENS7_ISH_EEEC2B8ue170006ILb1EvEEv, symObjAddr: 0x2AD0, symBinAddr: 0x10000B5C8, symSize: 0x34 }
  - { offsetInCU: 0x1C059, offset: 0x4076C, size: 0x8, addend: 0x0, symName: __ZNSt3__122__compressed_pair_elemINS_16__hash_node_baseIPNS_11__hash_nodeINS_17__hash_value_typeINS_12basic_stringIcNS_11char_traitsIcEENS_9allocatorIcEEEENS_10unique_ptrI5SceneNS_14default_deleteISB_EEEEEEPvEEEELi0ELb0EEC2B8ue170006ENS_16__value_init_tagE, symObjAddr: 0x2B04, symBinAddr: 0x10000B5FC, symSize: 0x2C }
  - { offsetInCU: 0x1C08D, offset: 0x407A0, size: 0x8, addend: 0x0, symName: __ZNSt3__122__compressed_pair_elemINS_9allocatorINS_11__hash_nodeINS_17__hash_value_typeINS_12basic_stringIcNS_11char_traitsIcEENS1_IcEEEENS_10unique_ptrI5SceneNS_14default_deleteISA_EEEEEEPvEEEELi1ELb1EEC2B8ue170006ENS_16__value_init_tagE, symObjAddr: 0x2B30, symBinAddr: 0x10000B628, symSize: 0x2C }
  - { offsetInCU: 0x1C0C1, offset: 0x407D4, size: 0x8, addend: 0x0, symName: __ZNSt3__116__hash_node_baseIPNS_11__hash_nodeINS_17__hash_value_typeINS_12basic_stringIcNS_11char_traitsIcEENS_9allocatorIcEEEENS_10unique_ptrI5SceneNS_14default_deleteISA_EEEEEEPvEEEC1B8ue170006Ev, symObjAddr: 0x2B5C, symBinAddr: 0x10000B654, symSize: 0x2C }
  - { offsetInCU: 0x1C0EA, offset: 0x407FD, size: 0x8, addend: 0x0, symName: __ZNSt3__116__hash_node_baseIPNS_11__hash_nodeINS_17__hash_value_typeINS_12basic_stringIcNS_11char_traitsIcEENS_9allocatorIcEEEENS_10unique_ptrI5SceneNS_14default_deleteISA_EEEEEEPvEEEC2B8ue170006Ev, symObjAddr: 0x2B88, symBinAddr: 0x10000B680, symSize: 0x18 }
  - { offsetInCU: 0x1C113, offset: 0x40826, size: 0x8, addend: 0x0, symName: __ZNSt3__19allocatorINS_11__hash_nodeINS_17__hash_value_typeINS_12basic_stringIcNS_11char_traitsIcEENS0_IcEEEENS_10unique_ptrI5SceneNS_14default_deleteIS9_EEEEEEPvEEEC2B8ue170006Ev, symObjAddr: 0x2BA0, symBinAddr: 0x10000B698, symSize: 0x2C }
  - { offsetInCU: 0x1C13C, offset: 0x4084F, size: 0x8, addend: 0x0, symName: __ZNSt3__116__non_trivial_ifILb1ENS_9allocatorINS_11__hash_nodeINS_17__hash_value_typeINS_12basic_stringIcNS_11char_traitsIcEENS1_IcEEEENS_10unique_ptrI5SceneNS_14default_deleteISA_EEEEEEPvEEEEEC2B8ue170006Ev, symObjAddr: 0x2BCC, symBinAddr: 0x10000B6C4, symSize: 0x14 }
  - { offsetInCU: 0x1C165, offset: 0x40878, size: 0x8, addend: 0x0, symName: __ZNSt3__117__compressed_pairImNS_22__unordered_map_hasherINS_12basic_stringIcNS_11char_traitsIcEENS_9allocatorIcEEEENS_17__hash_value_typeIS7_NS_10unique_ptrI5SceneNS_14default_deleteISA_EEEEEENS_4hashIS7_EENS_8equal_toIS7_EELb1EEEEC2B8ue170006IiNS_18__default_init_tagEEEOT_OT0_, symObjAddr: 0x2BE0, symBinAddr: 0x10000B6D8, symSize: 0x40 }
  - { offsetInCU: 0x1C1BC, offset: 0x408CF, size: 0x8, addend: 0x0, symName: __ZNSt3__122__compressed_pair_elemINS_22__unordered_map_hasherINS_12basic_stringIcNS_11char_traitsIcEENS_9allocatorIcEEEENS_17__hash_value_typeIS7_NS_10unique_ptrI5SceneNS_14default_deleteISA_EEEEEENS_4hashIS7_EENS_8equal_toIS7_EELb1EEELi1ELb1EEC2B8ue170006ENS_18__default_init_tagE, symObjAddr: 0x2C20, symBinAddr: 0x10000B718, symSize: 0x2C }
  - { offsetInCU: 0x1C1F0, offset: 0x40903, size: 0x8, addend: 0x0, symName: __ZNSt3__122__unordered_map_hasherINS_12basic_stringIcNS_11char_traitsIcEENS_9allocatorIcEEEENS_17__hash_value_typeIS6_NS_10unique_ptrI5SceneNS_14default_deleteIS9_EEEEEENS_4hashIS6_EENS_8equal_toIS6_EELb1EEC2B8ue170006Ev, symObjAddr: 0x2C4C, symBinAddr: 0x10000B744, symSize: 0x14 }
  - { offsetInCU: 0x1C219, offset: 0x4092C, size: 0x8, addend: 0x0, symName: __ZNSt3__117__compressed_pairIfNS_21__unordered_map_equalINS_12basic_stringIcNS_11char_traitsIcEENS_9allocatorIcEEEENS_17__hash_value_typeIS7_NS_10unique_ptrI5SceneNS_14default_deleteISA_EEEEEENS_8equal_toIS7_EENS_4hashIS7_EELb1EEEEC2B8ue170006IfNS_18__default_init_tagEEEOT_OT0_, symObjAddr: 0x2C60, symBinAddr: 0x10000B758, symSize: 0x40 }
  - { offsetInCU: 0x1C270, offset: 0x40983, size: 0x8, addend: 0x0, symName: __ZNSt3__122__compressed_pair_elemINS_21__unordered_map_equalINS_12basic_stringIcNS_11char_traitsIcEENS_9allocatorIcEEEENS_17__hash_value_typeIS7_NS_10unique_ptrI5SceneNS_14default_deleteISA_EEEEEENS_8equal_toIS7_EENS_4hashIS7_EELb1EEELi1ELb1EEC2B8ue170006ENS_18__default_init_tagE, symObjAddr: 0x2CC4, symBinAddr: 0x10000B798, symSize: 0x2C }
  - { offsetInCU: 0x1C2A4, offset: 0x409B7, size: 0x8, addend: 0x0, symName: __ZNSt3__121__unordered_map_equalINS_12basic_stringIcNS_11char_traitsIcEENS_9allocatorIcEEEENS_17__hash_value_typeIS6_NS_10unique_ptrI5SceneNS_14default_deleteIS9_EEEEEENS_8equal_toIS6_EENS_4hashIS6_EELb1EEC2B8ue170006Ev, symObjAddr: 0x2CF0, symBinAddr: 0x10000B7C4, symSize: 0x14 }
  - { offsetInCU: 0x1C2CD, offset: 0x409E0, size: 0x8, addend: 0x0, symName: __ZN12SceneManagerD2Ev, symObjAddr: 0x2D04, symBinAddr: 0x10000B7D8, symSize: 0x2C }
  - { offsetInCU: 0x1C2F6, offset: 0x40A09, size: 0x8, addend: 0x0, symName: __ZNSt3__113unordered_mapINS_12basic_stringIcNS_11char_traitsIcEENS_9allocatorIcEEEENS_10unique_ptrI5SceneNS_14default_deleteIS8_EEEENS_4hashIS6_EENS_8equal_toIS6_EENS4_INS_4pairIKS6_SB_EEEEED1B8ue170006Ev, symObjAddr: 0x2D30, symBinAddr: 0x10000B804, symSize: 0x2C }
  - { offsetInCU: 0x1C31F, offset: 0x40A32, size: 0x8, addend: 0x0, symName: __ZNSt3__113unordered_mapINS_12basic_stringIcNS_11char_traitsIcEENS_9allocatorIcEEEENS_10unique_ptrI5SceneNS_14default_deleteIS8_EEEENS_4hashIS6_EENS_8equal_toIS6_EENS4_INS_4pairIKS6_SB_EEEEED2B8ue170006Ev, symObjAddr: 0x2D5C, symBinAddr: 0x10000B830, symSize: 0x2C }
  - { offsetInCU: 0x1C348, offset: 0x40A5B, size: 0x8, addend: 0x0, symName: __ZNSt3__112__hash_tableINS_17__hash_value_typeINS_12basic_stringIcNS_11char_traitsIcEENS_9allocatorIcEEEENS_10unique_ptrI5SceneNS_14default_deleteIS9_EEEEEENS_22__unordered_map_hasherIS7_SD_NS_4hashIS7_EENS_8equal_toIS7_EELb1EEENS_21__unordered_map_equalIS7_SD_SI_SG_Lb1EEENS5_ISD_EEED1Ev, symObjAddr: 0x2D88, symBinAddr: 0x10000B85C, symSize: 0x2C }
  - { offsetInCU: 0x1C373, offset: 0x40A86, size: 0x8, addend: 0x0, symName: __ZNSt3__112__hash_tableINS_17__hash_value_typeINS_12basic_stringIcNS_11char_traitsIcEENS_9allocatorIcEEEENS_10unique_ptrI5SceneNS_14default_deleteIS9_EEEEEENS_22__unordered_map_hasherIS7_SD_NS_4hashIS7_EENS_8equal_toIS7_EELb1EEENS_21__unordered_map_equalIS7_SD_SI_SG_Lb1EEENS5_ISD_EEED2Ev, symObjAddr: 0x2DB4, symBinAddr: 0x10000B888, symSize: 0x48 }
  - { offsetInCU: 0x1C39E, offset: 0x40AB1, size: 0x8, addend: 0x0, symName: __ZNSt3__112__hash_tableINS_17__hash_value_typeINS_12basic_stringIcNS_11char_traitsIcEENS_9allocatorIcEEEENS_10unique_ptrI5SceneNS_14default_deleteIS9_EEEEEENS_22__unordered_map_hasherIS7_SD_NS_4hashIS7_EENS_8equal_toIS7_EELb1EEENS_21__unordered_map_equalIS7_SD_SI_SG_Lb1EEENS5_ISD_EEE17__deallocate_nodeEPNS_16__hash_node_baseIPNS_11__hash_nodeISD_PvEEEE, symObjAddr: 0x2DFC, symBinAddr: 0x10000B8D0, symSize: 0xA8 }
  - { offsetInCU: 0x1C407, offset: 0x40B1A, size: 0x8, addend: 0x0, symName: __ZNSt3__117__compressed_pairINS_16__hash_node_baseIPNS_11__hash_nodeINS_17__hash_value_typeINS_12basic_stringIcNS_11char_traitsIcEENS_9allocatorIcEEEENS_10unique_ptrI5SceneNS_14default_deleteISB_EEEEEEPvEEEENS7_ISH_EEE5firstB8ue170006Ev, symObjAddr: 0x2EA4, symBinAddr: 0x10000B978, symSize: 0x24 }
  - { offsetInCU: 0x1C42C, offset: 0x40B3F, size: 0x8, addend: 0x0, symName: __ZNSt3__110unique_ptrIA_PNS_16__hash_node_baseIPNS_11__hash_nodeINS_17__hash_value_typeINS_12basic_stringIcNS_11char_traitsIcEENS_9allocatorIcEEEENS0_I5SceneNS_14default_deleteISA_EEEEEEPvEEEENS_25__bucket_list_deallocatorINS7_ISJ_EEEEED1B8ue170006Ev, symObjAddr: 0x2EC8, symBinAddr: 0x10000B99C, symSize: 0x2C }
  - { offsetInCU: 0x1C455, offset: 0x40B68, size: 0x8, addend: 0x0, symName: __ZNSt3__112__hash_tableINS_17__hash_value_typeINS_12basic_stringIcNS_11char_traitsIcEENS_9allocatorIcEEEENS_10unique_ptrI5SceneNS_14default_deleteIS9_EEEEEENS_22__unordered_map_hasherIS7_SD_NS_4hashIS7_EENS_8equal_toIS7_EELb1EEENS_21__unordered_map_equalIS7_SD_SI_SG_Lb1EEENS5_ISD_EEE12__node_allocB8ue170006Ev, symObjAddr: 0x2EF4, symBinAddr: 0x10000B9C8, symSize: 0x28 }
  - { offsetInCU: 0x1C47A, offset: 0x40B8D, size: 0x8, addend: 0x0, symName: __ZNSt3__116__hash_node_baseIPNS_11__hash_nodeINS_17__hash_value_typeINS_12basic_stringIcNS_11char_traitsIcEENS_9allocatorIcEEEENS_10unique_ptrI5SceneNS_14default_deleteISA_EEEEEEPvEEE8__upcastB8ue170006Ev, symObjAddr: 0x2F1C, symBinAddr: 0x10000B9F0, symSize: 0x24 }
  - { offsetInCU: 0x1C4A4, offset: 0x40BB7, size: 0x8, addend: 0x0, symName: __ZNSt3__116allocator_traitsINS_9allocatorINS_11__hash_nodeINS_17__hash_value_typeINS_12basic_stringIcNS_11char_traitsIcEENS1_IcEEEENS_10unique_ptrI5SceneNS_14default_deleteISA_EEEEEEPvEEEEE7destroyB8ue170006INS_4pairIKS8_SD_EEvvEEvRSH_PT_, symObjAddr: 0x2F40, symBinAddr: 0x10000BA14, symSize: 0x28 }
  - { offsetInCU: 0x1C4DE, offset: 0x40BF1, size: 0x8, addend: 0x0, symName: __ZNSt3__122__hash_key_value_typesINS_17__hash_value_typeINS_12basic_stringIcNS_11char_traitsIcEENS_9allocatorIcEEEENS_10unique_ptrI5SceneNS_14default_deleteIS9_EEEEEEE9__get_ptrB8ue170006ERSD_, symObjAddr: 0x2F68, symBinAddr: 0x10000BA3C, symSize: 0x24 }
  - { offsetInCU: 0x1C501, offset: 0x40C14, size: 0x8, addend: 0x0, symName: __ZNSt3__116allocator_traitsINS_9allocatorINS_11__hash_nodeINS_17__hash_value_typeINS_12basic_stringIcNS_11char_traitsIcEENS1_IcEEEENS_10unique_ptrI5SceneNS_14default_deleteISA_EEEEEEPvEEEEE10deallocateB8ue170006ERSH_PSG_m, symObjAddr: 0x2F8C, symBinAddr: 0x10000BA60, symSize: 0x34 }
  - { offsetInCU: 0x1C543, offset: 0x40C56, size: 0x8, addend: 0x0, symName: __ZNSt3__117__compressed_pairINS_16__hash_node_baseIPNS_11__hash_nodeINS_17__hash_value_typeINS_12basic_stringIcNS_11char_traitsIcEENS_9allocatorIcEEEENS_10unique_ptrI5SceneNS_14default_deleteISB_EEEEEEPvEEEENS7_ISH_EEE6secondB8ue170006Ev, symObjAddr: 0x2FC0, symBinAddr: 0x10000BA94, symSize: 0x24 }
  - { offsetInCU: 0x1C568, offset: 0x40C7B, size: 0x8, addend: 0x0, symName: __ZNSt3__122__compressed_pair_elemINS_9allocatorINS_11__hash_nodeINS_17__hash_value_typeINS_12basic_stringIcNS_11char_traitsIcEENS1_IcEEEENS_10unique_ptrI5SceneNS_14default_deleteISA_EEEEEEPvEEEELi1ELb1EE5__getB8ue170006Ev, symObjAddr: 0x2FE4, symBinAddr: 0x10000BAB8, symSize: 0x14 }
  - { offsetInCU: 0x1C58D, offset: 0x40CA0, size: 0x8, addend: 0x0, symName: __ZNSt3__114pointer_traitsIPNS_16__hash_node_baseIPNS_11__hash_nodeINS_17__hash_value_typeINS_12basic_stringIcNS_11char_traitsIcEENS_9allocatorIcEEEENS_10unique_ptrI5SceneNS_14default_deleteISB_EEEEEEPvEEEEE10pointer_toB8ue170006ERSJ_, symObjAddr: 0x2FF8, symBinAddr: 0x10000BACC, symSize: 0x14 }
  - { offsetInCU: 0x1C5B0, offset: 0x40CC3, size: 0x8, addend: 0x0, symName: __ZNSt3__14pairIKNS_12basic_stringIcNS_11char_traitsIcEENS_9allocatorIcEEEENS_10unique_ptrI5SceneNS_14default_deleteIS9_EEEEED1Ev, symObjAddr: 0x300C, symBinAddr: 0x10000BAE0, symSize: 0x2C }
  - { offsetInCU: 0x1C5DB, offset: 0x40CEE, size: 0x8, addend: 0x0, symName: __ZNSt3__14pairIKNS_12basic_stringIcNS_11char_traitsIcEENS_9allocatorIcEEEENS_10unique_ptrI5SceneNS_14default_deleteIS9_EEEEED2Ev, symObjAddr: 0x3038, symBinAddr: 0x10000BB0C, symSize: 0x38 }
  - { offsetInCU: 0x1C606, offset: 0x40D19, size: 0x8, addend: 0x0, symName: __ZNSt3__110unique_ptrI5SceneNS_14default_deleteIS1_EEED1B8ue170006Ev, symObjAddr: 0x3070, symBinAddr: 0x10000BB44, symSize: 0x2C }
  - { offsetInCU: 0x1C62F, offset: 0x40D42, size: 0x8, addend: 0x0, symName: __ZNSt3__110unique_ptrI5SceneNS_14default_deleteIS1_EEED2B8ue170006Ev, symObjAddr: 0x309C, symBinAddr: 0x10000BB70, symSize: 0x30 }
  - { offsetInCU: 0x1C658, offset: 0x40D6B, size: 0x8, addend: 0x0, symName: __ZNSt3__110unique_ptrI5SceneNS_14default_deleteIS1_EEE5resetB8ue170006EPS1_, symObjAddr: 0x30CC, symBinAddr: 0x10000BBA0, symSize: 0x78 }
  - { offsetInCU: 0x1C69B, offset: 0x40DAE, size: 0x8, addend: 0x0, symName: __ZNSt3__117__compressed_pairIP5SceneNS_14default_deleteIS1_EEE5firstB8ue170006Ev, symObjAddr: 0x3144, symBinAddr: 0x10000BC18, symSize: 0x24 }
  - { offsetInCU: 0x1C6C0, offset: 0x40DD3, size: 0x8, addend: 0x0, symName: __ZNSt3__117__compressed_pairIP5SceneNS_14default_deleteIS1_EEE6secondB8ue170006Ev, symObjAddr: 0x3168, symBinAddr: 0x10000BC3C, symSize: 0x24 }
  - { offsetInCU: 0x1C6E5, offset: 0x40DF8, size: 0x8, addend: 0x0, symName: __ZNKSt3__114default_deleteI5SceneEclB8ue170006EPS1_, symObjAddr: 0x318C, symBinAddr: 0x10000BC60, symSize: 0x4C }
  - { offsetInCU: 0x1C718, offset: 0x40E2B, size: 0x8, addend: 0x0, symName: __ZNSt3__122__compressed_pair_elemIP5SceneLi0ELb0EE5__getB8ue170006Ev, symObjAddr: 0x31D8, symBinAddr: 0x10000BCAC, symSize: 0x14 }
  - { offsetInCU: 0x1C73D, offset: 0x40E50, size: 0x8, addend: 0x0, symName: __ZNSt3__122__compressed_pair_elemINS_14default_deleteI5SceneEELi1ELb1EE5__getB8ue170006Ev, symObjAddr: 0x31EC, symBinAddr: 0x10000BCC0, symSize: 0x14 }
  - { offsetInCU: 0x1C762, offset: 0x40E75, size: 0x8, addend: 0x0, symName: __ZNSt3__117__hash_value_typeINS_12basic_stringIcNS_11char_traitsIcEENS_9allocatorIcEEEENS_10unique_ptrI5SceneNS_14default_deleteIS8_EEEEE11__get_valueB8ue170006Ev, symObjAddr: 0x3200, symBinAddr: 0x10000BCD4, symSize: 0x24 }
  - { offsetInCU: 0x1C787, offset: 0x40E9A, size: 0x8, addend: 0x0, symName: __ZNSt3__19allocatorINS_11__hash_nodeINS_17__hash_value_typeINS_12basic_stringIcNS_11char_traitsIcEENS0_IcEEEENS_10unique_ptrI5SceneNS_14default_deleteIS9_EEEEEEPvEEE10deallocateB8ue170006EPSF_m, symObjAddr: 0x325C, symBinAddr: 0x10000BD30, symSize: 0x44 }
  - { offsetInCU: 0x1C7C8, offset: 0x40EDB, size: 0x8, addend: 0x0, symName: __ZNSt3__122__compressed_pair_elemINS_16__hash_node_baseIPNS_11__hash_nodeINS_17__hash_value_typeINS_12basic_stringIcNS_11char_traitsIcEENS_9allocatorIcEEEENS_10unique_ptrI5SceneNS_14default_deleteISB_EEEEEEPvEEEELi0ELb0EE5__getB8ue170006Ev, symObjAddr: 0x32A0, symBinAddr: 0x10000BD74, symSize: 0x14 }
  - { offsetInCU: 0x1C7ED, offset: 0x40F00, size: 0x8, addend: 0x0, symName: __ZNSt3__110unique_ptrIA_PNS_16__hash_node_baseIPNS_11__hash_nodeINS_17__hash_value_typeINS_12basic_stringIcNS_11char_traitsIcEENS_9allocatorIcEEEENS0_I5SceneNS_14default_deleteISA_EEEEEEPvEEEENS_25__bucket_list_deallocatorINS7_ISJ_EEEEED2B8ue170006Ev, symObjAddr: 0x32B4, symBinAddr: 0x10000BD88, symSize: 0x30 }
  - { offsetInCU: 0x1C816, offset: 0x40F29, size: 0x8, addend: 0x0, symName: __ZNSt3__110unique_ptrIA_PNS_16__hash_node_baseIPNS_11__hash_nodeINS_17__hash_value_typeINS_12basic_stringIcNS_11char_traitsIcEENS_9allocatorIcEEEENS0_I5SceneNS_14default_deleteISA_EEEEEEPvEEEENS_25__bucket_list_deallocatorINS7_ISJ_EEEEE5resetB8ue170006EDn, symObjAddr: 0x32E4, symBinAddr: 0x10000BDB8, symSize: 0x6C }
  - { offsetInCU: 0x1C855, offset: 0x40F68, size: 0x8, addend: 0x0, symName: __ZNSt3__117__compressed_pairIPPNS_16__hash_node_baseIPNS_11__hash_nodeINS_17__hash_value_typeINS_12basic_stringIcNS_11char_traitsIcEENS_9allocatorIcEEEENS_10unique_ptrI5SceneNS_14default_deleteISB_EEEEEEPvEEEENS_25__bucket_list_deallocatorINS7_ISK_EEEEE5firstB8ue170006Ev, symObjAddr: 0x3350, symBinAddr: 0x10000BE24, symSize: 0x24 }
  - { offsetInCU: 0x1C87A, offset: 0x40F8D, size: 0x8, addend: 0x0, symName: __ZNSt3__117__compressed_pairIPPNS_16__hash_node_baseIPNS_11__hash_nodeINS_17__hash_value_typeINS_12basic_stringIcNS_11char_traitsIcEENS_9allocatorIcEEEENS_10unique_ptrI5SceneNS_14default_deleteISB_EEEEEEPvEEEENS_25__bucket_list_deallocatorINS7_ISK_EEEEE6secondB8ue170006Ev, symObjAddr: 0x3374, symBinAddr: 0x10000BE48, symSize: 0x28 }
  - { offsetInCU: 0x1C89F, offset: 0x40FB2, size: 0x8, addend: 0x0, symName: __ZNSt3__125__bucket_list_deallocatorINS_9allocatorIPNS_16__hash_node_baseIPNS_11__hash_nodeINS_17__hash_value_typeINS_12basic_stringIcNS_11char_traitsIcEENS1_IcEEEENS_10unique_ptrI5SceneNS_14default_deleteISB_EEEEEEPvEEEEEEEclB8ue170006EPSK_, symObjAddr: 0x339C, symBinAddr: 0x10000BE70, symSize: 0x58 }
  - { offsetInCU: 0x1C8D3, offset: 0x40FE6, size: 0x8, addend: 0x0, symName: __ZNSt3__122__compressed_pair_elemIPPNS_16__hash_node_baseIPNS_11__hash_nodeINS_17__hash_value_typeINS_12basic_stringIcNS_11char_traitsIcEENS_9allocatorIcEEEENS_10unique_ptrI5SceneNS_14default_deleteISB_EEEEEEPvEEEELi0ELb0EE5__getB8ue170006Ev, symObjAddr: 0x33F4, symBinAddr: 0x10000BEC8, symSize: 0x14 }
  - { offsetInCU: 0x1C8F8, offset: 0x4100B, size: 0x8, addend: 0x0, symName: __ZNSt3__122__compressed_pair_elemINS_25__bucket_list_deallocatorINS_9allocatorIPNS_16__hash_node_baseIPNS_11__hash_nodeINS_17__hash_value_typeINS_12basic_stringIcNS_11char_traitsIcEENS2_IcEEEENS_10unique_ptrI5SceneNS_14default_deleteISC_EEEEEEPvEEEEEEEELi1ELb0EE5__getB8ue170006Ev, symObjAddr: 0x3408, symBinAddr: 0x10000BEDC, symSize: 0x14 }
  - { offsetInCU: 0x1C91D, offset: 0x41030, size: 0x8, addend: 0x0, symName: __ZNSt3__116allocator_traitsINS_9allocatorIPNS_16__hash_node_baseIPNS_11__hash_nodeINS_17__hash_value_typeINS_12basic_stringIcNS_11char_traitsIcEENS1_IcEEEENS_10unique_ptrI5SceneNS_14default_deleteISB_EEEEEEPvEEEEEEE10deallocateB8ue170006ERSL_PSK_m, symObjAddr: 0x341C, symBinAddr: 0x10000BEF0, symSize: 0x34 }
  - { offsetInCU: 0x1C95F, offset: 0x41072, size: 0x8, addend: 0x0, symName: __ZNSt3__125__bucket_list_deallocatorINS_9allocatorIPNS_16__hash_node_baseIPNS_11__hash_nodeINS_17__hash_value_typeINS_12basic_stringIcNS_11char_traitsIcEENS1_IcEEEENS_10unique_ptrI5SceneNS_14default_deleteISB_EEEEEEPvEEEEEEE7__allocB8ue170006Ev, symObjAddr: 0x3450, symBinAddr: 0x10000BF24, symSize: 0x24 }
  - { offsetInCU: 0x1C984, offset: 0x41097, size: 0x8, addend: 0x0, symName: __ZNSt3__125__bucket_list_deallocatorINS_9allocatorIPNS_16__hash_node_baseIPNS_11__hash_nodeINS_17__hash_value_typeINS_12basic_stringIcNS_11char_traitsIcEENS1_IcEEEENS_10unique_ptrI5SceneNS_14default_deleteISB_EEEEEEPvEEEEEEE4sizeB8ue170006Ev, symObjAddr: 0x3474, symBinAddr: 0x10000BF48, symSize: 0x24 }
  - { offsetInCU: 0x1C9A9, offset: 0x410BC, size: 0x8, addend: 0x0, symName: __ZNSt3__19allocatorIPNS_16__hash_node_baseIPNS_11__hash_nodeINS_17__hash_value_typeINS_12basic_stringIcNS_11char_traitsIcEENS0_IcEEEENS_10unique_ptrI5SceneNS_14default_deleteISA_EEEEEEPvEEEEE10deallocateB8ue170006EPSJ_m, symObjAddr: 0x3498, symBinAddr: 0x10000BF6C, symSize: 0x40 }
  - { offsetInCU: 0x1C9EA, offset: 0x410FD, size: 0x8, addend: 0x0, symName: __ZNSt3__117__compressed_pairImNS_9allocatorIPNS_16__hash_node_baseIPNS_11__hash_nodeINS_17__hash_value_typeINS_12basic_stringIcNS_11char_traitsIcEENS1_IcEEEENS_10unique_ptrI5SceneNS_14default_deleteISB_EEEEEEPvEEEEEEE6secondB8ue170006Ev, symObjAddr: 0x34D8, symBinAddr: 0x10000BFAC, symSize: 0x24 }
  - { offsetInCU: 0x1CA0F, offset: 0x41122, size: 0x8, addend: 0x0, symName: __ZNSt3__122__compressed_pair_elemINS_9allocatorIPNS_16__hash_node_baseIPNS_11__hash_nodeINS_17__hash_value_typeINS_12basic_stringIcNS_11char_traitsIcEENS1_IcEEEENS_10unique_ptrI5SceneNS_14default_deleteISB_EEEEEEPvEEEEEELi1ELb1EE5__getB8ue170006Ev, symObjAddr: 0x34FC, symBinAddr: 0x10000BFD0, symSize: 0x14 }
  - { offsetInCU: 0x1CA34, offset: 0x41147, size: 0x8, addend: 0x0, symName: __ZNSt3__117__compressed_pairImNS_9allocatorIPNS_16__hash_node_baseIPNS_11__hash_nodeINS_17__hash_value_typeINS_12basic_stringIcNS_11char_traitsIcEENS1_IcEEEENS_10unique_ptrI5SceneNS_14default_deleteISB_EEEEEEPvEEEEEEE5firstB8ue170006Ev, symObjAddr: 0x3510, symBinAddr: 0x10000BFE4, symSize: 0x24 }
  - { offsetInCU: 0x1CA59, offset: 0x4116C, size: 0x8, addend: 0x0, symName: __ZNSt3__16vectorINS_10unique_ptrI6EntityNS_14default_deleteIS2_EEEENS_9allocatorIS5_EEE5beginB8ue170006Ev, symObjAddr: 0x3548, symBinAddr: 0x10000C008, symSize: 0x30 }
  - { offsetInCU: 0x1CA7F, offset: 0x41192, size: 0x8, addend: 0x0, symName: __ZNSt3__16vectorINS_10unique_ptrI6EntityNS_14default_deleteIS2_EEEENS_9allocatorIS5_EEE3endB8ue170006Ev, symObjAddr: 0x3578, symBinAddr: 0x10000C038, symSize: 0x30 }
  - { offsetInCU: 0x1CAA5, offset: 0x411B8, size: 0x8, addend: 0x0, symName: __ZNKSt3__111__wrap_iterIPNS_10unique_ptrI6EntityNS_14default_deleteIS2_EEEEEdeB8ue170006Ev, symObjAddr: 0x35DC, symBinAddr: 0x10000C09C, symSize: 0x18 }
  - { offsetInCU: 0x1CACA, offset: 0x411DD, size: 0x8, addend: 0x0, symName: __ZNKSt3__110unique_ptrI6EntityNS_14default_deleteIS1_EEEcvbB8ue170006Ev, symObjAddr: 0x35F4, symBinAddr: 0x10000C0B4, symSize: 0x34 }
  - { offsetInCU: 0x1CAEF, offset: 0x41202, size: 0x8, addend: 0x0, symName: __ZNKSt3__110unique_ptrI6EntityNS_14default_deleteIS1_EEEptB8ue170006Ev, symObjAddr: 0x3628, symBinAddr: 0x10000C0E8, symSize: 0x28 }
  - { offsetInCU: 0x1CB14, offset: 0x41227, size: 0x8, addend: 0x0, symName: __ZN6Entity6updateEf, symObjAddr: 0x3650, symBinAddr: 0x10000C110, symSize: 0xBC }
  - { offsetInCU: 0x1CB98, offset: 0x412AB, size: 0x8, addend: 0x0, symName: __ZNSt3__111__wrap_iterIPNS_10unique_ptrI6EntityNS_14default_deleteIS2_EEEEEppB8ue170006Ev, symObjAddr: 0x370C, symBinAddr: 0x10000C1CC, symSize: 0x20 }
  - { offsetInCU: 0x1CBBD, offset: 0x412D0, size: 0x8, addend: 0x0, symName: __ZNSt3__16vectorINS_10unique_ptrI6EntityNS_14default_deleteIS2_EEEENS_9allocatorIS5_EEE11__make_iterB8ue170006EPS5_, symObjAddr: 0x372C, symBinAddr: 0x10000C1EC, symSize: 0x30 }
  - { offsetInCU: 0x1CBF1, offset: 0x41304, size: 0x8, addend: 0x0, symName: __ZNSt3__111__wrap_iterIPNS_10unique_ptrI6EntityNS_14default_deleteIS2_EEEEEC1B8ue170006ES6_, symObjAddr: 0x375C, symBinAddr: 0x10000C21C, symSize: 0x34 }
  - { offsetInCU: 0x1CC28, offset: 0x4133B, size: 0x8, addend: 0x0, symName: __ZNSt3__111__wrap_iterIPNS_10unique_ptrI6EntityNS_14default_deleteIS2_EEEEEC2B8ue170006ES6_, symObjAddr: 0x3790, symBinAddr: 0x10000C250, symSize: 0x20 }
  - { offsetInCU: 0x1CC5F, offset: 0x41372, size: 0x8, addend: 0x0, symName: __ZNKSt3__111__wrap_iterIPNS_10unique_ptrI6EntityNS_14default_deleteIS2_EEEEE4baseB8ue170006Ev, symObjAddr: 0x37F8, symBinAddr: 0x10000C2B8, symSize: 0x18 }
  - { offsetInCU: 0x1CC84, offset: 0x41397, size: 0x8, addend: 0x0, symName: __ZNKSt3__117__compressed_pairIP6EntityNS_14default_deleteIS1_EEE5firstB8ue170006Ev, symObjAddr: 0x3810, symBinAddr: 0x10000C2D0, symSize: 0x24 }
  - { offsetInCU: 0x1CCA9, offset: 0x413BC, size: 0x8, addend: 0x0, symName: __ZNKSt3__122__compressed_pair_elemIP6EntityLi0ELb0EE5__getB8ue170006Ev, symObjAddr: 0x3834, symBinAddr: 0x10000C2F4, symSize: 0x14 }
  - { offsetInCU: 0x1CCCE, offset: 0x413E1, size: 0x8, addend: 0x0, symName: __ZNSt3__16vectorINS_10unique_ptrI9ComponentNS_14default_deleteIS2_EEEENS_9allocatorIS5_EEE5beginB8ue170006Ev, symObjAddr: 0x3848, symBinAddr: 0x10000C308, symSize: 0x30 }
  - { offsetInCU: 0x1CCF4, offset: 0x41407, size: 0x8, addend: 0x0, symName: __ZNSt3__16vectorINS_10unique_ptrI9ComponentNS_14default_deleteIS2_EEEENS_9allocatorIS5_EEE3endB8ue170006Ev, symObjAddr: 0x3878, symBinAddr: 0x10000C338, symSize: 0x30 }
  - { offsetInCU: 0x1CD1A, offset: 0x4142D, size: 0x8, addend: 0x0, symName: __ZNKSt3__111__wrap_iterIPNS_10unique_ptrI9ComponentNS_14default_deleteIS2_EEEEEdeB8ue170006Ev, symObjAddr: 0x38DC, symBinAddr: 0x10000C39C, symSize: 0x18 }
  - { offsetInCU: 0x1CD3F, offset: 0x41452, size: 0x8, addend: 0x0, symName: __ZNKSt3__110unique_ptrI9ComponentNS_14default_deleteIS1_EEEcvbB8ue170006Ev, symObjAddr: 0x38F4, symBinAddr: 0x10000C3B4, symSize: 0x34 }
  - { offsetInCU: 0x1CD64, offset: 0x41477, size: 0x8, addend: 0x0, symName: __ZNKSt3__110unique_ptrI9ComponentNS_14default_deleteIS1_EEEptB8ue170006Ev, symObjAddr: 0x3928, symBinAddr: 0x10000C3E8, symSize: 0x28 }
  - { offsetInCU: 0x1CD89, offset: 0x4149C, size: 0x8, addend: 0x0, symName: __ZNSt3__111__wrap_iterIPNS_10unique_ptrI9ComponentNS_14default_deleteIS2_EEEEEppB8ue170006Ev, symObjAddr: 0x3950, symBinAddr: 0x10000C410, symSize: 0x20 }
  - { offsetInCU: 0x1CDAE, offset: 0x414C1, size: 0x8, addend: 0x0, symName: __ZNSt3__16vectorINS_10unique_ptrI9ComponentNS_14default_deleteIS2_EEEENS_9allocatorIS5_EEE11__make_iterB8ue170006EPS5_, symObjAddr: 0x3970, symBinAddr: 0x10000C430, symSize: 0x30 }
  - { offsetInCU: 0x1CDE2, offset: 0x414F5, size: 0x8, addend: 0x0, symName: __ZNSt3__111__wrap_iterIPNS_10unique_ptrI9ComponentNS_14default_deleteIS2_EEEEEC1B8ue170006ES6_, symObjAddr: 0x39A0, symBinAddr: 0x10000C460, symSize: 0x34 }
  - { offsetInCU: 0x1CE19, offset: 0x4152C, size: 0x8, addend: 0x0, symName: __ZNSt3__111__wrap_iterIPNS_10unique_ptrI9ComponentNS_14default_deleteIS2_EEEEEC2B8ue170006ES6_, symObjAddr: 0x39D4, symBinAddr: 0x10000C494, symSize: 0x20 }
  - { offsetInCU: 0x1CE50, offset: 0x41563, size: 0x8, addend: 0x0, symName: __ZNKSt3__111__wrap_iterIPNS_10unique_ptrI9ComponentNS_14default_deleteIS2_EEEEE4baseB8ue170006Ev, symObjAddr: 0x3A3C, symBinAddr: 0x10000C4FC, symSize: 0x18 }
  - { offsetInCU: 0x1CE75, offset: 0x41588, size: 0x8, addend: 0x0, symName: __ZNKSt3__117__compressed_pairIP9ComponentNS_14default_deleteIS1_EEE5firstB8ue170006Ev, symObjAddr: 0x3A54, symBinAddr: 0x10000C514, symSize: 0x24 }
  - { offsetInCU: 0x1CE9A, offset: 0x415AD, size: 0x8, addend: 0x0, symName: __ZNKSt3__122__compressed_pair_elemIP9ComponentLi0ELb0EE5__getB8ue170006Ev, symObjAddr: 0x3A78, symBinAddr: 0x10000C538, symSize: 0x14 }
  - { offsetInCU: 0x1CEBF, offset: 0x415D2, size: 0x8, addend: 0x0, symName: __ZNKSt3__110unique_ptrI6EntityNS_14default_deleteIS1_EEEdeB8ue170006Ev, symObjAddr: 0x3AFC, symBinAddr: 0x10000C5BC, symSize: 0x28 }
  - { offsetInCU: 0x1CEE4, offset: 0x415F7, size: 0x8, addend: 0x0, symName: __ZNSt3__16vectorINS_10unique_ptrI6EntityNS_14default_deleteIS2_EEEENS_9allocatorIS5_EEE9push_backB8ue170006EOS5_, symObjAddr: 0x3B24, symBinAddr: 0x10000C5E4, symSize: 0x6C }
  - { offsetInCU: 0x1CF19, offset: 0x4162C, size: 0x8, addend: 0x0, symName: __ZN6EntityC1ER7Manager, symObjAddr: 0x3B90, symBinAddr: 0x10000C650, symSize: 0x34 }
  - { offsetInCU: 0x1CF50, offset: 0x41663, size: 0x8, addend: 0x0, symName: __ZNSt3__110unique_ptrI6EntityNS_14default_deleteIS1_EEEC1B8ue170006ILb1EvEEPS1_, symObjAddr: 0x3BC4, symBinAddr: 0x10000C684, symSize: 0x34 }
  - { offsetInCU: 0x1CF92, offset: 0x416A5, size: 0x8, addend: 0x0, symName: __ZN6EntityC2ER7Manager, symObjAddr: 0x3BF8, symBinAddr: 0x10000C6B8, symSize: 0xC0 }
  - { offsetInCU: 0x1CFC9, offset: 0x416DC, size: 0x8, addend: 0x0, symName: __ZNSt3__16vectorINS_10unique_ptrI9ComponentNS_14default_deleteIS2_EEEENS_9allocatorIS5_EEEC1B8ue170006Ev, symObjAddr: 0x3CB8, symBinAddr: 0x10000C778, symSize: 0x2C }
  - { offsetInCU: 0x1CFF2, offset: 0x41705, size: 0x8, addend: 0x0, symName: __ZNSt3__16bitsetILm999999EEC1B8ue170006Ev, symObjAddr: 0x3CE4, symBinAddr: 0x10000C7A4, symSize: 0x2C }
  - { offsetInCU: 0x1D01B, offset: 0x4172E, size: 0x8, addend: 0x0, symName: __ZNSt3__16bitsetILm32EEC1B8ue170006Ev, symObjAddr: 0x3D10, symBinAddr: 0x10000C7D0, symSize: 0x2C }
  - { offsetInCU: 0x1D044, offset: 0x41757, size: 0x8, addend: 0x0, symName: __ZNSt3__15arrayIP9ComponentLm999999EE4fillB8ue170006ERKS2_, symObjAddr: 0x3D3C, symBinAddr: 0x10000C7FC, symSize: 0x38 }
  - { offsetInCU: 0x1D077, offset: 0x4178A, size: 0x8, addend: 0x0, symName: __ZNSt3__16bitsetILm999999EE5resetB8ue170006Ev, symObjAddr: 0x3D74, symBinAddr: 0x10000C834, symSize: 0x58 }
  - { offsetInCU: 0x1D09D, offset: 0x417B0, size: 0x8, addend: 0x0, symName: __ZNSt3__16vectorINS_10unique_ptrI9ComponentNS_14default_deleteIS2_EEEENS_9allocatorIS5_EEEC2B8ue170006Ev, symObjAddr: 0x3DCC, symBinAddr: 0x10000C88C, symSize: 0x4C }
  - { offsetInCU: 0x1D0C6, offset: 0x417D9, size: 0x8, addend: 0x0, symName: __ZNSt3__117__compressed_pairIPNS_10unique_ptrI9ComponentNS_14default_deleteIS2_EEEENS_9allocatorIS5_EEEC1B8ue170006IDnNS_18__default_init_tagEEEOT_OT0_, symObjAddr: 0x3E18, symBinAddr: 0x10000C8D8, symSize: 0x3C }
  - { offsetInCU: 0x1D11D, offset: 0x41830, size: 0x8, addend: 0x0, symName: __ZNSt3__117__compressed_pairIPNS_10unique_ptrI9ComponentNS_14default_deleteIS2_EEEENS_9allocatorIS5_EEEC2B8ue170006IDnNS_18__default_init_tagEEEOT_OT0_, symObjAddr: 0x3E54, symBinAddr: 0x10000C914, symSize: 0x40 }
  - { offsetInCU: 0x1D174, offset: 0x41887, size: 0x8, addend: 0x0, symName: __ZNSt3__122__compressed_pair_elemIPNS_10unique_ptrI9ComponentNS_14default_deleteIS2_EEEELi0ELb0EEC2B8ue170006IDnvEEOT_, symObjAddr: 0x3E94, symBinAddr: 0x10000C954, symSize: 0x1C }
  - { offsetInCU: 0x1D1B5, offset: 0x418C8, size: 0x8, addend: 0x0, symName: __ZNSt3__122__compressed_pair_elemINS_9allocatorINS_10unique_ptrI9ComponentNS_14default_deleteIS3_EEEEEELi1ELb1EEC2B8ue170006ENS_18__default_init_tagE, symObjAddr: 0x3EB0, symBinAddr: 0x10000C970, symSize: 0x2C }
  - { offsetInCU: 0x1D1E9, offset: 0x418FC, size: 0x8, addend: 0x0, symName: __ZNSt3__19allocatorINS_10unique_ptrI9ComponentNS_14default_deleteIS2_EEEEEC2B8ue170006Ev, symObjAddr: 0x3EDC, symBinAddr: 0x10000C99C, symSize: 0x2C }
  - { offsetInCU: 0x1D212, offset: 0x41925, size: 0x8, addend: 0x0, symName: __ZNSt3__116__non_trivial_ifILb1ENS_9allocatorINS_10unique_ptrI9ComponentNS_14default_deleteIS3_EEEEEEEC2B8ue170006Ev, symObjAddr: 0x3F08, symBinAddr: 0x10000C9C8, symSize: 0x14 }
  - { offsetInCU: 0x1D23B, offset: 0x4194E, size: 0x8, addend: 0x0, symName: __ZNSt3__16bitsetILm999999EEC2B8ue170006Ev, symObjAddr: 0x3F1C, symBinAddr: 0x10000C9DC, symSize: 0x2C }
  - { offsetInCU: 0x1D264, offset: 0x41977, size: 0x8, addend: 0x0, symName: __ZNSt3__18__bitsetILm15625ELm999999EEC2Ev, symObjAddr: 0x3F48, symBinAddr: 0x10000CA08, symSize: 0x34 }
  - { offsetInCU: 0x1D28E, offset: 0x419A1, size: 0x8, addend: 0x0, symName: __ZNSt3__16bitsetILm32EEC2B8ue170006Ev, symObjAddr: 0x3F7C, symBinAddr: 0x10000CA3C, symSize: 0x2C }
  - { offsetInCU: 0x1D2B7, offset: 0x419CA, size: 0x8, addend: 0x0, symName: __ZNSt3__18__bitsetILm1ELm32EEC2Ev, symObjAddr: 0x3FA8, symBinAddr: 0x10000CA68, symSize: 0x18 }
  - { offsetInCU: 0x1D2E2, offset: 0x419F5, size: 0x8, addend: 0x0, symName: __ZNSt3__15arrayIP9ComponentLm999999EE4dataB8ue170006Ev, symObjAddr: 0x4004, symBinAddr: 0x10000CAC4, symSize: 0x14 }
  - { offsetInCU: 0x1D307, offset: 0x41A1A, size: 0x8, addend: 0x0, symName: __ZNSt3__18__bitsetILm15625ELm999999EE11__make_iterB8ue170006Em, symObjAddr: 0x4124, symBinAddr: 0x10000CBE4, symSize: 0x60 }
  - { offsetInCU: 0x1D33A, offset: 0x41A4D, size: 0x8, addend: 0x0, symName: __ZNSt3__114__bit_iteratorINS_8__bitsetILm15625ELm999999EEELb0ELm0EEC1B8ue170006ERKS3_, symObjAddr: 0x42E4, symBinAddr: 0x10000CDA4, symSize: 0x34 }
  - { offsetInCU: 0x1D372, offset: 0x41A85, size: 0x8, addend: 0x0, symName: __ZNSt3__114__bit_iteratorINS_8__bitsetILm15625ELm999999EEELb0ELm0EEC2B8ue170006ERKS3_, symObjAddr: 0x45E4, symBinAddr: 0x10000CFF0, symSize: 0x30 }
  - { offsetInCU: 0x1D3AA, offset: 0x41ABD, size: 0x8, addend: 0x0, symName: __ZNSt3__114__bit_iteratorINS_8__bitsetILm15625ELm999999EEELb0ELm0EEC1B8ue170006EPmj, symObjAddr: 0x46BC, symBinAddr: 0x10000D0C8, symSize: 0x3C }
  - { offsetInCU: 0x1D3F1, offset: 0x41B04, size: 0x8, addend: 0x0, symName: __ZNSt3__114__bit_iteratorINS_8__bitsetILm15625ELm999999EEELb0ELm0EEC2B8ue170006EPmj, symObjAddr: 0x46F8, symBinAddr: 0x10000D104, symSize: 0x2C }
  - { offsetInCU: 0x1D438, offset: 0x41B4B, size: 0x8, addend: 0x0, symName: __ZNSt3__110unique_ptrI6EntityNS_14default_deleteIS1_EEEC2B8ue170006ILb1EvEEPS1_, symObjAddr: 0x4724, symBinAddr: 0x10000D130, symSize: 0x44 }
  - { offsetInCU: 0x1D47A, offset: 0x41B8D, size: 0x8, addend: 0x0, symName: __ZNSt3__117__compressed_pairIP6EntityNS_14default_deleteIS1_EEEC1B8ue170006IRS2_NS_16__value_init_tagEEEOT_OT0_, symObjAddr: 0x4768, symBinAddr: 0x10000D174, symSize: 0x3C }
  - { offsetInCU: 0x1D4D1, offset: 0x41BE4, size: 0x8, addend: 0x0, symName: __ZNSt3__117__compressed_pairIP6EntityNS_14default_deleteIS1_EEEC2B8ue170006IRS2_NS_16__value_init_tagEEEOT_OT0_, symObjAddr: 0x47A4, symBinAddr: 0x10000D1B0, symSize: 0x40 }
  - { offsetInCU: 0x1D528, offset: 0x41C3B, size: 0x8, addend: 0x0, symName: __ZNSt3__122__compressed_pair_elemIP6EntityLi0ELb0EEC2B8ue170006IRS2_vEEOT_, symObjAddr: 0x47E4, symBinAddr: 0x10000D1F0, symSize: 0x24 }
  - { offsetInCU: 0x1D569, offset: 0x41C7C, size: 0x8, addend: 0x0, symName: __ZNSt3__122__compressed_pair_elemINS_14default_deleteI6EntityEELi1ELb1EEC2B8ue170006ENS_16__value_init_tagE, symObjAddr: 0x4808, symBinAddr: 0x10000D214, symSize: 0x14 }
  - { offsetInCU: 0x1D59D, offset: 0x41CB0, size: 0x8, addend: 0x0, symName: __ZNSt3__16vectorINS_10unique_ptrI6EntityNS_14default_deleteIS2_EEEENS_9allocatorIS5_EEE9__end_capB8ue170006Ev, symObjAddr: 0x481C, symBinAddr: 0x10000D228, symSize: 0x28 }
  - { offsetInCU: 0x1D5C2, offset: 0x41CD5, size: 0x8, addend: 0x0, symName: __ZNSt3__16vectorINS_10unique_ptrI6EntityNS_14default_deleteIS2_EEEENS_9allocatorIS5_EEE22__construct_one_at_endB8ue170006IJS5_EEEvDpOT_, symObjAddr: 0x4844, symBinAddr: 0x10000D250, symSize: 0x90 }
  - { offsetInCU: 0x1D610, offset: 0x41D23, size: 0x8, addend: 0x0, symName: __ZNSt3__16vectorINS_10unique_ptrI6EntityNS_14default_deleteIS2_EEEENS_9allocatorIS5_EEE21__push_back_slow_pathIS5_EEvOT_, symObjAddr: 0x48D4, symBinAddr: 0x10000D2E0, symSize: 0xD8 }
  - { offsetInCU: 0x1D66C, offset: 0x41D7F, size: 0x8, addend: 0x0, symName: __ZNSt3__117__compressed_pairIPNS_10unique_ptrI6EntityNS_14default_deleteIS2_EEEENS_9allocatorIS5_EEE5firstB8ue170006Ev, symObjAddr: 0x49AC, symBinAddr: 0x10000D3B8, symSize: 0x24 }
  - { offsetInCU: 0x1D691, offset: 0x41DA4, size: 0x8, addend: 0x0, symName: __ZNSt3__122__compressed_pair_elemIPNS_10unique_ptrI6EntityNS_14default_deleteIS2_EEEELi0ELb0EE5__getB8ue170006Ev, symObjAddr: 0x49D0, symBinAddr: 0x10000D3DC, symSize: 0x14 }
  - { offsetInCU: 0x1D6CF, offset: 0x41DE2, size: 0x8, addend: 0x0, symName: __ZNSt3__16vectorINS_10unique_ptrI6EntityNS_14default_deleteIS2_EEEENS_9allocatorIS5_EEE21_ConstructTransactionC1B8ue170006ERS8_m, symObjAddr: 0x49E4, symBinAddr: 0x10000D3F0, symSize: 0x3C }
  - { offsetInCU: 0x1D716, offset: 0x41E29, size: 0x8, addend: 0x0, symName: __ZNSt3__116allocator_traitsINS_9allocatorINS_10unique_ptrI6EntityNS_14default_deleteIS3_EEEEEEE9constructB8ue170006IS6_JS6_EvEEvRS7_PT_DpOT0_, symObjAddr: 0x4A20, symBinAddr: 0x10000D42C, symSize: 0x34 }
  - { offsetInCU: 0x1D76D, offset: 0x41E80, size: 0x8, addend: 0x0, symName: __ZNSt3__16vectorINS_10unique_ptrI6EntityNS_14default_deleteIS2_EEEENS_9allocatorIS5_EEE21_ConstructTransactionD1B8ue170006Ev, symObjAddr: 0x4A54, symBinAddr: 0x10000D460, symSize: 0x2C }
  - { offsetInCU: 0x1D796, offset: 0x41EA9, size: 0x8, addend: 0x0, symName: __ZNSt3__16vectorINS_10unique_ptrI6EntityNS_14default_deleteIS2_EEEENS_9allocatorIS5_EEE21_ConstructTransactionC2B8ue170006ERS8_m, symObjAddr: 0x4A80, symBinAddr: 0x10000D48C, symSize: 0x44 }
  - { offsetInCU: 0x1D7DD, offset: 0x41EF0, size: 0x8, addend: 0x0, symName: __ZNSt3__19allocatorINS_10unique_ptrI6EntityNS_14default_deleteIS2_EEEEE9constructB8ue170006IS5_JS5_EEEvPT_DpOT0_, symObjAddr: 0x4AC4, symBinAddr: 0x10000D4D0, symSize: 0x30 }
  - { offsetInCU: 0x1D832, offset: 0x41F45, size: 0x8, addend: 0x0, symName: __ZNSt3__110unique_ptrI6EntityNS_14default_deleteIS1_EEEC1B8ue170006EOS4_, symObjAddr: 0x4AF4, symBinAddr: 0x10000D500, symSize: 0x34 }
  - { offsetInCU: 0x1D869, offset: 0x41F7C, size: 0x8, addend: 0x0, symName: __ZNSt3__110unique_ptrI6EntityNS_14default_deleteIS1_EEEC2B8ue170006EOS4_, symObjAddr: 0x4B28, symBinAddr: 0x10000D534, symSize: 0x60 }
  - { offsetInCU: 0x1D8A0, offset: 0x41FB3, size: 0x8, addend: 0x0, symName: __ZNSt3__110unique_ptrI6EntityNS_14default_deleteIS1_EEE7releaseB8ue170006Ev, symObjAddr: 0x4B88, symBinAddr: 0x10000D594, symSize: 0x44 }
  - { offsetInCU: 0x1D8D4, offset: 0x41FE7, size: 0x8, addend: 0x0, symName: __ZNSt3__110unique_ptrI6EntityNS_14default_deleteIS1_EEE11get_deleterB8ue170006Ev, symObjAddr: 0x4BCC, symBinAddr: 0x10000D5D8, symSize: 0x24 }
  - { offsetInCU: 0x1D903, offset: 0x42016, size: 0x8, addend: 0x0, symName: __ZNSt3__117__compressed_pairIP6EntityNS_14default_deleteIS1_EEEC1B8ue170006IS2_S4_EEOT_OT0_, symObjAddr: 0x4BF0, symBinAddr: 0x10000D5FC, symSize: 0x3C }
  - { offsetInCU: 0x1D95A, offset: 0x4206D, size: 0x8, addend: 0x0, symName: __ZNSt3__117__compressed_pairIP6EntityNS_14default_deleteIS1_EEEC2B8ue170006IS2_S4_EEOT_OT0_, symObjAddr: 0x4C2C, symBinAddr: 0x10000D638, symSize: 0x44 }
  - { offsetInCU: 0x1D9B1, offset: 0x420C4, size: 0x8, addend: 0x0, symName: __ZNSt3__122__compressed_pair_elemIP6EntityLi0ELb0EEC2B8ue170006IS2_vEEOT_, symObjAddr: 0x4C70, symBinAddr: 0x10000D67C, symSize: 0x24 }
  - { offsetInCU: 0x1D9F2, offset: 0x42105, size: 0x8, addend: 0x0, symName: __ZNSt3__122__compressed_pair_elemINS_14default_deleteI6EntityEELi1ELb1EEC2B8ue170006IS3_vEEOT_, symObjAddr: 0x4C94, symBinAddr: 0x10000D6A0, symSize: 0x18 }
  - { offsetInCU: 0x1DA33, offset: 0x42146, size: 0x8, addend: 0x0, symName: __ZNSt3__16vectorINS_10unique_ptrI6EntityNS_14default_deleteIS2_EEEENS_9allocatorIS5_EEE21_ConstructTransactionD2B8ue170006Ev, symObjAddr: 0x4CAC, symBinAddr: 0x10000D6B8, symSize: 0x20 }
  - { offsetInCU: 0x1DA5C, offset: 0x4216F, size: 0x8, addend: 0x0, symName: __ZNKSt3__16vectorINS_10unique_ptrI6EntityNS_14default_deleteIS2_EEEENS_9allocatorIS5_EEE11__recommendB8ue170006Em, symObjAddr: 0x4CCC, symBinAddr: 0x10000D6D8, symSize: 0xB4 }
  - { offsetInCU: 0x1DAAF, offset: 0x421C2, size: 0x8, addend: 0x0, symName: __ZNSt3__114__split_bufferINS_10unique_ptrI6EntityNS_14default_deleteIS2_EEEERNS_9allocatorIS5_EEEC1EmmS8_, symObjAddr: 0x4D80, symBinAddr: 0x10000D78C, symSize: 0x44 }
  - { offsetInCU: 0x1DB04, offset: 0x42217, size: 0x8, addend: 0x0, symName: __ZNSt3__114__split_bufferINS_10unique_ptrI6EntityNS_14default_deleteIS2_EEEERNS_9allocatorIS5_EEED1Ev, symObjAddr: 0x4ED4, symBinAddr: 0x10000D8E0, symSize: 0x2C }
  - { offsetInCU: 0x1DB2F, offset: 0x42242, size: 0x8, addend: 0x0, symName: __ZNKSt3__16vectorINS_10unique_ptrI6EntityNS_14default_deleteIS2_EEEENS_9allocatorIS5_EEE8max_sizeEv, symObjAddr: 0x4F00, symBinAddr: 0x10000D90C, symSize: 0x60 }
  - { offsetInCU: 0x1DB55, offset: 0x42268, size: 0x8, addend: 0x0, symName: __ZNKSt3__16vectorINS_10unique_ptrI6EntityNS_14default_deleteIS2_EEEENS_9allocatorIS5_EEE20__throw_length_errorB8ue170006Ev, symObjAddr: 0x4F60, symBinAddr: 0x10000D96C, symSize: 0x1C }
  - { offsetInCU: 0x1DB84, offset: 0x42297, size: 0x8, addend: 0x0, symName: __ZNSt3__116allocator_traitsINS_9allocatorINS_10unique_ptrI6EntityNS_14default_deleteIS3_EEEEEEE8max_sizeB8ue170006IS7_vEEmRKS7_, symObjAddr: 0x4FA8, symBinAddr: 0x10000D988, symSize: 0x24 }
  - { offsetInCU: 0x1DBB2, offset: 0x422C5, size: 0x8, addend: 0x0, symName: __ZNKSt3__16vectorINS_10unique_ptrI6EntityNS_14default_deleteIS2_EEEENS_9allocatorIS5_EEE7__allocB8ue170006Ev, symObjAddr: 0x4FCC, symBinAddr: 0x10000D9AC, symSize: 0x28 }
  - { offsetInCU: 0x1DBD7, offset: 0x422EA, size: 0x8, addend: 0x0, symName: __ZNKSt3__19allocatorINS_10unique_ptrI6EntityNS_14default_deleteIS2_EEEEE8max_sizeB8ue170006Ev, symObjAddr: 0x5008, symBinAddr: 0x10000D9D4, symSize: 0x14 }
  - { offsetInCU: 0x1DBFC, offset: 0x4230F, size: 0x8, addend: 0x0, symName: __ZNKSt3__117__compressed_pairIPNS_10unique_ptrI6EntityNS_14default_deleteIS2_EEEENS_9allocatorIS5_EEE6secondB8ue170006Ev, symObjAddr: 0x501C, symBinAddr: 0x10000D9E8, symSize: 0x24 }
  - { offsetInCU: 0x1DC21, offset: 0x42334, size: 0x8, addend: 0x0, symName: __ZNKSt3__122__compressed_pair_elemINS_9allocatorINS_10unique_ptrI6EntityNS_14default_deleteIS3_EEEEEELi1ELb1EE5__getB8ue170006Ev, symObjAddr: 0x5040, symBinAddr: 0x10000DA0C, symSize: 0x14 }
  - { offsetInCU: 0x1DC46, offset: 0x42359, size: 0x8, addend: 0x0, symName: __ZNSt3__114__split_bufferINS_10unique_ptrI6EntityNS_14default_deleteIS2_EEEERNS_9allocatorIS5_EEEC2EmmS8_, symObjAddr: 0x5194, symBinAddr: 0x10000DA20, symSize: 0xD4 }
  - { offsetInCU: 0x1DCB8, offset: 0x423CB, size: 0x8, addend: 0x0, symName: __ZNSt3__117__compressed_pairIPNS_10unique_ptrI6EntityNS_14default_deleteIS2_EEEERNS_9allocatorIS5_EEEC1B8ue170006IDnS9_EEOT_OT0_, symObjAddr: 0x5268, symBinAddr: 0x10000DAF4, symSize: 0x3C }
  - { offsetInCU: 0x1DD0F, offset: 0x42422, size: 0x8, addend: 0x0, symName: __ZNSt3__114__split_bufferINS_10unique_ptrI6EntityNS_14default_deleteIS2_EEEERNS_9allocatorIS5_EEE7__allocB8ue170006Ev, symObjAddr: 0x52E4, symBinAddr: 0x10000DB70, symSize: 0x28 }
  - { offsetInCU: 0x1DD34, offset: 0x42447, size: 0x8, addend: 0x0, symName: __ZNSt3__114__split_bufferINS_10unique_ptrI6EntityNS_14default_deleteIS2_EEEERNS_9allocatorIS5_EEE9__end_capB8ue170006Ev, symObjAddr: 0x530C, symBinAddr: 0x10000DB98, symSize: 0x28 }
  - { offsetInCU: 0x1DD59, offset: 0x4246C, size: 0x8, addend: 0x0, symName: __ZNSt3__117__compressed_pairIPNS_10unique_ptrI6EntityNS_14default_deleteIS2_EEEERNS_9allocatorIS5_EEEC2B8ue170006IDnS9_EEOT_OT0_, symObjAddr: 0x5334, symBinAddr: 0x10000DBC0, symSize: 0x48 }
  - { offsetInCU: 0x1DDB0, offset: 0x424C3, size: 0x8, addend: 0x0, symName: __ZNSt3__122__compressed_pair_elemIRNS_9allocatorINS_10unique_ptrI6EntityNS_14default_deleteIS3_EEEEEELi1ELb0EEC2B8ue170006IS8_vEEOT_, symObjAddr: 0x537C, symBinAddr: 0x10000DC08, symSize: 0x20 }
  - { offsetInCU: 0x1DDF1, offset: 0x42504, size: 0x8, addend: 0x0, symName: __ZNSt3__19allocatorINS_10unique_ptrI6EntityNS_14default_deleteIS2_EEEEE8allocateB8ue170006Em, symObjAddr: 0x539C, symBinAddr: 0x10000DC28, symSize: 0x58 }
  - { offsetInCU: 0x1DE24, offset: 0x42537, size: 0x8, addend: 0x0, symName: __ZNSt3__117__compressed_pairIPNS_10unique_ptrI6EntityNS_14default_deleteIS2_EEEERNS_9allocatorIS5_EEE6secondB8ue170006Ev, symObjAddr: 0x54D8, symBinAddr: 0x10000DC80, symSize: 0x28 }
  - { offsetInCU: 0x1DE49, offset: 0x4255C, size: 0x8, addend: 0x0, symName: __ZNSt3__122__compressed_pair_elemIRNS_9allocatorINS_10unique_ptrI6EntityNS_14default_deleteIS3_EEEEEELi1ELb0EE5__getB8ue170006Ev, symObjAddr: 0x5500, symBinAddr: 0x10000DCA8, symSize: 0x18 }
  - { offsetInCU: 0x1DE6E, offset: 0x42581, size: 0x8, addend: 0x0, symName: __ZNSt3__117__compressed_pairIPNS_10unique_ptrI6EntityNS_14default_deleteIS2_EEEERNS_9allocatorIS5_EEE5firstB8ue170006Ev, symObjAddr: 0x5518, symBinAddr: 0x10000DCC0, symSize: 0x24 }
  - { offsetInCU: 0x1DE93, offset: 0x425A6, size: 0x8, addend: 0x0, symName: __ZNSt3__116reverse_iteratorIPNS_10unique_ptrI6EntityNS_14default_deleteIS2_EEEEEC1B8ue170006ES6_, symObjAddr: 0x5668, symBinAddr: 0x10000DE10, symSize: 0x34 }
  - { offsetInCU: 0x1DECA, offset: 0x425DD, size: 0x8, addend: 0x0, symName: __ZNKSt3__116reverse_iteratorIPNS_10unique_ptrI6EntityNS_14default_deleteIS2_EEEEE4baseB8ue170006Ev, symObjAddr: 0x569C, symBinAddr: 0x10000DE44, symSize: 0x18 }
  - { offsetInCU: 0x1DEEF, offset: 0x42602, size: 0x8, addend: 0x0, symName: __ZNKSt3__16vectorINS_10unique_ptrI6EntityNS_14default_deleteIS2_EEEENS_9allocatorIS5_EEE14__annotate_newB8ue170006Em, symObjAddr: 0x56F0, symBinAddr: 0x10000DE98, symSize: 0xAC }
  - { offsetInCU: 0x1DF23, offset: 0x42636, size: 0x8, addend: 0x0, symName: __ZNSt3__129_AllocatorDestroyRangeReverseINS_9allocatorINS_10unique_ptrI6EntityNS_14default_deleteIS3_EEEEEENS_16reverse_iteratorIPS6_EEEC1B8ue170006ERS7_RSA_SD_, symObjAddr: 0x57E8, symBinAddr: 0x10000DF90, symSize: 0x44 }
  - { offsetInCU: 0x1DF79, offset: 0x4268C, size: 0x8, addend: 0x0, symName: __ZNKSt3__116reverse_iteratorIPNS_10unique_ptrI6EntityNS_14default_deleteIS2_EEEEEdeB8ue170006Ev, symObjAddr: 0x5898, symBinAddr: 0x10000E040, symSize: 0x28 }
  - { offsetInCU: 0x1DFAC, offset: 0x426BF, size: 0x8, addend: 0x0, symName: __ZNSt3__116reverse_iteratorIPNS_10unique_ptrI6EntityNS_14default_deleteIS2_EEEEEppB8ue170006Ev, symObjAddr: 0x58C0, symBinAddr: 0x10000E068, symSize: 0x20 }
  - { offsetInCU: 0x1DFD1, offset: 0x426E4, size: 0x8, addend: 0x0, symName: __ZNSt3__128__exception_guard_exceptionsINS_29_AllocatorDestroyRangeReverseINS_9allocatorINS_10unique_ptrI6EntityNS_14default_deleteIS4_EEEEEENS_16reverse_iteratorIPS7_EEEEE10__completeB8ue170006Ev, symObjAddr: 0x58E0, symBinAddr: 0x10000E088, symSize: 0x1C }
  - { offsetInCU: 0x1DFF6, offset: 0x42709, size: 0x8, addend: 0x0, symName: __ZNSt3__128__exception_guard_exceptionsINS_29_AllocatorDestroyRangeReverseINS_9allocatorINS_10unique_ptrI6EntityNS_14default_deleteIS4_EEEEEENS_16reverse_iteratorIPS7_EEEEED1B8ue170006Ev, symObjAddr: 0x58FC, symBinAddr: 0x10000E0A4, symSize: 0x2C }
  - { offsetInCU: 0x1E01F, offset: 0x42732, size: 0x8, addend: 0x0, symName: __ZNSt3__128__exception_guard_exceptionsINS_29_AllocatorDestroyRangeReverseINS_9allocatorINS_10unique_ptrI6EntityNS_14default_deleteIS4_EEEEEENS_16reverse_iteratorIPS7_EEEEEC1B8ue170006ESC_, symObjAddr: 0x5928, symBinAddr: 0x10000E0D0, symSize: 0x34 }
  - { offsetInCU: 0x1E057, offset: 0x4276A, size: 0x8, addend: 0x0, symName: __ZNSt3__128__exception_guard_exceptionsINS_29_AllocatorDestroyRangeReverseINS_9allocatorINS_10unique_ptrI6EntityNS_14default_deleteIS4_EEEEEENS_16reverse_iteratorIPS7_EEEEEC2B8ue170006ESC_, symObjAddr: 0x595C, symBinAddr: 0x10000E104, symSize: 0x30 }
  - { offsetInCU: 0x1E08F, offset: 0x427A2, size: 0x8, addend: 0x0, symName: __ZNSt3__129_AllocatorDestroyRangeReverseINS_9allocatorINS_10unique_ptrI6EntityNS_14default_deleteIS3_EEEEEENS_16reverse_iteratorIPS6_EEEC2B8ue170006ERS7_RSA_SD_, symObjAddr: 0x598C, symBinAddr: 0x10000E134, symSize: 0x38 }
  - { offsetInCU: 0x1E0EA, offset: 0x427FD, size: 0x8, addend: 0x0, symName: __ZNSt3__119__to_address_helperINS_16reverse_iteratorIPNS_10unique_ptrI6EntityNS_14default_deleteIS3_EEEEEEvE6__callB8ue170006ERKS8_, symObjAddr: 0x59C4, symBinAddr: 0x10000E16C, symSize: 0x38 }
  - { offsetInCU: 0x1E10D, offset: 0x42820, size: 0x8, addend: 0x0, symName: __ZNKSt3__116reverse_iteratorIPNS_10unique_ptrI6EntityNS_14default_deleteIS2_EEEEEptB8ue170006Ev, symObjAddr: 0x59FC, symBinAddr: 0x10000E1A4, symSize: 0x24 }
  - { offsetInCU: 0x1E132, offset: 0x42845, size: 0x8, addend: 0x0, symName: __ZNSt3__128__exception_guard_exceptionsINS_29_AllocatorDestroyRangeReverseINS_9allocatorINS_10unique_ptrI6EntityNS_14default_deleteIS4_EEEEEENS_16reverse_iteratorIPS7_EEEEED2B8ue170006Ev, symObjAddr: 0x5A20, symBinAddr: 0x10000E1C8, symSize: 0x50 }
  - { offsetInCU: 0x1E15B, offset: 0x4286E, size: 0x8, addend: 0x0, symName: __ZNKSt3__129_AllocatorDestroyRangeReverseINS_9allocatorINS_10unique_ptrI6EntityNS_14default_deleteIS3_EEEEEENS_16reverse_iteratorIPS6_EEEclB8ue170006Ev, symObjAddr: 0x5A70, symBinAddr: 0x10000E218, symSize: 0xB4 }
  - { offsetInCU: 0x1E181, offset: 0x42894, size: 0x8, addend: 0x0, symName: __ZNSt3__116reverse_iteratorINS0_IPNS_10unique_ptrI6EntityNS_14default_deleteIS2_EEEEEEEC1B8ue170006ES7_, symObjAddr: 0x5B94, symBinAddr: 0x10000E33C, symSize: 0x3C }
  - { offsetInCU: 0x1E1B8, offset: 0x428CB, size: 0x8, addend: 0x0, symName: __ZNSt3__116reverse_iteratorINS0_IPNS_10unique_ptrI6EntityNS_14default_deleteIS2_EEEEEEEppB8ue170006Ev, symObjAddr: 0x5C54, symBinAddr: 0x10000E3FC, symSize: 0x30 }
  - { offsetInCU: 0x1E1DD, offset: 0x428F0, size: 0x8, addend: 0x0, symName: __ZNKSt3__116reverse_iteratorINS0_IPNS_10unique_ptrI6EntityNS_14default_deleteIS2_EEEEEEE4baseB8ue170006Ev, symObjAddr: 0x5C84, symBinAddr: 0x10000E42C, symSize: 0x24 }
  - { offsetInCU: 0x1E207, offset: 0x4291A, size: 0x8, addend: 0x0, symName: __ZNSt3__119__to_address_helperINS_16reverse_iteratorINS1_IPNS_10unique_ptrI6EntityNS_14default_deleteIS3_EEEEEEEEvE6__callB8ue170006ERKS9_, symObjAddr: 0x5CA8, symBinAddr: 0x10000E450, symSize: 0x38 }
  - { offsetInCU: 0x1E22A, offset: 0x4293D, size: 0x8, addend: 0x0, symName: __ZNKSt3__116reverse_iteratorINS0_IPNS_10unique_ptrI6EntityNS_14default_deleteIS2_EEEEEEEptB8ue170006Ev, symObjAddr: 0x5CE0, symBinAddr: 0x10000E488, symSize: 0x24 }
  - { offsetInCU: 0x1E24F, offset: 0x42962, size: 0x8, addend: 0x0, symName: __ZNKSt3__116reverse_iteratorINS0_IPNS_10unique_ptrI6EntityNS_14default_deleteIS2_EEEEEEEdeB8ue170006Ev, symObjAddr: 0x5D04, symBinAddr: 0x10000E4AC, symSize: 0x34 }
  - { offsetInCU: 0x1E282, offset: 0x42995, size: 0x8, addend: 0x0, symName: __ZNSt3__116reverse_iteratorIPNS_10unique_ptrI6EntityNS_14default_deleteIS2_EEEEEmmB8ue170006Ev, symObjAddr: 0x5D38, symBinAddr: 0x10000E4E0, symSize: 0x20 }
  - { offsetInCU: 0x1E2A7, offset: 0x429BA, size: 0x8, addend: 0x0, symName: __ZNSt3__116reverse_iteratorINS0_IPNS_10unique_ptrI6EntityNS_14default_deleteIS2_EEEEEEEC2B8ue170006ES7_, symObjAddr: 0x5D58, symBinAddr: 0x10000E500, symSize: 0x2C }
  - { offsetInCU: 0x1E2DE, offset: 0x429F1, size: 0x8, addend: 0x0, symName: __ZNSt3__116reverse_iteratorIPNS_10unique_ptrI6EntityNS_14default_deleteIS2_EEEEEC2B8ue170006ES6_, symObjAddr: 0x5D84, symBinAddr: 0x10000E52C, symSize: 0x28 }
  - { offsetInCU: 0x1E315, offset: 0x42A28, size: 0x8, addend: 0x0, symName: __ZNSt3__114__split_bufferINS_10unique_ptrI6EntityNS_14default_deleteIS2_EEEERNS_9allocatorIS5_EEED2Ev, symObjAddr: 0x5DAC, symBinAddr: 0x10000E554, symSize: 0x8C }
  - { offsetInCU: 0x1E340, offset: 0x42A53, size: 0x8, addend: 0x0, symName: __ZNSt3__114__split_bufferINS_10unique_ptrI6EntityNS_14default_deleteIS2_EEEERNS_9allocatorIS5_EEE5clearB8ue170006Ev, symObjAddr: 0x5E38, symBinAddr: 0x10000E5E0, symSize: 0x28 }
  - { offsetInCU: 0x1E365, offset: 0x42A78, size: 0x8, addend: 0x0, symName: __ZNKSt3__114__split_bufferINS_10unique_ptrI6EntityNS_14default_deleteIS2_EEEERNS_9allocatorIS5_EEE8capacityB8ue170006Ev, symObjAddr: 0x5E60, symBinAddr: 0x10000E608, symSize: 0x40 }
  - { offsetInCU: 0x1E38A, offset: 0x42A9D, size: 0x8, addend: 0x0, symName: __ZNSt3__114__split_bufferINS_10unique_ptrI6EntityNS_14default_deleteIS2_EEEERNS_9allocatorIS5_EEE17__destruct_at_endB8ue170006EPS5_, symObjAddr: 0x5EA0, symBinAddr: 0x10000E648, symSize: 0x2C }
  - { offsetInCU: 0x1E3BD, offset: 0x42AD0, size: 0x8, addend: 0x0, symName: __ZNSt3__114__split_bufferINS_10unique_ptrI6EntityNS_14default_deleteIS2_EEEERNS_9allocatorIS5_EEE17__destruct_at_endB8ue170006EPS5_NS_17integral_constantIbLb0EEE, symObjAddr: 0x5ECC, symBinAddr: 0x10000E674, symSize: 0x80 }
  - { offsetInCU: 0x1E3FC, offset: 0x42B0F, size: 0x8, addend: 0x0, symName: __ZNKSt3__114__split_bufferINS_10unique_ptrI6EntityNS_14default_deleteIS2_EEEERNS_9allocatorIS5_EEE9__end_capB8ue170006Ev, symObjAddr: 0x5F4C, symBinAddr: 0x10000E6F4, symSize: 0x28 }
  - { offsetInCU: 0x1E421, offset: 0x42B34, size: 0x8, addend: 0x0, symName: __ZNKSt3__117__compressed_pairIPNS_10unique_ptrI6EntityNS_14default_deleteIS2_EEEERNS_9allocatorIS5_EEE5firstB8ue170006Ev, symObjAddr: 0x5F74, symBinAddr: 0x10000E71C, symSize: 0x24 }
  - { offsetInCU: 0x1E446, offset: 0x42B59, size: 0x8, addend: 0x0, symName: __ZNSt3__112basic_stringIcNS_11char_traitsIcEENS_9allocatorIcEEEC2B8ue170006ILi0EEEPKc, symObjAddr: 0x6AB0, symBinAddr: 0x10000E740, symSize: 0x58 }
  - { offsetInCU: 0x1E484, offset: 0x42B97, size: 0x8, addend: 0x0, symName: __ZNSt3__16vectorI12SDL_ScancodeNS_9allocatorIS1_EEEC2B8ue170006ESt16initializer_listIS1_E, symObjAddr: 0x6B08, symBinAddr: 0x10000E798, symSize: 0x120 }
  - { offsetInCU: 0x1E4D4, offset: 0x42BE7, size: 0x8, addend: 0x0, symName: __ZNSt3__117__compressed_pairIP12SDL_ScancodeNS_9allocatorIS1_EEEC1B8ue170006IDnNS_18__default_init_tagEEEOT_OT0_, symObjAddr: 0x6C28, symBinAddr: 0x10000E8B8, symSize: 0x3C }
  - { offsetInCU: 0x1E52B, offset: 0x42C3E, size: 0x8, addend: 0x0, symName: __ZNSt3__16vectorI12SDL_ScancodeNS_9allocatorIS1_EEE16__destroy_vectorC1B8ue170006ERS4_, symObjAddr: 0x6CA4, symBinAddr: 0x10000E934, symSize: 0x34 }
  - { offsetInCU: 0x1E563, offset: 0x42C76, size: 0x8, addend: 0x0, symName: __ZNKSt16initializer_listI12SDL_ScancodeE4sizeB8ue170006Ev, symObjAddr: 0x6CD8, symBinAddr: 0x10000E968, symSize: 0x18 }
  - { offsetInCU: 0x1E588, offset: 0x42C9B, size: 0x8, addend: 0x0, symName: __ZNSt3__16vectorI12SDL_ScancodeNS_9allocatorIS1_EEE11__vallocateB8ue170006Em, symObjAddr: 0x6CF0, symBinAddr: 0x10000E980, symSize: 0xAC }
  - { offsetInCU: 0x1E5CB, offset: 0x42CDE, size: 0x8, addend: 0x0, symName: __ZNSt3__16vectorI12SDL_ScancodeNS_9allocatorIS1_EEE18__construct_at_endIPKS1_S7_EEvT_T0_m, symObjAddr: 0x6D9C, symBinAddr: 0x10000EA2C, symSize: 0x8C }
  - { offsetInCU: 0x1E63F, offset: 0x42D52, size: 0x8, addend: 0x0, symName: __ZNKSt16initializer_listI12SDL_ScancodeE5beginB8ue170006Ev, symObjAddr: 0x6E28, symBinAddr: 0x10000EAB8, symSize: 0x18 }
  - { offsetInCU: 0x1E664, offset: 0x42D77, size: 0x8, addend: 0x0, symName: __ZNKSt16initializer_listI12SDL_ScancodeE3endB8ue170006Ev, symObjAddr: 0x6E40, symBinAddr: 0x10000EAD0, symSize: 0x20 }
  - { offsetInCU: 0x1E689, offset: 0x42D9C, size: 0x8, addend: 0x0, symName: __ZNSt3__128__exception_guard_exceptionsINS_6vectorI12SDL_ScancodeNS_9allocatorIS2_EEE16__destroy_vectorEE10__completeB8ue170006Ev, symObjAddr: 0x6E60, symBinAddr: 0x10000EAF0, symSize: 0x1C }
  - { offsetInCU: 0x1E6AE, offset: 0x42DC1, size: 0x8, addend: 0x0, symName: __ZNSt3__128__exception_guard_exceptionsINS_6vectorI12SDL_ScancodeNS_9allocatorIS2_EEE16__destroy_vectorEED1B8ue170006Ev, symObjAddr: 0x6E7C, symBinAddr: 0x10000EB0C, symSize: 0x2C }
  - { offsetInCU: 0x1E6D7, offset: 0x42DEA, size: 0x8, addend: 0x0, symName: __ZNSt3__117__compressed_pairIP12SDL_ScancodeNS_9allocatorIS1_EEEC2B8ue170006IDnNS_18__default_init_tagEEEOT_OT0_, symObjAddr: 0x6EA8, symBinAddr: 0x10000EB38, symSize: 0x40 }
  - { offsetInCU: 0x1E72E, offset: 0x42E41, size: 0x8, addend: 0x0, symName: __ZNSt3__122__compressed_pair_elemIP12SDL_ScancodeLi0ELb0EEC2B8ue170006IDnvEEOT_, symObjAddr: 0x6EE8, symBinAddr: 0x10000EB78, symSize: 0x1C }
  - { offsetInCU: 0x1E76F, offset: 0x42E82, size: 0x8, addend: 0x0, symName: __ZNSt3__122__compressed_pair_elemINS_9allocatorI12SDL_ScancodeEELi1ELb1EEC2B8ue170006ENS_18__default_init_tagE, symObjAddr: 0x6F04, symBinAddr: 0x10000EB94, symSize: 0x2C }
  - { offsetInCU: 0x1E7A3, offset: 0x42EB6, size: 0x8, addend: 0x0, symName: __ZNSt3__19allocatorI12SDL_ScancodeEC2B8ue170006Ev, symObjAddr: 0x6F30, symBinAddr: 0x10000EBC0, symSize: 0x2C }
  - { offsetInCU: 0x1E7CC, offset: 0x42EDF, size: 0x8, addend: 0x0, symName: __ZNSt3__116__non_trivial_ifILb1ENS_9allocatorI12SDL_ScancodeEEEC2B8ue170006Ev, symObjAddr: 0x6F5C, symBinAddr: 0x10000EBEC, symSize: 0x14 }
  - { offsetInCU: 0x1E7F5, offset: 0x42F08, size: 0x8, addend: 0x0, symName: __ZNSt3__128__exception_guard_exceptionsINS_6vectorI12SDL_ScancodeNS_9allocatorIS2_EEE16__destroy_vectorEEC1B8ue170006ES6_, symObjAddr: 0x6F70, symBinAddr: 0x10000EC00, symSize: 0x34 }
  - { offsetInCU: 0x1E82C, offset: 0x42F3F, size: 0x8, addend: 0x0, symName: __ZNSt3__128__exception_guard_exceptionsINS_6vectorI12SDL_ScancodeNS_9allocatorIS2_EEE16__destroy_vectorEEC2B8ue170006ES6_, symObjAddr: 0x6FA4, symBinAddr: 0x10000EC34, symSize: 0x24 }
  - { offsetInCU: 0x1E863, offset: 0x42F76, size: 0x8, addend: 0x0, symName: __ZNSt3__16vectorI12SDL_ScancodeNS_9allocatorIS1_EEE16__destroy_vectorC2B8ue170006ERS4_, symObjAddr: 0x6FC8, symBinAddr: 0x10000EC58, symSize: 0x20 }
  - { offsetInCU: 0x1E89B, offset: 0x42FAE, size: 0x8, addend: 0x0, symName: __ZNKSt3__16vectorI12SDL_ScancodeNS_9allocatorIS1_EEE8max_sizeEv, symObjAddr: 0x6FE8, symBinAddr: 0x10000EC78, symSize: 0x60 }
  - { offsetInCU: 0x1E8C1, offset: 0x42FD4, size: 0x8, addend: 0x0, symName: __ZNKSt3__16vectorI12SDL_ScancodeNS_9allocatorIS1_EEE20__throw_length_errorB8ue170006Ev, symObjAddr: 0x7048, symBinAddr: 0x10000ECD8, symSize: 0x1C }
  - { offsetInCU: 0x1E8E6, offset: 0x42FF9, size: 0x8, addend: 0x0, symName: __ZNSt3__16vectorI12SDL_ScancodeNS_9allocatorIS1_EEE7__allocB8ue170006Ev, symObjAddr: 0x70A4, symBinAddr: 0x10000ED34, symSize: 0x28 }
  - { offsetInCU: 0x1E90B, offset: 0x4301E, size: 0x8, addend: 0x0, symName: __ZNSt3__16vectorI12SDL_ScancodeNS_9allocatorIS1_EEE9__end_capB8ue170006Ev, symObjAddr: 0x70CC, symBinAddr: 0x10000ED5C, symSize: 0x28 }
  - { offsetInCU: 0x1E930, offset: 0x43043, size: 0x8, addend: 0x0, symName: __ZNKSt3__16vectorI12SDL_ScancodeNS_9allocatorIS1_EEE14__annotate_newB8ue170006Em, symObjAddr: 0x70F4, symBinAddr: 0x10000ED84, symSize: 0xAC }
  - { offsetInCU: 0x1E96E, offset: 0x43081, size: 0x8, addend: 0x0, symName: __ZNSt3__116allocator_traitsINS_9allocatorI12SDL_ScancodeEEE8max_sizeB8ue170006IS3_vEEmRKS3_, symObjAddr: 0x71A0, symBinAddr: 0x10000EE30, symSize: 0x24 }
  - { offsetInCU: 0x1E99C, offset: 0x430AF, size: 0x8, addend: 0x0, symName: __ZNKSt3__16vectorI12SDL_ScancodeNS_9allocatorIS1_EEE7__allocB8ue170006Ev, symObjAddr: 0x71C4, symBinAddr: 0x10000EE54, symSize: 0x28 }
  - { offsetInCU: 0x1E9C1, offset: 0x430D4, size: 0x8, addend: 0x0, symName: __ZNKSt3__19allocatorI12SDL_ScancodeE8max_sizeB8ue170006Ev, symObjAddr: 0x71EC, symBinAddr: 0x10000EE7C, symSize: 0x14 }
  - { offsetInCU: 0x1E9E6, offset: 0x430F9, size: 0x8, addend: 0x0, symName: __ZNKSt3__117__compressed_pairIP12SDL_ScancodeNS_9allocatorIS1_EEE6secondB8ue170006Ev, symObjAddr: 0x7200, symBinAddr: 0x10000EE90, symSize: 0x24 }
  - { offsetInCU: 0x1EA0B, offset: 0x4311E, size: 0x8, addend: 0x0, symName: __ZNKSt3__122__compressed_pair_elemINS_9allocatorI12SDL_ScancodeEELi1ELb1EE5__getB8ue170006Ev, symObjAddr: 0x7224, symBinAddr: 0x10000EEB4, symSize: 0x14 }
  - { offsetInCU: 0x1EA30, offset: 0x43143, size: 0x8, addend: 0x0, symName: __ZNSt3__19allocatorI12SDL_ScancodeE8allocateB8ue170006Em, symObjAddr: 0x7238, symBinAddr: 0x10000EEC8, symSize: 0x58 }
  - { offsetInCU: 0x1EA63, offset: 0x43176, size: 0x8, addend: 0x0, symName: __ZNSt3__117__compressed_pairIP12SDL_ScancodeNS_9allocatorIS1_EEE6secondB8ue170006Ev, symObjAddr: 0x7290, symBinAddr: 0x10000EF20, symSize: 0x24 }
  - { offsetInCU: 0x1EA88, offset: 0x4319B, size: 0x8, addend: 0x0, symName: __ZNSt3__122__compressed_pair_elemINS_9allocatorI12SDL_ScancodeEELi1ELb1EE5__getB8ue170006Ev, symObjAddr: 0x72B4, symBinAddr: 0x10000EF44, symSize: 0x14 }
  - { offsetInCU: 0x1EAAD, offset: 0x431C0, size: 0x8, addend: 0x0, symName: __ZNSt3__117__compressed_pairIP12SDL_ScancodeNS_9allocatorIS1_EEE5firstB8ue170006Ev, symObjAddr: 0x72C8, symBinAddr: 0x10000EF58, symSize: 0x24 }
  - { offsetInCU: 0x1EAD2, offset: 0x431E5, size: 0x8, addend: 0x0, symName: __ZNSt3__122__compressed_pair_elemIP12SDL_ScancodeLi0ELb0EE5__getB8ue170006Ev, symObjAddr: 0x72EC, symBinAddr: 0x10000EF7C, symSize: 0x14 }
  - { offsetInCU: 0x1EAF7, offset: 0x4320A, size: 0x8, addend: 0x0, symName: __ZNKSt3__16vectorI12SDL_ScancodeNS_9allocatorIS1_EEE31__annotate_contiguous_containerB8ue170006EPKvS6_S6_S6_, symObjAddr: 0x7300, symBinAddr: 0x10000EF90, symSize: 0x20 }
  - { offsetInCU: 0x1EB48, offset: 0x4325B, size: 0x8, addend: 0x0, symName: __ZNKSt3__16vectorI12SDL_ScancodeNS_9allocatorIS1_EEE4dataB8ue170006Ev, symObjAddr: 0x7320, symBinAddr: 0x10000EFB0, symSize: 0x28 }
  - { offsetInCU: 0x1EB6D, offset: 0x43280, size: 0x8, addend: 0x0, symName: __ZNKSt3__16vectorI12SDL_ScancodeNS_9allocatorIS1_EEE8capacityB8ue170006Ev, symObjAddr: 0x7348, symBinAddr: 0x10000EFD8, symSize: 0x40 }
  - { offsetInCU: 0x1EB92, offset: 0x432A5, size: 0x8, addend: 0x0, symName: __ZNKSt3__16vectorI12SDL_ScancodeNS_9allocatorIS1_EEE9__end_capB8ue170006Ev, symObjAddr: 0x739C, symBinAddr: 0x10000F02C, symSize: 0x28 }
  - { offsetInCU: 0x1EBB7, offset: 0x432CA, size: 0x8, addend: 0x0, symName: __ZNKSt3__117__compressed_pairIP12SDL_ScancodeNS_9allocatorIS1_EEE5firstB8ue170006Ev, symObjAddr: 0x73C4, symBinAddr: 0x10000F054, symSize: 0x24 }
  - { offsetInCU: 0x1EBDC, offset: 0x432EF, size: 0x8, addend: 0x0, symName: __ZNKSt3__122__compressed_pair_elemIP12SDL_ScancodeLi0ELb0EE5__getB8ue170006Ev, symObjAddr: 0x73E8, symBinAddr: 0x10000F078, symSize: 0x14 }
  - { offsetInCU: 0x1EC1A, offset: 0x4332D, size: 0x8, addend: 0x0, symName: __ZNSt3__16vectorI12SDL_ScancodeNS_9allocatorIS1_EEE21_ConstructTransactionC1B8ue170006ERS4_m, symObjAddr: 0x73FC, symBinAddr: 0x10000F08C, symSize: 0x3C }
  - { offsetInCU: 0x1EC61, offset: 0x43374, size: 0x8, addend: 0x0, symName: __ZNSt3__16vectorI12SDL_ScancodeNS_9allocatorIS1_EEE21_ConstructTransactionD1B8ue170006Ev, symObjAddr: 0x74B8, symBinAddr: 0x10000F148, symSize: 0x2C }
  - { offsetInCU: 0x1EC8A, offset: 0x4339D, size: 0x8, addend: 0x0, symName: __ZNSt3__16vectorI12SDL_ScancodeNS_9allocatorIS1_EEE21_ConstructTransactionC2B8ue170006ERS4_m, symObjAddr: 0x74E4, symBinAddr: 0x10000F174, symSize: 0x44 }
  - { offsetInCU: 0x1ECEF, offset: 0x43402, size: 0x8, addend: 0x0, symName: __ZNSt3__14pairIPK12SDL_ScancodeS3_EC1B8ue170006IS3_S3_LPv0EEEOT_OT0_, symObjAddr: 0x767C, symBinAddr: 0x10000F30C, symSize: 0x3C }
  - { offsetInCU: 0x1ED4C, offset: 0x4345F, size: 0x8, addend: 0x0, symName: __ZNSt3__14pairIPK12SDL_ScancodeS3_EC2B8ue170006IS3_S3_LPv0EEEOT_OT0_, symObjAddr: 0x76B8, symBinAddr: 0x10000F348, symSize: 0x34 }
  - { offsetInCU: 0x1EDA9, offset: 0x434BC, size: 0x8, addend: 0x0, symName: __ZNSt3__118__unwrap_iter_implIPK12SDL_ScancodeLb1EE8__unwrapB8ue170006ES3_, symObjAddr: 0x76EC, symBinAddr: 0x10000F37C, symSize: 0x24 }
  - { offsetInCU: 0x1EDEF, offset: 0x43502, size: 0x8, addend: 0x0, symName: __ZNKSt3__114__copy_trivialclB8ue170006IK12SDL_ScancodeS2_Li0EEENS_4pairIPT_PT0_EES6_S6_S8_, symObjAddr: 0x78A0, symBinAddr: 0x10000F530, symSize: 0x48 }
  - { offsetInCU: 0x1EE60, offset: 0x43573, size: 0x8, addend: 0x0, symName: __ZNSt3__14pairIPK12SDL_ScancodePS1_EC1B8ue170006IRS3_S4_LPv0EEEOT_OT0_, symObjAddr: 0x7A68, symBinAddr: 0x10000F6F8, symSize: 0x3C }
  - { offsetInCU: 0x1EEBD, offset: 0x435D0, size: 0x8, addend: 0x0, symName: __ZNSt3__14pairIPK12SDL_ScancodePS1_EC2B8ue170006IRS3_S4_LPv0EEEOT_OT0_, symObjAddr: 0x7AA4, symBinAddr: 0x10000F734, symSize: 0x34 }
  - { offsetInCU: 0x1EF1A, offset: 0x4362D, size: 0x8, addend: 0x0, symName: __ZNSt3__14pairIPK12SDL_ScancodePS1_EC1B8ue170006IS3_S4_LPv0EEEOT_OT0_, symObjAddr: 0x7AD8, symBinAddr: 0x10000F768, symSize: 0x3C }
  - { offsetInCU: 0x1EF77, offset: 0x4368A, size: 0x8, addend: 0x0, symName: __ZNSt3__14pairIPK12SDL_ScancodePS1_EC2B8ue170006IS3_S4_LPv0EEEOT_OT0_, symObjAddr: 0x7B14, symBinAddr: 0x10000F7A4, symSize: 0x34 }
  - { offsetInCU: 0x1EFD4, offset: 0x436E7, size: 0x8, addend: 0x0, symName: __ZNSt3__118__unwrap_iter_implIPK12SDL_ScancodeLb1EE8__rewrapB8ue170006ES3_S3_, symObjAddr: 0x7B84, symBinAddr: 0x10000F814, symSize: 0x50 }
  - { offsetInCU: 0x1F005, offset: 0x43718, size: 0x8, addend: 0x0, symName: __ZNSt3__118__unwrap_iter_implIP12SDL_ScancodeLb1EE8__unwrapB8ue170006ES2_, symObjAddr: 0x7BD4, symBinAddr: 0x10000F864, symSize: 0x24 }
  - { offsetInCU: 0x1F028, offset: 0x4373B, size: 0x8, addend: 0x0, symName: __ZNSt3__118__unwrap_iter_implIP12SDL_ScancodeLb1EE8__rewrapB8ue170006ES2_S2_, symObjAddr: 0x7BF8, symBinAddr: 0x10000F888, symSize: 0x50 }
  - { offsetInCU: 0x1F059, offset: 0x4376C, size: 0x8, addend: 0x0, symName: __ZNSt3__16vectorI12SDL_ScancodeNS_9allocatorIS1_EEE21_ConstructTransactionD2B8ue170006Ev, symObjAddr: 0x7C48, symBinAddr: 0x10000F8D8, symSize: 0x20 }
  - { offsetInCU: 0x1F082, offset: 0x43795, size: 0x8, addend: 0x0, symName: __ZNSt3__128__exception_guard_exceptionsINS_6vectorI12SDL_ScancodeNS_9allocatorIS2_EEE16__destroy_vectorEED2B8ue170006Ev, symObjAddr: 0x7C68, symBinAddr: 0x10000F8F8, symSize: 0x50 }
  - { offsetInCU: 0x1F0AB, offset: 0x437BE, size: 0x8, addend: 0x0, symName: __ZNSt3__16vectorI12SDL_ScancodeNS_9allocatorIS1_EEE16__destroy_vectorclB8ue170006Ev, symObjAddr: 0x7CB8, symBinAddr: 0x10000F948, symSize: 0x90 }
  - { offsetInCU: 0x1F0D0, offset: 0x437E3, size: 0x8, addend: 0x0, symName: __ZNSt3__16vectorI12SDL_ScancodeNS_9allocatorIS1_EEE7__clearB8ue170006Ev, symObjAddr: 0x7D48, symBinAddr: 0x10000F9D8, symSize: 0x28 }
  - { offsetInCU: 0x1F0F5, offset: 0x43808, size: 0x8, addend: 0x0, symName: __ZNKSt3__16vectorI12SDL_ScancodeNS_9allocatorIS1_EEE17__annotate_deleteB8ue170006Ev, symObjAddr: 0x7D70, symBinAddr: 0x10000FA00, symSize: 0xB8 }
  - { offsetInCU: 0x1F11A, offset: 0x4382D, size: 0x8, addend: 0x0, symName: __ZNSt3__116allocator_traitsINS_9allocatorI12SDL_ScancodeEEE10deallocateB8ue170006ERS3_PS2_m, symObjAddr: 0x7E28, symBinAddr: 0x10000FAB8, symSize: 0x34 }
  - { offsetInCU: 0x1F15C, offset: 0x4386F, size: 0x8, addend: 0x0, symName: __ZNSt3__16vectorI12SDL_ScancodeNS_9allocatorIS1_EEE22__base_destruct_at_endB8ue170006EPS1_, symObjAddr: 0x7E5C, symBinAddr: 0x10000FAEC, symSize: 0x8C }
  - { offsetInCU: 0x1F19F, offset: 0x438B2, size: 0x8, addend: 0x0, symName: __ZNSt3__116allocator_traitsINS_9allocatorI12SDL_ScancodeEEE7destroyB8ue170006IS2_vEEvRS3_PT_, symObjAddr: 0x7EE8, symBinAddr: 0x10000FB78, symSize: 0x2C }
  - { offsetInCU: 0x1F1DC, offset: 0x438EF, size: 0x8, addend: 0x0, symName: __ZNSt3__19allocatorI12SDL_ScancodeE7destroyB8ue170006EPS1_, symObjAddr: 0x7F14, symBinAddr: 0x10000FBA4, symSize: 0x14 }
  - { offsetInCU: 0x1F20F, offset: 0x43922, size: 0x8, addend: 0x0, symName: __ZNKSt3__16vectorI12SDL_ScancodeNS_9allocatorIS1_EEE4sizeB8ue170006Ev, symObjAddr: 0x7F28, symBinAddr: 0x10000FBB8, symSize: 0x28 }
  - { offsetInCU: 0x1F234, offset: 0x43947, size: 0x8, addend: 0x0, symName: __ZNSt3__19allocatorI12SDL_ScancodeE10deallocateB8ue170006EPS1_m, symObjAddr: 0x7F50, symBinAddr: 0x10000FBE0, symSize: 0x40 }
  - { offsetInCU: 0x1F275, offset: 0x43988, size: 0x8, addend: 0x0, symName: __ZNSt3__16vectorI12SDL_ScancodeNS_9allocatorIS1_EEED2B8ue170006Ev, symObjAddr: 0x7F90, symBinAddr: 0x10000FC20, symSize: 0x40 }
  - { offsetInCU: 0x1F29E, offset: 0x439B1, size: 0x8, addend: 0x0, symName: __ZNSt3__16vectorIP17ColliderComponentNS_9allocatorIS2_EEEC2B8ue170006Ev, symObjAddr: 0x7FD0, symBinAddr: 0x10000FC60, symSize: 0x4C }
  - { offsetInCU: 0x1F2C7, offset: 0x439DA, size: 0x8, addend: 0x0, symName: __ZNSt3__117__compressed_pairIPP17ColliderComponentNS_9allocatorIS2_EEEC1B8ue170006IDnNS_18__default_init_tagEEEOT_OT0_, symObjAddr: 0x801C, symBinAddr: 0x10000FCAC, symSize: 0x3C }
  - { offsetInCU: 0x1F31E, offset: 0x43A31, size: 0x8, addend: 0x0, symName: __ZNSt3__117__compressed_pairIPP17ColliderComponentNS_9allocatorIS2_EEEC2B8ue170006IDnNS_18__default_init_tagEEEOT_OT0_, symObjAddr: 0x8058, symBinAddr: 0x10000FCE8, symSize: 0x40 }
  - { offsetInCU: 0x1F375, offset: 0x43A88, size: 0x8, addend: 0x0, symName: __ZNSt3__122__compressed_pair_elemIPP17ColliderComponentLi0ELb0EEC2B8ue170006IDnvEEOT_, symObjAddr: 0x8098, symBinAddr: 0x10000FD28, symSize: 0x1C }
  - { offsetInCU: 0x1F3B6, offset: 0x43AC9, size: 0x8, addend: 0x0, symName: __ZNSt3__122__compressed_pair_elemINS_9allocatorIP17ColliderComponentEELi1ELb1EEC2B8ue170006ENS_18__default_init_tagE, symObjAddr: 0x80B4, symBinAddr: 0x10000FD44, symSize: 0x2C }
  - { offsetInCU: 0x1F3EA, offset: 0x43AFD, size: 0x8, addend: 0x0, symName: __ZNSt3__19allocatorIP17ColliderComponentEC2B8ue170006Ev, symObjAddr: 0x80E0, symBinAddr: 0x10000FD70, symSize: 0x2C }
  - { offsetInCU: 0x1F413, offset: 0x43B26, size: 0x8, addend: 0x0, symName: __ZNSt3__116__non_trivial_ifILb1ENS_9allocatorIP17ColliderComponentEEEC2B8ue170006Ev, symObjAddr: 0x810C, symBinAddr: 0x10000FD9C, symSize: 0x14 }
  - { offsetInCU: 0x1F43C, offset: 0x43B4F, size: 0x8, addend: 0x0, symName: __ZNSt3__16vectorIP17ColliderComponentNS_9allocatorIS2_EEED2B8ue170006Ev, symObjAddr: 0x8120, symBinAddr: 0x10000FDB0, symSize: 0x44 }
  - { offsetInCU: 0x1F465, offset: 0x43B78, size: 0x8, addend: 0x0, symName: __ZNSt3__16vectorIP17ColliderComponentNS_9allocatorIS2_EEE16__destroy_vectorC1B8ue170006ERS5_, symObjAddr: 0x8164, symBinAddr: 0x10000FDF4, symSize: 0x34 }
  - { offsetInCU: 0x1F49D, offset: 0x43BB0, size: 0x8, addend: 0x0, symName: __ZNSt3__16vectorIP17ColliderComponentNS_9allocatorIS2_EEE16__destroy_vectorclB8ue170006Ev, symObjAddr: 0x8198, symBinAddr: 0x10000FE28, symSize: 0x90 }
  - { offsetInCU: 0x1F4C2, offset: 0x43BD5, size: 0x8, addend: 0x0, symName: __ZNSt3__16vectorIP17ColliderComponentNS_9allocatorIS2_EEE16__destroy_vectorC2B8ue170006ERS5_, symObjAddr: 0x8228, symBinAddr: 0x10000FEB8, symSize: 0x20 }
  - { offsetInCU: 0x1F4FA, offset: 0x43C0D, size: 0x8, addend: 0x0, symName: __ZNSt3__16vectorIP17ColliderComponentNS_9allocatorIS2_EEE7__clearB8ue170006Ev, symObjAddr: 0x8248, symBinAddr: 0x10000FED8, symSize: 0x28 }
  - { offsetInCU: 0x1F51F, offset: 0x43C32, size: 0x8, addend: 0x0, symName: __ZNKSt3__16vectorIP17ColliderComponentNS_9allocatorIS2_EEE17__annotate_deleteB8ue170006Ev, symObjAddr: 0x8270, symBinAddr: 0x10000FF00, symSize: 0xB8 }
  - { offsetInCU: 0x1F544, offset: 0x43C57, size: 0x8, addend: 0x0, symName: __ZNSt3__116allocator_traitsINS_9allocatorIP17ColliderComponentEEE10deallocateB8ue170006ERS4_PS3_m, symObjAddr: 0x8328, symBinAddr: 0x10000FFB8, symSize: 0x34 }
  - { offsetInCU: 0x1F586, offset: 0x43C99, size: 0x8, addend: 0x0, symName: __ZNSt3__16vectorIP17ColliderComponentNS_9allocatorIS2_EEE7__allocB8ue170006Ev, symObjAddr: 0x835C, symBinAddr: 0x10000FFEC, symSize: 0x28 }
  - { offsetInCU: 0x1F5AB, offset: 0x43CBE, size: 0x8, addend: 0x0, symName: __ZNKSt3__16vectorIP17ColliderComponentNS_9allocatorIS2_EEE8capacityB8ue170006Ev, symObjAddr: 0x8384, symBinAddr: 0x100010014, symSize: 0x40 }
  - { offsetInCU: 0x1F5D0, offset: 0x43CE3, size: 0x8, addend: 0x0, symName: __ZNSt3__16vectorIP17ColliderComponentNS_9allocatorIS2_EEE22__base_destruct_at_endB8ue170006EPS2_, symObjAddr: 0x83C4, symBinAddr: 0x100010054, symSize: 0x8C }
  - { offsetInCU: 0x1F613, offset: 0x43D26, size: 0x8, addend: 0x0, symName: __ZNSt3__116allocator_traitsINS_9allocatorIP17ColliderComponentEEE7destroyB8ue170006IS3_vEEvRS4_PT_, symObjAddr: 0x8450, symBinAddr: 0x1000100E0, symSize: 0x2C }
  - { offsetInCU: 0x1F650, offset: 0x43D63, size: 0x8, addend: 0x0, symName: __ZNSt3__19allocatorIP17ColliderComponentE7destroyB8ue170006EPS2_, symObjAddr: 0x8490, symBinAddr: 0x100010120, symSize: 0x14 }
  - { offsetInCU: 0x1F683, offset: 0x43D96, size: 0x8, addend: 0x0, symName: __ZNKSt3__16vectorIP17ColliderComponentNS_9allocatorIS2_EEE31__annotate_contiguous_containerB8ue170006EPKvS7_S7_S7_, symObjAddr: 0x84A4, symBinAddr: 0x100010134, symSize: 0x20 }
  - { offsetInCU: 0x1F6D4, offset: 0x43DE7, size: 0x8, addend: 0x0, symName: __ZNKSt3__16vectorIP17ColliderComponentNS_9allocatorIS2_EEE4dataB8ue170006Ev, symObjAddr: 0x84C4, symBinAddr: 0x100010154, symSize: 0x28 }
  - { offsetInCU: 0x1F6F9, offset: 0x43E0C, size: 0x8, addend: 0x0, symName: __ZNKSt3__16vectorIP17ColliderComponentNS_9allocatorIS2_EEE4sizeB8ue170006Ev, symObjAddr: 0x84EC, symBinAddr: 0x10001017C, symSize: 0x28 }
  - { offsetInCU: 0x1F71E, offset: 0x43E31, size: 0x8, addend: 0x0, symName: __ZNSt3__19allocatorIP17ColliderComponentE10deallocateB8ue170006EPS2_m, symObjAddr: 0x8514, symBinAddr: 0x1000101A4, symSize: 0x40 }
  - { offsetInCU: 0x1F75F, offset: 0x43E72, size: 0x8, addend: 0x0, symName: __ZNSt3__117__compressed_pairIPP17ColliderComponentNS_9allocatorIS2_EEE6secondB8ue170006Ev, symObjAddr: 0x8554, symBinAddr: 0x1000101E4, symSize: 0x24 }
  - { offsetInCU: 0x1F784, offset: 0x43E97, size: 0x8, addend: 0x0, symName: __ZNSt3__122__compressed_pair_elemINS_9allocatorIP17ColliderComponentEELi1ELb1EE5__getB8ue170006Ev, symObjAddr: 0x8578, symBinAddr: 0x100010208, symSize: 0x14 }
  - { offsetInCU: 0x1F7A9, offset: 0x43EBC, size: 0x8, addend: 0x0, symName: __ZNKSt3__16vectorIP17ColliderComponentNS_9allocatorIS2_EEE9__end_capB8ue170006Ev, symObjAddr: 0x858C, symBinAddr: 0x10001021C, symSize: 0x28 }
  - { offsetInCU: 0x1F7CE, offset: 0x43EE1, size: 0x8, addend: 0x0, symName: __ZNKSt3__117__compressed_pairIPP17ColliderComponentNS_9allocatorIS2_EEE5firstB8ue170006Ev, symObjAddr: 0x85B4, symBinAddr: 0x100010244, symSize: 0x24 }
  - { offsetInCU: 0x1F7F3, offset: 0x43F06, size: 0x8, addend: 0x0, symName: __ZNKSt3__122__compressed_pair_elemIPP17ColliderComponentLi0ELb0EE5__getB8ue170006Ev, symObjAddr: 0x85D8, symBinAddr: 0x100010268, symSize: 0x14 }
  - { offsetInCU: 0x1F818, offset: 0x43F2B, size: 0x8, addend: 0x0, symName: '__ZNSt3__18functionIFNS_10unique_ptrI5SceneNS_14default_deleteIS2_EEEEvEEC2IZN4Game4initEPKciiiibE3$_0vEET_', symObjAddr: 0x85EC, symBinAddr: 0x10001027C, symSize: 0x30 }
  - { offsetInCU: 0x1F85C, offset: 0x43F6F, size: 0x8, addend: 0x0, symName: '__ZNSt3__110__function12__value_funcIFNS_10unique_ptrI5SceneNS_14default_deleteIS3_EEEEvEEC1B8ue170006IZN4Game4initEPKciiiibE3$_0vEEOT_', symObjAddr: 0x861C, symBinAddr: 0x1000102AC, symSize: 0x50 }
  - { offsetInCU: 0x1F89E, offset: 0x43FB1, size: 0x8, addend: 0x0, symName: '__ZNSt3__19allocatorIZN4Game4initEPKciiiibE3$_0EC1B8ue170006Ev', symObjAddr: 0x866C, symBinAddr: 0x1000102FC, symSize: 0x2C }
  - { offsetInCU: 0x1F8C7, offset: 0x43FDA, size: 0x8, addend: 0x0, symName: '__ZNSt3__110__function12__value_funcIFNS_10unique_ptrI5SceneNS_14default_deleteIS3_EEEEvEEC1B8ue170006IZN4Game4initEPKciiiibE3$_0NS_9allocatorISD_EEEEOT_RKT0_', symObjAddr: 0x8698, symBinAddr: 0x100010328, symSize: 0x3C }
  - { offsetInCU: 0x1F920, offset: 0x44033, size: 0x8, addend: 0x0, symName: '__ZNSt3__19allocatorIZN4Game4initEPKciiiibE3$_0EC2B8ue170006Ev', symObjAddr: 0x86D4, symBinAddr: 0x100010364, symSize: 0x2C }
  - { offsetInCU: 0x1F949, offset: 0x4405C, size: 0x8, addend: 0x0, symName: '__ZNSt3__116__non_trivial_ifILb1ENS_9allocatorIZN4Game4initEPKciiiibE3$_0EEEC2B8ue170006Ev', symObjAddr: 0x8700, symBinAddr: 0x100010390, symSize: 0x14 }
  - { offsetInCU: 0x1F972, offset: 0x44085, size: 0x8, addend: 0x0, symName: '__ZNSt3__110__function12__value_funcIFNS_10unique_ptrI5SceneNS_14default_deleteIS3_EEEEvEEC2B8ue170006IZN4Game4initEPKciiiibE3$_0NS_9allocatorISD_EEEEOT_RKT0_', symObjAddr: 0x8714, symBinAddr: 0x1000103A4, symSize: 0x94 }
  - { offsetInCU: 0x1FA17, offset: 0x4412A, size: 0x8, addend: 0x0, symName: '__ZNSt3__19allocatorINS_10__function6__funcIZN4Game4initEPKciiiibE3$_0NS0_IS6_EEFNS_10unique_ptrI5SceneNS_14default_deleteIS9_EEEEvEEEEC1B8ue170006IS6_EERKNS0_IT_EE', symObjAddr: 0x87C0, symBinAddr: 0x100010450, symSize: 0x34 }
  - { offsetInCU: 0x1FA59, offset: 0x4416C, size: 0x8, addend: 0x0, symName: '__ZNSt3__19allocatorIZN4Game4initEPKciiiibE3$_0EC1B8ue170006INS_10__function6__funcIS4_S5_FNS_10unique_ptrI5SceneNS_14default_deleteISA_EEEEvEEEEERKNS0_IT_EE', symObjAddr: 0x87F4, symBinAddr: 0x100010484, symSize: 0x34 }
  - { offsetInCU: 0x1FA96, offset: 0x441A9, size: 0x8, addend: 0x0, symName: '__ZNSt3__110__function6__funcIZN4Game4initEPKciiiibE3$_0NS_9allocatorIS5_EEFNS_10unique_ptrI5SceneNS_14default_deleteIS9_EEEEvEEC1B8ue170006EOS5_OS7_', symObjAddr: 0x8828, symBinAddr: 0x1000104B8, symSize: 0x3C }
  - { offsetInCU: 0x1FADD, offset: 0x441F0, size: 0x8, addend: 0x0, symName: '__ZNSt3__19allocatorINS_10__function6__funcIZN4Game4initEPKciiiibE3$_0NS0_IS6_EEFNS_10unique_ptrI5SceneNS_14default_deleteIS9_EEEEvEEEEC2B8ue170006IS6_EERKNS0_IT_EE', symObjAddr: 0x8864, symBinAddr: 0x1000104F4, symSize: 0x30 }
  - { offsetInCU: 0x1FB1A, offset: 0x4422D, size: 0x8, addend: 0x0, symName: '__ZNSt3__116__non_trivial_ifILb1ENS_9allocatorINS_10__function6__funcIZN4Game4initEPKciiiibE3$_0NS1_IS7_EEFNS_10unique_ptrI5SceneNS_14default_deleteISA_EEEEvEEEEEEC2B8ue170006Ev', symObjAddr: 0x8894, symBinAddr: 0x100010524, symSize: 0x14 }
  - { offsetInCU: 0x1FB43, offset: 0x44256, size: 0x8, addend: 0x0, symName: '__ZNSt3__19allocatorIZN4Game4initEPKciiiibE3$_0EC2B8ue170006INS_10__function6__funcIS4_S5_FNS_10unique_ptrI5SceneNS_14default_deleteISA_EEEEvEEEEERKNS0_IT_EE', symObjAddr: 0x88A8, symBinAddr: 0x100010538, symSize: 0x30 }
  - { offsetInCU: 0x1FB80, offset: 0x44293, size: 0x8, addend: 0x0, symName: '__ZNSt3__110__function6__funcIZN4Game4initEPKciiiibE3$_0NS_9allocatorIS5_EEFNS_10unique_ptrI5SceneNS_14default_deleteIS9_EEEEvEEC2B8ue170006EOS5_OS7_', symObjAddr: 0x88D8, symBinAddr: 0x100010568, symSize: 0x88 }
  - { offsetInCU: 0x1FBC7, offset: 0x442DA, size: 0x8, addend: 0x0, symName: __ZNSt3__110__function6__baseIFNS_10unique_ptrI5SceneNS_14default_deleteIS3_EEEEvEEC2B8ue170006Ev, symObjAddr: 0x8960, symBinAddr: 0x1000105F0, symSize: 0x24 }
  - { offsetInCU: 0x1FBF0, offset: 0x44303, size: 0x8, addend: 0x0, symName: '__ZNSt3__110__function12__alloc_funcIZN4Game4initEPKciiiibE3$_0NS_9allocatorIS5_EEFNS_10unique_ptrI5SceneNS_14default_deleteIS9_EEEEvEEC1B8ue170006EOS5_OS7_', symObjAddr: 0x8984, symBinAddr: 0x100010614, symSize: 0x3C }
  - { offsetInCU: 0x1FC35, offset: 0x44348, size: 0x8, addend: 0x0, symName: __ZNSt3__110__function6__baseIFNS_10unique_ptrI5SceneNS_14default_deleteIS3_EEEEvEED2Ev, symObjAddr: 0x89C0, symBinAddr: 0x100010650, symSize: 0x14 }
  - { offsetInCU: 0x1FC5E, offset: 0x44371, size: 0x8, addend: 0x0, symName: '__ZNSt3__110__function6__funcIZN4Game4initEPKciiiibE3$_0NS_9allocatorIS5_EEFNS_10unique_ptrI5SceneNS_14default_deleteIS9_EEEEvEED1Ev', symObjAddr: 0x89D4, symBinAddr: 0x100010664, symSize: 0x2C }
  - { offsetInCU: 0x1FC8A, offset: 0x4439D, size: 0x8, addend: 0x0, symName: '__ZNSt3__110__function6__funcIZN4Game4initEPKciiiibE3$_0NS_9allocatorIS5_EEFNS_10unique_ptrI5SceneNS_14default_deleteIS9_EEEEvEED0Ev', symObjAddr: 0x8A00, symBinAddr: 0x100010690, symSize: 0x30 }
  - { offsetInCU: 0x1FCB6, offset: 0x443C9, size: 0x8, addend: 0x0, symName: '__ZNKSt3__110__function6__funcIZN4Game4initEPKciiiibE3$_0NS_9allocatorIS5_EEFNS_10unique_ptrI5SceneNS_14default_deleteIS9_EEEEvEE7__cloneEv', symObjAddr: 0x8A30, symBinAddr: 0x1000106C0, symSize: 0xFC }
  - { offsetInCU: 0x1FD06, offset: 0x44419, size: 0x8, addend: 0x0, symName: '__ZNKSt3__110__function6__funcIZN4Game4initEPKciiiibE3$_0NS_9allocatorIS5_EEFNS_10unique_ptrI5SceneNS_14default_deleteIS9_EEEEvEE7__cloneEPNS0_6__baseISD_EE', symObjAddr: 0x8B2C, symBinAddr: 0x1000107BC, symSize: 0x58 }
  - { offsetInCU: 0x1FD3B, offset: 0x4444E, size: 0x8, addend: 0x0, symName: '__ZNSt3__110__function6__funcIZN4Game4initEPKciiiibE3$_0NS_9allocatorIS5_EEFNS_10unique_ptrI5SceneNS_14default_deleteIS9_EEEEvEE7destroyEv', symObjAddr: 0x8B84, symBinAddr: 0x100010814, symSize: 0x28 }
  - { offsetInCU: 0x1FD61, offset: 0x44474, size: 0x8, addend: 0x0, symName: '__ZNSt3__110__function6__funcIZN4Game4initEPKciiiibE3$_0NS_9allocatorIS5_EEFNS_10unique_ptrI5SceneNS_14default_deleteIS9_EEEEvEE18destroy_deallocateEv', symObjAddr: 0x8BAC, symBinAddr: 0x10001083C, symSize: 0x58 }
  - { offsetInCU: 0x1FDA2, offset: 0x444B5, size: 0x8, addend: 0x0, symName: '__ZNSt3__110__function6__funcIZN4Game4initEPKciiiibE3$_0NS_9allocatorIS5_EEFNS_10unique_ptrI5SceneNS_14default_deleteIS9_EEEEvEEclEv', symObjAddr: 0x8C04, symBinAddr: 0x100010894, symSize: 0x30 }
  - { offsetInCU: 0x1FDC8, offset: 0x444DB, size: 0x8, addend: 0x0, symName: '__ZNKSt3__110__function6__funcIZN4Game4initEPKciiiibE3$_0NS_9allocatorIS5_EEFNS_10unique_ptrI5SceneNS_14default_deleteIS9_EEEEvEE6targetERKSt9type_info', symObjAddr: 0x8C34, symBinAddr: 0x1000108C4, symSize: 0x60 }
  - { offsetInCU: 0x1FDFD, offset: 0x44510, size: 0x8, addend: 0x0, symName: '__ZNKSt3__110__function6__funcIZN4Game4initEPKciiiibE3$_0NS_9allocatorIS5_EEFNS_10unique_ptrI5SceneNS_14default_deleteIS9_EEEEvEE11target_typeEv', symObjAddr: 0x8C94, symBinAddr: 0x100010924, symSize: 0x18 }
  - { offsetInCU: 0x1FE24, offset: 0x44537, size: 0x8, addend: 0x0, symName: __ZNSt3__110__function6__baseIFNS_10unique_ptrI5SceneNS_14default_deleteIS3_EEEEvEED1Ev, symObjAddr: 0x8CAC, symBinAddr: 0x10001093C, symSize: 0x14 }
  - { offsetInCU: 0x1FE4D, offset: 0x44560, size: 0x8, addend: 0x0, symName: __ZNSt3__110__function6__baseIFNS_10unique_ptrI5SceneNS_14default_deleteIS3_EEEEvEED0Ev, symObjAddr: 0x8CC0, symBinAddr: 0x100010950, symSize: 0xC }
  - { offsetInCU: 0x1FE76, offset: 0x44589, size: 0x8, addend: 0x0, symName: '__ZNSt3__110__function12__alloc_funcIZN4Game4initEPKciiiibE3$_0NS_9allocatorIS5_EEFNS_10unique_ptrI5SceneNS_14default_deleteIS9_EEEEvEEC2B8ue170006EOS5_OS7_', symObjAddr: 0x8CCC, symBinAddr: 0x10001095C, symSize: 0x5C }
  - { offsetInCU: 0x1FEBB, offset: 0x445CE, size: 0x8, addend: 0x0, symName: '__ZNSt3__117__compressed_pairIZN4Game4initEPKciiiibE3$_0NS_9allocatorIS4_EEEC1B8ue170006IJOS4_EJOS6_EEENS_21piecewise_construct_tENS_5tupleIJDpT_EEENSC_IJDpT0_EEE', symObjAddr: 0x8D80, symBinAddr: 0x100010A10, symSize: 0x3C }
  - { offsetInCU: 0x1FF24, offset: 0x44637, size: 0x8, addend: 0x0, symName: '__ZNSt3__15tupleIJOZN4Game4initEPKciiiibE3$_0EEC1B8ue170006IJS4_ELi0EEEDpOT_', symObjAddr: 0x8DBC, symBinAddr: 0x100010A4C, symSize: 0x34 }
  - { offsetInCU: 0x1FF6D, offset: 0x44680, size: 0x8, addend: 0x0, symName: '__ZNSt3__15tupleIJOZN4Game4initEPKciiiibE3$_0EEC2B8ue170006IJS4_ELi0EEEDpOT_', symObjAddr: 0x8DF0, symBinAddr: 0x100010A80, symSize: 0x34 }
  - { offsetInCU: 0x1FFB6, offset: 0x446C9, size: 0x8, addend: 0x0, symName: '__ZNSt3__112__tuple_implINS_15__tuple_indicesIJLm0EEEEJOZN4Game4initEPKciiiibE3$_0EEC1B8ue170006IJLm0EEJS7_EJEJEJS6_EEENS1_IJXspT_EEEENS_13__tuple_typesIJDpT0_EEENS1_IJXspT1_EEEENSB_IJDpT2_EEEDpOT3_', symObjAddr: 0x8E24, symBinAddr: 0x100010AB4, symSize: 0x34 }
  - { offsetInCU: 0x20046, offset: 0x44759, size: 0x8, addend: 0x0, symName: '__ZNSt3__112__tuple_implINS_15__tuple_indicesIJLm0EEEEJOZN4Game4initEPKciiiibE3$_0EEC2B8ue170006IJLm0EEJS7_EJEJEJS6_EEENS1_IJXspT_EEEENS_13__tuple_typesIJDpT0_EEENS1_IJXspT1_EEEENSB_IJDpT2_EEEDpOT3_', symObjAddr: 0x8E58, symBinAddr: 0x100010AE8, symSize: 0x34 }
  - { offsetInCU: 0x200D6, offset: 0x447E9, size: 0x8, addend: 0x0, symName: '__ZNSt3__112__tuple_leafILm0EOZN4Game4initEPKciiiibE3$_0Lb0EEC2B8ue170006IS4_vEEOT_', symObjAddr: 0x8E8C, symBinAddr: 0x100010B1C, symSize: 0x20 }
  - { offsetInCU: 0x20118, offset: 0x4482B, size: 0x8, addend: 0x0, symName: '__ZNSt3__15tupleIJONS_9allocatorIZN4Game4initEPKciiiibE3$_0EEEEC1B8ue170006IJS6_ELi0EEEDpOT_', symObjAddr: 0x8EAC, symBinAddr: 0x100010B3C, symSize: 0x34 }
  - { offsetInCU: 0x20161, offset: 0x44874, size: 0x8, addend: 0x0, symName: '__ZNSt3__15tupleIJONS_9allocatorIZN4Game4initEPKciiiibE3$_0EEEEC2B8ue170006IJS6_ELi0EEEDpOT_', symObjAddr: 0x8EE0, symBinAddr: 0x100010B70, symSize: 0x34 }
  - { offsetInCU: 0x201AA, offset: 0x448BD, size: 0x8, addend: 0x0, symName: '__ZNSt3__112__tuple_implINS_15__tuple_indicesIJLm0EEEEJONS_9allocatorIZN4Game4initEPKciiiibE3$_0EEEEC1B8ue170006IJLm0EEJS9_EJEJEJS8_EEENS1_IJXspT_EEEENS_13__tuple_typesIJDpT0_EEENS1_IJXspT1_EEEENSD_IJDpT2_EEEDpOT3_', symObjAddr: 0x8F14, symBinAddr: 0x100010BA4, symSize: 0x34 }
  - { offsetInCU: 0x2023A, offset: 0x4494D, size: 0x8, addend: 0x0, symName: '__ZNSt3__112__tuple_implINS_15__tuple_indicesIJLm0EEEEJONS_9allocatorIZN4Game4initEPKciiiibE3$_0EEEEC2B8ue170006IJLm0EEJS9_EJEJEJS8_EEENS1_IJXspT_EEEENS_13__tuple_typesIJDpT0_EEENS1_IJXspT1_EEEENSD_IJDpT2_EEEDpOT3_', symObjAddr: 0x8F48, symBinAddr: 0x100010BD8, symSize: 0x34 }
  - { offsetInCU: 0x202CA, offset: 0x449DD, size: 0x8, addend: 0x0, symName: '__ZNSt3__112__tuple_leafILm0EONS_9allocatorIZN4Game4initEPKciiiibE3$_0EELb0EEC2B8ue170006IS6_vEEOT_', symObjAddr: 0x8F7C, symBinAddr: 0x100010C0C, symSize: 0x20 }
  - { offsetInCU: 0x2030C, offset: 0x44A1F, size: 0x8, addend: 0x0, symName: '__ZNSt3__117__compressed_pairIZN4Game4initEPKciiiibE3$_0NS_9allocatorIS4_EEEC2B8ue170006IJOS4_EJOS6_EEENS_21piecewise_construct_tENS_5tupleIJDpT_EEENSC_IJDpT0_EEE', symObjAddr: 0x8F9C, symBinAddr: 0x100010C2C, symSize: 0x54 }
  - { offsetInCU: 0x20375, offset: 0x44A88, size: 0x8, addend: 0x0, symName: '__ZNSt3__122__compressed_pair_elemIZN4Game4initEPKciiiibE3$_0Li0ELb1EEC2B8ue170006IJOS4_EJLm0EEEENS_21piecewise_construct_tENS_5tupleIJDpT_EEENS_15__tuple_indicesIJXspT0_EEEE', symObjAddr: 0x8FF0, symBinAddr: 0x100010C80, symSize: 0x38 }
  - { offsetInCU: 0x203D9, offset: 0x44AEC, size: 0x8, addend: 0x0, symName: '__ZNSt3__122__compressed_pair_elemINS_9allocatorIZN4Game4initEPKciiiibE3$_0EELi1ELb1EEC2B8ue170006IJOS6_EJLm0EEEENS_21piecewise_construct_tENS_5tupleIJDpT_EEENS_15__tuple_indicesIJXspT0_EEEE', symObjAddr: 0x9028, symBinAddr: 0x100010CB8, symSize: 0x38 }
  - { offsetInCU: 0x2043D, offset: 0x44B50, size: 0x8, addend: 0x0, symName: '__ZNSt3__112__tuple_leafILm0EOZN4Game4initEPKciiiibE3$_0Lb0EE3getB8ue170006Ev', symObjAddr: 0x9084, symBinAddr: 0x100010D14, symSize: 0x18 }
  - { offsetInCU: 0x20462, offset: 0x44B75, size: 0x8, addend: 0x0, symName: '__ZNSt3__112__tuple_leafILm0EONS_9allocatorIZN4Game4initEPKciiiibE3$_0EELb0EE3getB8ue170006Ev', symObjAddr: 0x90C0, symBinAddr: 0x100010D50, symSize: 0x18 }
  - { offsetInCU: 0x20487, offset: 0x44B9A, size: 0x8, addend: 0x0, symName: '__ZNSt3__110__function6__funcIZN4Game4initEPKciiiibE3$_0NS_9allocatorIS5_EEFNS_10unique_ptrI5SceneNS_14default_deleteIS9_EEEEvEED2Ev', symObjAddr: 0x90D8, symBinAddr: 0x100010D68, symSize: 0x2C }
  - { offsetInCU: 0x204B3, offset: 0x44BC6, size: 0x8, addend: 0x0, symName: '__ZNKSt3__110__function12__alloc_funcIZN4Game4initEPKciiiibE3$_0NS_9allocatorIS5_EEFNS_10unique_ptrI5SceneNS_14default_deleteIS9_EEEEvEE15__get_allocatorB8ue170006Ev', symObjAddr: 0x9104, symBinAddr: 0x100010D94, symSize: 0x24 }
  - { offsetInCU: 0x204D8, offset: 0x44BEB, size: 0x8, addend: 0x0, symName: '__ZNSt3__19allocatorINS_10__function6__funcIZN4Game4initEPKciiiibE3$_0NS0_IS6_EEFNS_10unique_ptrI5SceneNS_14default_deleteIS9_EEEEvEEEE8allocateB8ue170006Em', symObjAddr: 0x9128, symBinAddr: 0x100010DB8, symSize: 0x58 }
  - { offsetInCU: 0x2051A, offset: 0x44C2D, size: 0x8, addend: 0x0, symName: '__ZNSt3__122__allocator_destructorINS_9allocatorINS_10__function6__funcIZN4Game4initEPKciiiibE3$_0NS1_IS7_EEFNS_10unique_ptrI5SceneNS_14default_deleteISA_EEEEvEEEEEEC1B8ue170006ERSG_m', symObjAddr: 0x9180, symBinAddr: 0x100010E10, symSize: 0x3C }
  - { offsetInCU: 0x205EB, offset: 0x44CFE, size: 0x8, addend: 0x0, symName: '__ZNSt3__110unique_ptrINS_10__function6__funcIZN4Game4initEPKciiiibE3$_0NS_9allocatorIS6_EEFNS0_I5SceneNS_14default_deleteIS9_EEEEvEEENS_22__allocator_destructorINS7_ISE_EEEEEC1B8ue170006ILb1EvEEPSE_NS_16__dependent_typeINS_27__unique_ptr_deleter_sfinaeISH_EEXT_EE20__good_rval_ref_typeE', symObjAddr: 0x91BC, symBinAddr: 0x100010E4C, symSize: 0x3C }
  - { offsetInCU: 0x2063B, offset: 0x44D4E, size: 0x8, addend: 0x0, symName: '__ZNKSt3__110unique_ptrINS_10__function6__funcIZN4Game4initEPKciiiibE3$_0NS_9allocatorIS6_EEFNS0_I5SceneNS_14default_deleteIS9_EEEEvEEENS_22__allocator_destructorINS7_ISE_EEEEE3getB8ue170006Ev', symObjAddr: 0x91F8, symBinAddr: 0x100010E88, symSize: 0x28 }
  - { offsetInCU: 0x20660, offset: 0x44D73, size: 0x8, addend: 0x0, symName: '__ZNKSt3__110__function12__alloc_funcIZN4Game4initEPKciiiibE3$_0NS_9allocatorIS5_EEFNS_10unique_ptrI5SceneNS_14default_deleteIS9_EEEEvEE8__targetB8ue170006Ev', symObjAddr: 0x9220, symBinAddr: 0x100010EB0, symSize: 0x24 }
  - { offsetInCU: 0x20685, offset: 0x44D98, size: 0x8, addend: 0x0, symName: '__ZNSt3__110__function6__funcIZN4Game4initEPKciiiibE3$_0NS_9allocatorIS5_EEFNS_10unique_ptrI5SceneNS_14default_deleteIS9_EEEEvEEC1B8ue170006ERKS5_OS7_', symObjAddr: 0x9244, symBinAddr: 0x100010ED4, symSize: 0x3C }
  - { offsetInCU: 0x206CC, offset: 0x44DDF, size: 0x8, addend: 0x0, symName: '__ZNSt3__110unique_ptrINS_10__function6__funcIZN4Game4initEPKciiiibE3$_0NS_9allocatorIS6_EEFNS0_I5SceneNS_14default_deleteIS9_EEEEvEEENS_22__allocator_destructorINS7_ISE_EEEEE7releaseB8ue170006Ev', symObjAddr: 0x9280, symBinAddr: 0x100010F10, symSize: 0x44 }
  - { offsetInCU: 0x20700, offset: 0x44E13, size: 0x8, addend: 0x0, symName: '__ZNSt3__110unique_ptrINS_10__function6__funcIZN4Game4initEPKciiiibE3$_0NS_9allocatorIS6_EEFNS0_I5SceneNS_14default_deleteIS9_EEEEvEEENS_22__allocator_destructorINS7_ISE_EEEEED1B8ue170006Ev', symObjAddr: 0x92C4, symBinAddr: 0x100010F54, symSize: 0x2C }
  - { offsetInCU: 0x20729, offset: 0x44E3C, size: 0x8, addend: 0x0, symName: '__ZNKSt3__117__compressed_pairIZN4Game4initEPKciiiibE3$_0NS_9allocatorIS4_EEE6secondB8ue170006Ev', symObjAddr: 0x92F0, symBinAddr: 0x100010F80, symSize: 0x24 }
  - { offsetInCU: 0x2074E, offset: 0x44E61, size: 0x8, addend: 0x0, symName: '__ZNKSt3__122__compressed_pair_elemINS_9allocatorIZN4Game4initEPKciiiibE3$_0EELi1ELb1EE5__getB8ue170006Ev', symObjAddr: 0x9314, symBinAddr: 0x100010FA4, symSize: 0x14 }
  - { offsetInCU: 0x2077D, offset: 0x44E90, size: 0x8, addend: 0x0, symName: '__ZNSt3__116allocator_traitsINS_9allocatorINS_10__function6__funcIZN4Game4initEPKciiiibE3$_0NS1_IS7_EEFNS_10unique_ptrI5SceneNS_14default_deleteISA_EEEEvEEEEEE8max_sizeB8ue170006ISG_vEEmRKSG_', symObjAddr: 0x9328, symBinAddr: 0x100010FB8, symSize: 0x24 }
  - { offsetInCU: 0x207AB, offset: 0x44EBE, size: 0x8, addend: 0x0, symName: '__ZNKSt3__19allocatorINS_10__function6__funcIZN4Game4initEPKciiiibE3$_0NS0_IS6_EEFNS_10unique_ptrI5SceneNS_14default_deleteIS9_EEEEvEEEE8max_sizeB8ue170006Ev', symObjAddr: 0x934C, symBinAddr: 0x100010FDC, symSize: 0x14 }
  - { offsetInCU: 0x207D0, offset: 0x44EE3, size: 0x8, addend: 0x0, symName: '__ZNSt3__122__allocator_destructorINS_9allocatorINS_10__function6__funcIZN4Game4initEPKciiiibE3$_0NS1_IS7_EEFNS_10unique_ptrI5SceneNS_14default_deleteISA_EEEEvEEEEEEC2B8ue170006ERSG_m', symObjAddr: 0x9360, symBinAddr: 0x100010FF0, symSize: 0x2C }
  - { offsetInCU: 0x20815, offset: 0x44F28, size: 0x8, addend: 0x0, symName: '__ZNSt3__110unique_ptrINS_10__function6__funcIZN4Game4initEPKciiiibE3$_0NS_9allocatorIS6_EEFNS0_I5SceneNS_14default_deleteIS9_EEEEvEEENS_22__allocator_destructorINS7_ISE_EEEEEC2B8ue170006ILb1EvEEPSE_NS_16__dependent_typeINS_27__unique_ptr_deleter_sfinaeISH_EEXT_EE20__good_rval_ref_typeE', symObjAddr: 0x938C, symBinAddr: 0x10001101C, symSize: 0x48 }
  - { offsetInCU: 0x20865, offset: 0x44F78, size: 0x8, addend: 0x0, symName: '__ZNSt3__117__compressed_pairIPNS_10__function6__funcIZN4Game4initEPKciiiibE3$_0NS_9allocatorIS6_EEFNS_10unique_ptrI5SceneNS_14default_deleteISA_EEEEvEEENS_22__allocator_destructorINS7_ISF_EEEEEC1B8ue170006IRSG_SJ_EEOT_OT0_', symObjAddr: 0x93D4, symBinAddr: 0x100011064, symSize: 0x3C }
  - { offsetInCU: 0x208BC, offset: 0x44FCF, size: 0x8, addend: 0x0, symName: '__ZNSt3__117__compressed_pairIPNS_10__function6__funcIZN4Game4initEPKciiiibE3$_0NS_9allocatorIS6_EEFNS_10unique_ptrI5SceneNS_14default_deleteISA_EEEEvEEENS_22__allocator_destructorINS7_ISF_EEEEEC2B8ue170006IRSG_SJ_EEOT_OT0_', symObjAddr: 0x9410, symBinAddr: 0x1000110A0, symSize: 0x48 }
  - { offsetInCU: 0x20913, offset: 0x45026, size: 0x8, addend: 0x0, symName: '__ZNSt3__122__compressed_pair_elemIPNS_10__function6__funcIZN4Game4initEPKciiiibE3$_0NS_9allocatorIS6_EEFNS_10unique_ptrI5SceneNS_14default_deleteISA_EEEEvEEELi0ELb0EEC2B8ue170006IRSG_vEEOT_', symObjAddr: 0x9458, symBinAddr: 0x1000110E8, symSize: 0x24 }
  - { offsetInCU: 0x20954, offset: 0x45067, size: 0x8, addend: 0x0, symName: '__ZNSt3__122__compressed_pair_elemINS_22__allocator_destructorINS_9allocatorINS_10__function6__funcIZN4Game4initEPKciiiibE3$_0NS2_IS8_EEFNS_10unique_ptrI5SceneNS_14default_deleteISB_EEEEvEEEEEEELi1ELb0EEC2B8ue170006ISI_vEEOT_', symObjAddr: 0x947C, symBinAddr: 0x10001110C, symSize: 0x24 }
  - { offsetInCU: 0x20995, offset: 0x450A8, size: 0x8, addend: 0x0, symName: '__ZNKSt3__117__compressed_pairIPNS_10__function6__funcIZN4Game4initEPKciiiibE3$_0NS_9allocatorIS6_EEFNS_10unique_ptrI5SceneNS_14default_deleteISA_EEEEvEEENS_22__allocator_destructorINS7_ISF_EEEEE5firstB8ue170006Ev', symObjAddr: 0x94A0, symBinAddr: 0x100011130, symSize: 0x24 }
  - { offsetInCU: 0x209BA, offset: 0x450CD, size: 0x8, addend: 0x0, symName: '__ZNKSt3__122__compressed_pair_elemIPNS_10__function6__funcIZN4Game4initEPKciiiibE3$_0NS_9allocatorIS6_EEFNS_10unique_ptrI5SceneNS_14default_deleteISA_EEEEvEEELi0ELb0EE5__getB8ue170006Ev', symObjAddr: 0x94C4, symBinAddr: 0x100011154, symSize: 0x14 }
  - { offsetInCU: 0x209DF, offset: 0x450F2, size: 0x8, addend: 0x0, symName: '__ZNKSt3__117__compressed_pairIZN4Game4initEPKciiiibE3$_0NS_9allocatorIS4_EEE5firstB8ue170006Ev', symObjAddr: 0x94D8, symBinAddr: 0x100011168, symSize: 0x24 }
  - { offsetInCU: 0x20A04, offset: 0x45117, size: 0x8, addend: 0x0, symName: '__ZNKSt3__122__compressed_pair_elemIZN4Game4initEPKciiiibE3$_0Li0ELb1EE5__getB8ue170006Ev', symObjAddr: 0x94FC, symBinAddr: 0x10001118C, symSize: 0x14 }
  - { offsetInCU: 0x20A29, offset: 0x4513C, size: 0x8, addend: 0x0, symName: '__ZNSt3__110__function6__funcIZN4Game4initEPKciiiibE3$_0NS_9allocatorIS5_EEFNS_10unique_ptrI5SceneNS_14default_deleteIS9_EEEEvEEC2B8ue170006ERKS5_OS7_', symObjAddr: 0x9510, symBinAddr: 0x1000111A0, symSize: 0x88 }
  - { offsetInCU: 0x20A70, offset: 0x45183, size: 0x8, addend: 0x0, symName: '__ZNSt3__110__function12__alloc_funcIZN4Game4initEPKciiiibE3$_0NS_9allocatorIS5_EEFNS_10unique_ptrI5SceneNS_14default_deleteIS9_EEEEvEEC1B8ue170006ERKS5_OS7_', symObjAddr: 0x9598, symBinAddr: 0x100011228, symSize: 0x3C }
  - { offsetInCU: 0x20AB5, offset: 0x451C8, size: 0x8, addend: 0x0, symName: '__ZNSt3__110__function12__alloc_funcIZN4Game4initEPKciiiibE3$_0NS_9allocatorIS5_EEFNS_10unique_ptrI5SceneNS_14default_deleteIS9_EEEEvEEC2B8ue170006ERKS5_OS7_', symObjAddr: 0x95D4, symBinAddr: 0x100011264, symSize: 0x5C }
  - { offsetInCU: 0x20AFA, offset: 0x4520D, size: 0x8, addend: 0x0, symName: '__ZNSt3__117__compressed_pairIZN4Game4initEPKciiiibE3$_0NS_9allocatorIS4_EEEC1B8ue170006IJRKS4_EJOS6_EEENS_21piecewise_construct_tENS_5tupleIJDpT_EEENSD_IJDpT0_EEE', symObjAddr: 0x965C, symBinAddr: 0x1000112EC, symSize: 0x3C }
  - { offsetInCU: 0x20B63, offset: 0x45276, size: 0x8, addend: 0x0, symName: '__ZNSt3__15tupleIJRKZN4Game4initEPKciiiibE3$_0EEC1B8ue170006INS_4_AndELi0EEES6_', symObjAddr: 0x9698, symBinAddr: 0x100011328, symSize: 0x34 }
  - { offsetInCU: 0x20BAB, offset: 0x452BE, size: 0x8, addend: 0x0, symName: '__ZNSt3__15tupleIJRKZN4Game4initEPKciiiibE3$_0EEC2B8ue170006INS_4_AndELi0EEES6_', symObjAddr: 0x96CC, symBinAddr: 0x10001135C, symSize: 0x34 }
  - { offsetInCU: 0x20BF3, offset: 0x45306, size: 0x8, addend: 0x0, symName: '__ZNSt3__112__tuple_implINS_15__tuple_indicesIJLm0EEEEJRKZN4Game4initEPKciiiibE3$_0EEC1B8ue170006IJLm0EEJS8_EJEJEJS8_EEENS1_IJXspT_EEEENS_13__tuple_typesIJDpT0_EEENS1_IJXspT1_EEEENSC_IJDpT2_EEEDpOT3_', symObjAddr: 0x9700, symBinAddr: 0x100011390, symSize: 0x34 }
  - { offsetInCU: 0x20C83, offset: 0x45396, size: 0x8, addend: 0x0, symName: '__ZNSt3__112__tuple_implINS_15__tuple_indicesIJLm0EEEEJRKZN4Game4initEPKciiiibE3$_0EEC2B8ue170006IJLm0EEJS8_EJEJEJS8_EEENS1_IJXspT_EEEENS_13__tuple_typesIJDpT0_EEENS1_IJXspT1_EEEENSC_IJDpT2_EEEDpOT3_', symObjAddr: 0x9734, symBinAddr: 0x1000113C4, symSize: 0x34 }
  - { offsetInCU: 0x20D13, offset: 0x45426, size: 0x8, addend: 0x0, symName: '__ZNSt3__112__tuple_leafILm0ERKZN4Game4initEPKciiiibE3$_0Lb0EEC2B8ue170006IS6_vEEOT_', symObjAddr: 0x9768, symBinAddr: 0x1000113F8, symSize: 0x20 }
  - { offsetInCU: 0x20D55, offset: 0x45468, size: 0x8, addend: 0x0, symName: '__ZNSt3__117__compressed_pairIZN4Game4initEPKciiiibE3$_0NS_9allocatorIS4_EEEC2B8ue170006IJRKS4_EJOS6_EEENS_21piecewise_construct_tENS_5tupleIJDpT_EEENSD_IJDpT0_EEE', symObjAddr: 0x9788, symBinAddr: 0x100011418, symSize: 0x54 }
  - { offsetInCU: 0x20DBE, offset: 0x454D1, size: 0x8, addend: 0x0, symName: '__ZNSt3__122__compressed_pair_elemIZN4Game4initEPKciiiibE3$_0Li0ELb1EEC2B8ue170006IJRKS4_EJLm0EEEENS_21piecewise_construct_tENS_5tupleIJDpT_EEENS_15__tuple_indicesIJXspT0_EEEE', symObjAddr: 0x97DC, symBinAddr: 0x10001146C, symSize: 0x38 }
  - { offsetInCU: 0x20E22, offset: 0x45535, size: 0x8, addend: 0x0, symName: '__ZNSt3__112__tuple_leafILm0ERKZN4Game4initEPKciiiibE3$_0Lb0EE3getB8ue170006Ev', symObjAddr: 0x9838, symBinAddr: 0x1000114C8, symSize: 0x18 }
  - { offsetInCU: 0x20E47, offset: 0x4555A, size: 0x8, addend: 0x0, symName: '__ZNSt3__117__compressed_pairIPNS_10__function6__funcIZN4Game4initEPKciiiibE3$_0NS_9allocatorIS6_EEFNS_10unique_ptrI5SceneNS_14default_deleteISA_EEEEvEEENS_22__allocator_destructorINS7_ISF_EEEEE5firstB8ue170006Ev', symObjAddr: 0x9850, symBinAddr: 0x1000114E0, symSize: 0x24 }
  - { offsetInCU: 0x20E6C, offset: 0x4557F, size: 0x8, addend: 0x0, symName: '__ZNSt3__122__compressed_pair_elemIPNS_10__function6__funcIZN4Game4initEPKciiiibE3$_0NS_9allocatorIS6_EEFNS_10unique_ptrI5SceneNS_14default_deleteISA_EEEEvEEELi0ELb0EE5__getB8ue170006Ev', symObjAddr: 0x9874, symBinAddr: 0x100011504, symSize: 0x14 }
  - { offsetInCU: 0x20E91, offset: 0x455A4, size: 0x8, addend: 0x0, symName: '__ZNSt3__110unique_ptrINS_10__function6__funcIZN4Game4initEPKciiiibE3$_0NS_9allocatorIS6_EEFNS0_I5SceneNS_14default_deleteIS9_EEEEvEEENS_22__allocator_destructorINS7_ISE_EEEEED2B8ue170006Ev', symObjAddr: 0x9888, symBinAddr: 0x100011518, symSize: 0x30 }
  - { offsetInCU: 0x20EBA, offset: 0x455CD, size: 0x8, addend: 0x0, symName: '__ZNSt3__110unique_ptrINS_10__function6__funcIZN4Game4initEPKciiiibE3$_0NS_9allocatorIS6_EEFNS0_I5SceneNS_14default_deleteIS9_EEEEvEEENS_22__allocator_destructorINS7_ISE_EEEEE5resetB8ue170006EPSE_', symObjAddr: 0x98B8, symBinAddr: 0x100011548, symSize: 0x78 }
  - { offsetInCU: 0x20EFD, offset: 0x45610, size: 0x8, addend: 0x0, symName: '__ZNSt3__117__compressed_pairIPNS_10__function6__funcIZN4Game4initEPKciiiibE3$_0NS_9allocatorIS6_EEFNS_10unique_ptrI5SceneNS_14default_deleteISA_EEEEvEEENS_22__allocator_destructorINS7_ISF_EEEEE6secondB8ue170006Ev', symObjAddr: 0x9930, symBinAddr: 0x1000115C0, symSize: 0x28 }
  - { offsetInCU: 0x20F22, offset: 0x45635, size: 0x8, addend: 0x0, symName: '__ZNSt3__122__allocator_destructorINS_9allocatorINS_10__function6__funcIZN4Game4initEPKciiiibE3$_0NS1_IS7_EEFNS_10unique_ptrI5SceneNS_14default_deleteISA_EEEEvEEEEEEclB8ue170006EPSF_', symObjAddr: 0x9958, symBinAddr: 0x1000115E8, symSize: 0x34 }
  - { offsetInCU: 0x20F55, offset: 0x45668, size: 0x8, addend: 0x0, symName: '__ZNSt3__122__compressed_pair_elemINS_22__allocator_destructorINS_9allocatorINS_10__function6__funcIZN4Game4initEPKciiiibE3$_0NS2_IS8_EEFNS_10unique_ptrI5SceneNS_14default_deleteISB_EEEEvEEEEEEELi1ELb0EE5__getB8ue170006Ev', symObjAddr: 0x998C, symBinAddr: 0x10001161C, symSize: 0x14 }
  - { offsetInCU: 0x20F7A, offset: 0x4568D, size: 0x8, addend: 0x0, symName: '__ZNSt3__116allocator_traitsINS_9allocatorINS_10__function6__funcIZN4Game4initEPKciiiibE3$_0NS1_IS7_EEFNS_10unique_ptrI5SceneNS_14default_deleteISA_EEEEvEEEEEE10deallocateB8ue170006ERSG_PSF_m', symObjAddr: 0x99A0, symBinAddr: 0x100011630, symSize: 0x34 }
  - { offsetInCU: 0x20FBC, offset: 0x456CF, size: 0x8, addend: 0x0, symName: '__ZNSt3__19allocatorINS_10__function6__funcIZN4Game4initEPKciiiibE3$_0NS0_IS6_EEFNS_10unique_ptrI5SceneNS_14default_deleteIS9_EEEEvEEEE10deallocateB8ue170006EPSE_m', symObjAddr: 0x99D4, symBinAddr: 0x100011664, symSize: 0x40 }
  - { offsetInCU: 0x20FFD, offset: 0x45710, size: 0x8, addend: 0x0, symName: '__ZNSt3__110__function6__funcIZN4Game4initEPKciiiibE3$_0NS_9allocatorIS5_EEFNS_10unique_ptrI5SceneNS_14default_deleteIS9_EEEEvEEC1B8ue170006ERKS5_RKS7_', symObjAddr: 0x9A14, symBinAddr: 0x1000116A4, symSize: 0x3C }
  - { offsetInCU: 0x21044, offset: 0x45757, size: 0x8, addend: 0x0, symName: '__ZNSt3__110__function6__funcIZN4Game4initEPKciiiibE3$_0NS_9allocatorIS5_EEFNS_10unique_ptrI5SceneNS_14default_deleteIS9_EEEEvEEC2B8ue170006ERKS5_RKS7_', symObjAddr: 0x9A50, symBinAddr: 0x1000116E0, symSize: 0x88 }
  - { offsetInCU: 0x2108B, offset: 0x4579E, size: 0x8, addend: 0x0, symName: '__ZNSt3__110__function12__alloc_funcIZN4Game4initEPKciiiibE3$_0NS_9allocatorIS5_EEFNS_10unique_ptrI5SceneNS_14default_deleteIS9_EEEEvEEC1B8ue170006ERKS5_RKS7_', symObjAddr: 0x9AD8, symBinAddr: 0x100011768, symSize: 0x3C }
  - { offsetInCU: 0x210D0, offset: 0x457E3, size: 0x8, addend: 0x0, symName: '__ZNSt3__110__function12__alloc_funcIZN4Game4initEPKciiiibE3$_0NS_9allocatorIS5_EEFNS_10unique_ptrI5SceneNS_14default_deleteIS9_EEEEvEEC2B8ue170006ERKS5_RKS7_', symObjAddr: 0x9B14, symBinAddr: 0x1000117A4, symSize: 0x5C }
  - { offsetInCU: 0x21115, offset: 0x45828, size: 0x8, addend: 0x0, symName: '__ZNSt3__117__compressed_pairIZN4Game4initEPKciiiibE3$_0NS_9allocatorIS4_EEEC1B8ue170006IJRKS4_EJRKS6_EEENS_21piecewise_construct_tENS_5tupleIJDpT_EEENSE_IJDpT0_EEE', symObjAddr: 0x9B9C, symBinAddr: 0x10001182C, symSize: 0x3C }
  - { offsetInCU: 0x2117E, offset: 0x45891, size: 0x8, addend: 0x0, symName: '__ZNSt3__15tupleIJRKNS_9allocatorIZN4Game4initEPKciiiibE3$_0EEEEC1B8ue170006INS_4_AndELi0EEES8_', symObjAddr: 0x9BD8, symBinAddr: 0x100011868, symSize: 0x34 }
  - { offsetInCU: 0x211C6, offset: 0x458D9, size: 0x8, addend: 0x0, symName: '__ZNSt3__15tupleIJRKNS_9allocatorIZN4Game4initEPKciiiibE3$_0EEEEC2B8ue170006INS_4_AndELi0EEES8_', symObjAddr: 0x9C0C, symBinAddr: 0x10001189C, symSize: 0x34 }
  - { offsetInCU: 0x2120E, offset: 0x45921, size: 0x8, addend: 0x0, symName: '__ZNSt3__112__tuple_implINS_15__tuple_indicesIJLm0EEEEJRKNS_9allocatorIZN4Game4initEPKciiiibE3$_0EEEEC1B8ue170006IJLm0EEJSA_EJEJEJSA_EEENS1_IJXspT_EEEENS_13__tuple_typesIJDpT0_EEENS1_IJXspT1_EEEENSE_IJDpT2_EEEDpOT3_', symObjAddr: 0x9C40, symBinAddr: 0x1000118D0, symSize: 0x34 }
  - { offsetInCU: 0x2129E, offset: 0x459B1, size: 0x8, addend: 0x0, symName: '__ZNSt3__112__tuple_implINS_15__tuple_indicesIJLm0EEEEJRKNS_9allocatorIZN4Game4initEPKciiiibE3$_0EEEEC2B8ue170006IJLm0EEJSA_EJEJEJSA_EEENS1_IJXspT_EEEENS_13__tuple_typesIJDpT0_EEENS1_IJXspT1_EEEENSE_IJDpT2_EEEDpOT3_', symObjAddr: 0x9C74, symBinAddr: 0x100011904, symSize: 0x34 }
  - { offsetInCU: 0x2132E, offset: 0x45A41, size: 0x8, addend: 0x0, symName: '__ZNSt3__112__tuple_leafILm0ERKNS_9allocatorIZN4Game4initEPKciiiibE3$_0EELb0EEC2B8ue170006IS8_vEEOT_', symObjAddr: 0x9CA8, symBinAddr: 0x100011938, symSize: 0x20 }
  - { offsetInCU: 0x21370, offset: 0x45A83, size: 0x8, addend: 0x0, symName: '__ZNSt3__117__compressed_pairIZN4Game4initEPKciiiibE3$_0NS_9allocatorIS4_EEEC2B8ue170006IJRKS4_EJRKS6_EEENS_21piecewise_construct_tENS_5tupleIJDpT_EEENSE_IJDpT0_EEE', symObjAddr: 0x9CC8, symBinAddr: 0x100011958, symSize: 0x54 }
  - { offsetInCU: 0x213D9, offset: 0x45AEC, size: 0x8, addend: 0x0, symName: '__ZNSt3__122__compressed_pair_elemINS_9allocatorIZN4Game4initEPKciiiibE3$_0EELi1ELb1EEC2B8ue170006IJRKS6_EJLm0EEEENS_21piecewise_construct_tENS_5tupleIJDpT_EEENS_15__tuple_indicesIJXspT0_EEEE', symObjAddr: 0x9D1C, symBinAddr: 0x1000119AC, symSize: 0x38 }
  - { offsetInCU: 0x2143D, offset: 0x45B50, size: 0x8, addend: 0x0, symName: '__ZNSt3__112__tuple_leafILm0ERKNS_9allocatorIZN4Game4initEPKciiiibE3$_0EELb0EE3getB8ue170006Ev', symObjAddr: 0x9D78, symBinAddr: 0x100011A08, symSize: 0x18 }
  - { offsetInCU: 0x21462, offset: 0x45B75, size: 0x8, addend: 0x0, symName: '__ZNSt3__110__function12__alloc_funcIZN4Game4initEPKciiiibE3$_0NS_9allocatorIS5_EEFNS_10unique_ptrI5SceneNS_14default_deleteIS9_EEEEvEE7destroyB8ue170006Ev', symObjAddr: 0x9D90, symBinAddr: 0x100011A20, symSize: 0x10 }
  - { offsetInCU: 0x21487, offset: 0x45B9A, size: 0x8, addend: 0x0, symName: '__ZNSt3__110__function12__alloc_funcIZN4Game4initEPKciiiibE3$_0NS_9allocatorIS5_EEFNS_10unique_ptrI5SceneNS_14default_deleteIS9_EEEEvEEclB8ue170006Ev', symObjAddr: 0x9DA0, symBinAddr: 0x100011A30, symSize: 0x34 }
  - { offsetInCU: 0x214AC, offset: 0x45BBF, size: 0x8, addend: 0x0, symName: '__ZNSt3__128__invoke_void_return_wrapperINS_10unique_ptrI5SceneNS_14default_deleteIS2_EEEELb0EE6__callB8ue170006IJRZN4Game4initEPKciiiibE3$_0EEES5_DpOT_', symObjAddr: 0x9DD4, symBinAddr: 0x100011A64, symSize: 0x48 }
  - { offsetInCU: 0x214DB, offset: 0x45BEE, size: 0x8, addend: 0x0, symName: '__ZNSt3__117__compressed_pairIZN4Game4initEPKciiiibE3$_0NS_9allocatorIS4_EEE5firstB8ue170006Ev', symObjAddr: 0x9E1C, symBinAddr: 0x100011AAC, symSize: 0x24 }
  - { offsetInCU: 0x21500, offset: 0x45C13, size: 0x8, addend: 0x0, symName: __ZNSt3__110unique_ptrI5SceneNS_14default_deleteIS1_EEEC1B8ue170006I8MainMenuNS2_IS6_EEvvEEONS0_IT_T0_EE, symObjAddr: 0x9E6C, symBinAddr: 0x100011AFC, symSize: 0x34 }
  - { offsetInCU: 0x2154B, offset: 0x45C5E, size: 0x8, addend: 0x0, symName: __ZNSt3__110unique_ptrI8MainMenuNS_14default_deleteIS1_EEED1B8ue170006Ev, symObjAddr: 0x9EA0, symBinAddr: 0x100011B30, symSize: 0x2C }
  - { offsetInCU: 0x21579, offset: 0x45C8C, size: 0x8, addend: 0x0, symName: '__ZZN4Game4initEPKciiiibENK3$_0clEv', symObjAddr: 0x9ECC, symBinAddr: 0x100011B5C, symSize: 0x28 }
  - { offsetInCU: 0x215A2, offset: 0x45CB5, size: 0x8, addend: 0x0, symName: __ZNSt3__110unique_ptrI8MainMenuNS_14default_deleteIS1_EEEC1B8ue170006ILb1EvEEPS1_, symObjAddr: 0x9F58, symBinAddr: 0x100011BE8, symSize: 0x34 }
  - { offsetInCU: 0x215E4, offset: 0x45CF7, size: 0x8, addend: 0x0, symName: __ZNSt3__110unique_ptrI8MainMenuNS_14default_deleteIS1_EEEC2B8ue170006ILb1EvEEPS1_, symObjAddr: 0x9F8C, symBinAddr: 0x100011C1C, symSize: 0x44 }
  - { offsetInCU: 0x21626, offset: 0x45D39, size: 0x8, addend: 0x0, symName: __ZNSt3__117__compressed_pairIP8MainMenuNS_14default_deleteIS1_EEEC1B8ue170006IRS2_NS_16__value_init_tagEEEOT_OT0_, symObjAddr: 0x9FD0, symBinAddr: 0x100011C60, symSize: 0x3C }
  - { offsetInCU: 0x2167D, offset: 0x45D90, size: 0x8, addend: 0x0, symName: __ZNSt3__117__compressed_pairIP8MainMenuNS_14default_deleteIS1_EEEC2B8ue170006IRS2_NS_16__value_init_tagEEEOT_OT0_, symObjAddr: 0xA00C, symBinAddr: 0x100011C9C, symSize: 0x40 }
  - { offsetInCU: 0x216D4, offset: 0x45DE7, size: 0x8, addend: 0x0, symName: __ZNSt3__122__compressed_pair_elemIP8MainMenuLi0ELb0EEC2B8ue170006IRS2_vEEOT_, symObjAddr: 0xA04C, symBinAddr: 0x100011CDC, symSize: 0x24 }
  - { offsetInCU: 0x21715, offset: 0x45E28, size: 0x8, addend: 0x0, symName: __ZNSt3__122__compressed_pair_elemINS_14default_deleteI8MainMenuEELi1ELb1EEC2B8ue170006ENS_16__value_init_tagE, symObjAddr: 0xA070, symBinAddr: 0x100011D00, symSize: 0x14 }
  - { offsetInCU: 0x21749, offset: 0x45E5C, size: 0x8, addend: 0x0, symName: __ZNSt3__110unique_ptrI5SceneNS_14default_deleteIS1_EEEC2B8ue170006I8MainMenuNS2_IS6_EEvvEEONS0_IT_T0_EE, symObjAddr: 0xA084, symBinAddr: 0x100011D14, symSize: 0x60 }
  - { offsetInCU: 0x21794, offset: 0x45EA7, size: 0x8, addend: 0x0, symName: __ZNSt3__110unique_ptrI8MainMenuNS_14default_deleteIS1_EEE7releaseB8ue170006Ev, symObjAddr: 0xA0E4, symBinAddr: 0x100011D74, symSize: 0x44 }
  - { offsetInCU: 0x217C8, offset: 0x45EDB, size: 0x8, addend: 0x0, symName: __ZNSt3__110unique_ptrI8MainMenuNS_14default_deleteIS1_EEE11get_deleterB8ue170006Ev, symObjAddr: 0xA128, symBinAddr: 0x100011DB8, symSize: 0x24 }
  - { offsetInCU: 0x217F7, offset: 0x45F0A, size: 0x8, addend: 0x0, symName: __ZNSt3__117__compressed_pairIP5SceneNS_14default_deleteIS1_EEEC1B8ue170006IP8MainMenuNS3_IS7_EEEEOT_OT0_, symObjAddr: 0xA14C, symBinAddr: 0x100011DDC, symSize: 0x3C }
  - { offsetInCU: 0x2184E, offset: 0x45F61, size: 0x8, addend: 0x0, symName: __ZNSt3__117__compressed_pairIP8MainMenuNS_14default_deleteIS1_EEE5firstB8ue170006Ev, symObjAddr: 0xA188, symBinAddr: 0x100011E18, symSize: 0x24 }
  - { offsetInCU: 0x21873, offset: 0x45F86, size: 0x8, addend: 0x0, symName: __ZNSt3__122__compressed_pair_elemIP8MainMenuLi0ELb0EE5__getB8ue170006Ev, symObjAddr: 0xA1AC, symBinAddr: 0x100011E3C, symSize: 0x14 }
  - { offsetInCU: 0x21898, offset: 0x45FAB, size: 0x8, addend: 0x0, symName: __ZNSt3__117__compressed_pairIP8MainMenuNS_14default_deleteIS1_EEE6secondB8ue170006Ev, symObjAddr: 0xA1C0, symBinAddr: 0x100011E50, symSize: 0x24 }
  - { offsetInCU: 0x218BD, offset: 0x45FD0, size: 0x8, addend: 0x0, symName: __ZNSt3__122__compressed_pair_elemINS_14default_deleteI8MainMenuEELi1ELb1EE5__getB8ue170006Ev, symObjAddr: 0xA1E4, symBinAddr: 0x100011E74, symSize: 0x14 }
  - { offsetInCU: 0x218E2, offset: 0x45FF5, size: 0x8, addend: 0x0, symName: __ZNSt3__117__compressed_pairIP5SceneNS_14default_deleteIS1_EEEC2B8ue170006IP8MainMenuNS3_IS7_EEEEOT_OT0_, symObjAddr: 0xA1F8, symBinAddr: 0x100011E88, symSize: 0x44 }
  - { offsetInCU: 0x21939, offset: 0x4604C, size: 0x8, addend: 0x0, symName: __ZNSt3__122__compressed_pair_elemIP5SceneLi0ELb0EEC2B8ue170006IP8MainMenuvEEOT_, symObjAddr: 0xA23C, symBinAddr: 0x100011ECC, symSize: 0x24 }
  - { offsetInCU: 0x2197A, offset: 0x4608D, size: 0x8, addend: 0x0, symName: __ZNSt3__122__compressed_pair_elemINS_14default_deleteI5SceneEELi1ELb1EEC2B8ue170006INS1_I8MainMenuEEvEEOT_, symObjAddr: 0xA260, symBinAddr: 0x100011EF0, symSize: 0x38 }
  - { offsetInCU: 0x219C0, offset: 0x460D3, size: 0x8, addend: 0x0, symName: __ZNSt3__114default_deleteI5SceneEC2B8ue170006I8MainMenuEERKNS0_IT_EEPNS_9enable_ifIXsr14is_convertibleIPS5_PS1_EE5valueEvE4typeE, symObjAddr: 0xA298, symBinAddr: 0x100011F28, symSize: 0x1C }
  - { offsetInCU: 0x21A08, offset: 0x4611B, size: 0x8, addend: 0x0, symName: __ZNSt3__110unique_ptrI8MainMenuNS_14default_deleteIS1_EEED2B8ue170006Ev, symObjAddr: 0xA2B4, symBinAddr: 0x100011F44, symSize: 0x30 }
  - { offsetInCU: 0x21A31, offset: 0x46144, size: 0x8, addend: 0x0, symName: __ZNSt3__110unique_ptrI8MainMenuNS_14default_deleteIS1_EEE5resetB8ue170006EPS1_, symObjAddr: 0xA2E4, symBinAddr: 0x100011F74, symSize: 0x78 }
  - { offsetInCU: 0x21A74, offset: 0x46187, size: 0x8, addend: 0x0, symName: __ZNKSt3__114default_deleteI8MainMenuEclB8ue170006EPS1_, symObjAddr: 0xA35C, symBinAddr: 0x100011FEC, symSize: 0x4C }
  - { offsetInCU: 0x21AA7, offset: 0x461BA, size: 0x8, addend: 0x0, symName: '__ZNSt3__122__compressed_pair_elemIZN4Game4initEPKciiiibE3$_0Li0ELb1EE5__getB8ue170006Ev', symObjAddr: 0xA3A8, symBinAddr: 0x100012038, symSize: 0x14 }
  - { offsetInCU: 0x21B02, offset: 0x46215, size: 0x8, addend: 0x0, symName: __ZNKSt9type_infoeqB8ue170006ERKS_, symObjAddr: 0xA3BC, symBinAddr: 0x10001204C, symSize: 0xDC }
  - { offsetInCU: 0x21B9F, offset: 0x462B2, size: 0x8, addend: 0x0, symName: __ZNSt27__type_info_implementations30__non_unique_arm_rtti_bit_impl21__is_type_name_uniqueB8ue170006Em, symObjAddr: 0xA498, symBinAddr: 0x100012128, symSize: 0x20 }
  - { offsetInCU: 0x21BC3, offset: 0x462D6, size: 0x8, addend: 0x0, symName: __ZNSt3__18functionIFNS_10unique_ptrI5SceneNS_14default_deleteIS2_EEEEvEED2Ev, symObjAddr: 0xA4B8, symBinAddr: 0x100012148, symSize: 0x2C }
  - { offsetInCU: 0x21BEE, offset: 0x46301, size: 0x8, addend: 0x0, symName: __ZNSt3__110__function12__value_funcIFNS_10unique_ptrI5SceneNS_14default_deleteIS3_EEEEvEED1B8ue170006Ev, symObjAddr: 0xA4E4, symBinAddr: 0x100012174, symSize: 0x2C }
  - { offsetInCU: 0x21C17, offset: 0x4632A, size: 0x8, addend: 0x0, symName: __ZNSt3__110__function12__value_funcIFNS_10unique_ptrI5SceneNS_14default_deleteIS3_EEEEvEED2B8ue170006Ev, symObjAddr: 0xA510, symBinAddr: 0x1000121A0, symSize: 0x90 }
  - { offsetInCU: 0x21C40, offset: 0x46353, size: 0x8, addend: 0x0, symName: __ZNKSt3__110unique_ptrI13TileComponentNS_14default_deleteIS1_EEEptB8ue170006Ev, symObjAddr: 0xA640, symBinAddr: 0x1000122D0, symSize: 0x28 }
  - { offsetInCU: 0x21C65, offset: 0x46378, size: 0x8, addend: 0x0, symName: __ZNKSt3__110unique_ptrI13TileComponentNS_14default_deleteIS1_EEE3getB8ue170006Ev, symObjAddr: 0xA668, symBinAddr: 0x1000122F8, symSize: 0x28 }
  - { offsetInCU: 0x21C8A, offset: 0x4639D, size: 0x8, addend: 0x0, symName: __ZNSt3__16vectorINS_10unique_ptrI9ComponentNS_14default_deleteIS2_EEEENS_9allocatorIS5_EEE12emplace_backIJNS1_I13TileComponentNS3_ISA_EEEEEEERS5_DpOT_, symObjAddr: 0xA690, symBinAddr: 0x100012320, symSize: 0x74 }
  - { offsetInCU: 0x21CCA, offset: 0x463DD, size: 0x8, addend: 0x0, symName: __ZNSt3__15arrayIP9ComponentLm999999EEixB8ue170006Em, symObjAddr: 0xA704, symBinAddr: 0x100012394, symSize: 0x20 }
  - { offsetInCU: 0x21CFD, offset: 0x46410, size: 0x8, addend: 0x0, symName: __ZNSt3__16bitsetILm999999EEixB8ue170006Em, symObjAddr: 0xA7B0, symBinAddr: 0x100012440, symSize: 0x3C }
  - { offsetInCU: 0x21D31, offset: 0x46444, size: 0x8, addend: 0x0, symName: __ZNSt3__115__bit_referenceINS_8__bitsetILm15625ELm999999EEELb1EEaSB8ue170006Eb, symObjAddr: 0xA7EC, symBinAddr: 0x10001247C, symSize: 0x6C }
  - { offsetInCU: 0x21D64, offset: 0x46477, size: 0x8, addend: 0x0, symName: __ZNSt3__110unique_ptrI13TileComponentNS_14default_deleteIS1_EEED1B8ue170006Ev, symObjAddr: 0xA858, symBinAddr: 0x1000124E8, symSize: 0x2C }
  - { offsetInCU: 0x21D8D, offset: 0x464A0, size: 0x8, addend: 0x0, symName: __ZN13TileComponentC1EiiiiPKc, symObjAddr: 0xA884, symBinAddr: 0x100012514, symSize: 0x54 }
  - { offsetInCU: 0x21DFC, offset: 0x4650F, size: 0x8, addend: 0x0, symName: __ZNSt3__110unique_ptrI13TileComponentNS_14default_deleteIS1_EEEC1B8ue170006ILb1EvEEPS1_, symObjAddr: 0xA8D8, symBinAddr: 0x100012568, symSize: 0x34 }
  - { offsetInCU: 0x21E3E, offset: 0x46551, size: 0x8, addend: 0x0, symName: __ZN13TileComponentC2EiiiiPKc, symObjAddr: 0xA90C, symBinAddr: 0x10001259C, symSize: 0xD0 }
  - { offsetInCU: 0x21EAD, offset: 0x465C0, size: 0x8, addend: 0x0, symName: __ZN9ComponentC2Ev, symObjAddr: 0xA9DC, symBinAddr: 0x10001266C, symSize: 0x24 }
  - { offsetInCU: 0x21ED8, offset: 0x465EB, size: 0x8, addend: 0x0, symName: __ZN9ComponentD2Ev, symObjAddr: 0xAA00, symBinAddr: 0x100012690, symSize: 0x14 }
  - { offsetInCU: 0x21F01, offset: 0x46614, size: 0x8, addend: 0x0, symName: __ZN9Component4initEv, symObjAddr: 0xAA14, symBinAddr: 0x1000126A4, symSize: 0x10 }
  - { offsetInCU: 0x21F26, offset: 0x46639, size: 0x8, addend: 0x0, symName: __ZN9Component6updateEf, symObjAddr: 0xAA24, symBinAddr: 0x1000126B4, symSize: 0x14 }
  - { offsetInCU: 0x21F59, offset: 0x4666C, size: 0x8, addend: 0x0, symName: __ZN13TileComponent4drawEv, symObjAddr: 0xAA38, symBinAddr: 0x1000126C8, symSize: 0x4C }
  - { offsetInCU: 0x21F7E, offset: 0x46691, size: 0x8, addend: 0x0, symName: __ZN13TileComponentD1Ev, symObjAddr: 0xAA84, symBinAddr: 0x100012714, symSize: 0x2C }
  - { offsetInCU: 0x21FA7, offset: 0x466BA, size: 0x8, addend: 0x0, symName: __ZN13TileComponentD0Ev, symObjAddr: 0xAAB0, symBinAddr: 0x100012740, symSize: 0x30 }
  - { offsetInCU: 0x21FD0, offset: 0x466E3, size: 0x8, addend: 0x0, symName: __ZN9Component4drawEv, symObjAddr: 0xAAE0, symBinAddr: 0x100012770, symSize: 0x10 }
  - { offsetInCU: 0x21FF5, offset: 0x46708, size: 0x8, addend: 0x0, symName: __ZN9ComponentD1Ev, symObjAddr: 0xAAF0, symBinAddr: 0x100012780, symSize: 0x2C }
  - { offsetInCU: 0x2201E, offset: 0x46731, size: 0x8, addend: 0x0, symName: __ZN9ComponentD0Ev, symObjAddr: 0xAB1C, symBinAddr: 0x1000127AC, symSize: 0x30 }
  - { offsetInCU: 0x22047, offset: 0x4675A, size: 0x8, addend: 0x0, symName: __ZN13TileComponentD2Ev, symObjAddr: 0xAB4C, symBinAddr: 0x1000127DC, symSize: 0x50 }
  - { offsetInCU: 0x22070, offset: 0x46783, size: 0x8, addend: 0x0, symName: __ZNSt3__110unique_ptrI13TileComponentNS_14default_deleteIS1_EEEC2B8ue170006ILb1EvEEPS1_, symObjAddr: 0xAB9C, symBinAddr: 0x10001282C, symSize: 0x44 }
  - { offsetInCU: 0x220B2, offset: 0x467C5, size: 0x8, addend: 0x0, symName: __ZNSt3__117__compressed_pairIP13TileComponentNS_14default_deleteIS1_EEEC1B8ue170006IRS2_NS_16__value_init_tagEEEOT_OT0_, symObjAddr: 0xABE0, symBinAddr: 0x100012870, symSize: 0x3C }
  - { offsetInCU: 0x22109, offset: 0x4681C, size: 0x8, addend: 0x0, symName: __ZNSt3__117__compressed_pairIP13TileComponentNS_14default_deleteIS1_EEEC2B8ue170006IRS2_NS_16__value_init_tagEEEOT_OT0_, symObjAddr: 0xAC1C, symBinAddr: 0x1000128AC, symSize: 0x40 }
  - { offsetInCU: 0x22160, offset: 0x46873, size: 0x8, addend: 0x0, symName: __ZNSt3__122__compressed_pair_elemIP13TileComponentLi0ELb0EEC2B8ue170006IRS2_vEEOT_, symObjAddr: 0xAC5C, symBinAddr: 0x1000128EC, symSize: 0x24 }
  - { offsetInCU: 0x221A1, offset: 0x468B4, size: 0x8, addend: 0x0, symName: __ZNSt3__122__compressed_pair_elemINS_14default_deleteI13TileComponentEELi1ELb1EEC2B8ue170006ENS_16__value_init_tagE, symObjAddr: 0xAC80, symBinAddr: 0x100012910, symSize: 0x14 }
  - { offsetInCU: 0x221D5, offset: 0x468E8, size: 0x8, addend: 0x0, symName: __ZNKSt3__117__compressed_pairIP13TileComponentNS_14default_deleteIS1_EEE5firstB8ue170006Ev, symObjAddr: 0xAC94, symBinAddr: 0x100012924, symSize: 0x24 }
  - { offsetInCU: 0x221FA, offset: 0x4690D, size: 0x8, addend: 0x0, symName: __ZNKSt3__122__compressed_pair_elemIP13TileComponentLi0ELb0EE5__getB8ue170006Ev, symObjAddr: 0xACB8, symBinAddr: 0x100012948, symSize: 0x14 }
  - { offsetInCU: 0x2221F, offset: 0x46932, size: 0x8, addend: 0x0, symName: __ZNSt3__16vectorINS_10unique_ptrI9ComponentNS_14default_deleteIS2_EEEENS_9allocatorIS5_EEE9__end_capB8ue170006Ev, symObjAddr: 0xACCC, symBinAddr: 0x10001295C, symSize: 0x28 }
  - { offsetInCU: 0x22244, offset: 0x46957, size: 0x8, addend: 0x0, symName: __ZNSt3__16vectorINS_10unique_ptrI9ComponentNS_14default_deleteIS2_EEEENS_9allocatorIS5_EEE22__construct_one_at_endB8ue170006IJNS1_I13TileComponentNS3_ISA_EEEEEEEvDpOT_, symObjAddr: 0xACF4, symBinAddr: 0x100012984, symSize: 0x90 }
  - { offsetInCU: 0x22292, offset: 0x469A5, size: 0x8, addend: 0x0, symName: __ZNSt3__16vectorINS_10unique_ptrI9ComponentNS_14default_deleteIS2_EEEENS_9allocatorIS5_EEE24__emplace_back_slow_pathIJNS1_I13TileComponentNS3_ISA_EEEEEEEvDpOT_, symObjAddr: 0xAD84, symBinAddr: 0x100012A14, symSize: 0xD8 }
  - { offsetInCU: 0x222F0, offset: 0x46A03, size: 0x8, addend: 0x0, symName: __ZNSt3__16vectorINS_10unique_ptrI9ComponentNS_14default_deleteIS2_EEEENS_9allocatorIS5_EEE4backB8ue170006Ev, symObjAddr: 0xAE5C, symBinAddr: 0x100012AEC, symSize: 0x1C }
  - { offsetInCU: 0x22315, offset: 0x46A28, size: 0x8, addend: 0x0, symName: __ZNSt3__117__compressed_pairIPNS_10unique_ptrI9ComponentNS_14default_deleteIS2_EEEENS_9allocatorIS5_EEE5firstB8ue170006Ev, symObjAddr: 0xAE78, symBinAddr: 0x100012B08, symSize: 0x24 }
  - { offsetInCU: 0x2233A, offset: 0x46A4D, size: 0x8, addend: 0x0, symName: __ZNSt3__122__compressed_pair_elemIPNS_10unique_ptrI9ComponentNS_14default_deleteIS2_EEEELi0ELb0EE5__getB8ue170006Ev, symObjAddr: 0xAE9C, symBinAddr: 0x100012B2C, symSize: 0x14 }
  - { offsetInCU: 0x22378, offset: 0x46A8B, size: 0x8, addend: 0x0, symName: __ZNSt3__16vectorINS_10unique_ptrI9ComponentNS_14default_deleteIS2_EEEENS_9allocatorIS5_EEE21_ConstructTransactionC1B8ue170006ERS8_m, symObjAddr: 0xAEB0, symBinAddr: 0x100012B40, symSize: 0x3C }
  - { offsetInCU: 0x223BF, offset: 0x46AD2, size: 0x8, addend: 0x0, symName: __ZNSt3__116allocator_traitsINS_9allocatorINS_10unique_ptrI9ComponentNS_14default_deleteIS3_EEEEEEE9constructB8ue170006IS6_JNS2_I13TileComponentNS4_ISA_EEEEEvEEvRS7_PT_DpOT0_, symObjAddr: 0xAEEC, symBinAddr: 0x100012B7C, symSize: 0x34 }
  - { offsetInCU: 0x22416, offset: 0x46B29, size: 0x8, addend: 0x0, symName: __ZNSt3__16vectorINS_10unique_ptrI9ComponentNS_14default_deleteIS2_EEEENS_9allocatorIS5_EEE21_ConstructTransactionD1B8ue170006Ev, symObjAddr: 0xAF20, symBinAddr: 0x100012BB0, symSize: 0x2C }
  - { offsetInCU: 0x2243F, offset: 0x46B52, size: 0x8, addend: 0x0, symName: __ZNSt3__16vectorINS_10unique_ptrI9ComponentNS_14default_deleteIS2_EEEENS_9allocatorIS5_EEE21_ConstructTransactionC2B8ue170006ERS8_m, symObjAddr: 0xAF4C, symBinAddr: 0x100012BDC, symSize: 0x44 }
  - { offsetInCU: 0x22486, offset: 0x46B99, size: 0x8, addend: 0x0, symName: __ZNSt3__19allocatorINS_10unique_ptrI9ComponentNS_14default_deleteIS2_EEEEE9constructB8ue170006IS5_JNS1_I13TileComponentNS3_IS8_EEEEEEEvPT_DpOT0_, symObjAddr: 0xAF90, symBinAddr: 0x100012C20, symSize: 0x30 }
  - { offsetInCU: 0x224DB, offset: 0x46BEE, size: 0x8, addend: 0x0, symName: __ZNSt3__110unique_ptrI9ComponentNS_14default_deleteIS1_EEEC1B8ue170006I13TileComponentNS2_IS6_EEvvEEONS0_IT_T0_EE, symObjAddr: 0xAFC0, symBinAddr: 0x100012C50, symSize: 0x34 }
  - { offsetInCU: 0x22526, offset: 0x46C39, size: 0x8, addend: 0x0, symName: __ZNSt3__110unique_ptrI9ComponentNS_14default_deleteIS1_EEEC2B8ue170006I13TileComponentNS2_IS6_EEvvEEONS0_IT_T0_EE, symObjAddr: 0xAFF4, symBinAddr: 0x100012C84, symSize: 0x60 }
  - { offsetInCU: 0x22571, offset: 0x46C84, size: 0x8, addend: 0x0, symName: __ZNSt3__110unique_ptrI13TileComponentNS_14default_deleteIS1_EEE7releaseB8ue170006Ev, symObjAddr: 0xB054, symBinAddr: 0x100012CE4, symSize: 0x44 }
  - { offsetInCU: 0x225A5, offset: 0x46CB8, size: 0x8, addend: 0x0, symName: __ZNSt3__110unique_ptrI13TileComponentNS_14default_deleteIS1_EEE11get_deleterB8ue170006Ev, symObjAddr: 0xB098, symBinAddr: 0x100012D28, symSize: 0x24 }
  - { offsetInCU: 0x225D4, offset: 0x46CE7, size: 0x8, addend: 0x0, symName: __ZNSt3__117__compressed_pairIP9ComponentNS_14default_deleteIS1_EEEC1B8ue170006IP13TileComponentNS3_IS7_EEEEOT_OT0_, symObjAddr: 0xB0BC, symBinAddr: 0x100012D4C, symSize: 0x3C }
  - { offsetInCU: 0x2262B, offset: 0x46D3E, size: 0x8, addend: 0x0, symName: __ZNSt3__117__compressed_pairIP13TileComponentNS_14default_deleteIS1_EEE5firstB8ue170006Ev, symObjAddr: 0xB0F8, symBinAddr: 0x100012D88, symSize: 0x24 }
  - { offsetInCU: 0x22650, offset: 0x46D63, size: 0x8, addend: 0x0, symName: __ZNSt3__122__compressed_pair_elemIP13TileComponentLi0ELb0EE5__getB8ue170006Ev, symObjAddr: 0xB11C, symBinAddr: 0x100012DAC, symSize: 0x14 }
  - { offsetInCU: 0x22675, offset: 0x46D88, size: 0x8, addend: 0x0, symName: __ZNSt3__117__compressed_pairIP13TileComponentNS_14default_deleteIS1_EEE6secondB8ue170006Ev, symObjAddr: 0xB130, symBinAddr: 0x100012DC0, symSize: 0x24 }
  - { offsetInCU: 0x2269A, offset: 0x46DAD, size: 0x8, addend: 0x0, symName: __ZNSt3__122__compressed_pair_elemINS_14default_deleteI13TileComponentEELi1ELb1EE5__getB8ue170006Ev, symObjAddr: 0xB154, symBinAddr: 0x100012DE4, symSize: 0x14 }
  - { offsetInCU: 0x226BF, offset: 0x46DD2, size: 0x8, addend: 0x0, symName: __ZNSt3__117__compressed_pairIP9ComponentNS_14default_deleteIS1_EEEC2B8ue170006IP13TileComponentNS3_IS7_EEEEOT_OT0_, symObjAddr: 0xB168, symBinAddr: 0x100012DF8, symSize: 0x44 }
  - { offsetInCU: 0x22716, offset: 0x46E29, size: 0x8, addend: 0x0, symName: __ZNSt3__122__compressed_pair_elemIP9ComponentLi0ELb0EEC2B8ue170006IP13TileComponentvEEOT_, symObjAddr: 0xB1AC, symBinAddr: 0x100012E3C, symSize: 0x24 }
  - { offsetInCU: 0x22757, offset: 0x46E6A, size: 0x8, addend: 0x0, symName: __ZNSt3__122__compressed_pair_elemINS_14default_deleteI9ComponentEELi1ELb1EEC2B8ue170006INS1_I13TileComponentEEvEEOT_, symObjAddr: 0xB1D0, symBinAddr: 0x100012E60, symSize: 0x38 }
  - { offsetInCU: 0x22798, offset: 0x46EAB, size: 0x8, addend: 0x0, symName: __ZNSt3__114default_deleteI9ComponentEC2B8ue170006I13TileComponentEERKNS0_IT_EEPNS_9enable_ifIXsr14is_convertibleIPS5_PS1_EE5valueEvE4typeE, symObjAddr: 0xB208, symBinAddr: 0x100012E98, symSize: 0x1C }
  - { offsetInCU: 0x227E0, offset: 0x46EF3, size: 0x8, addend: 0x0, symName: __ZNSt3__16vectorINS_10unique_ptrI9ComponentNS_14default_deleteIS2_EEEENS_9allocatorIS5_EEE21_ConstructTransactionD2B8ue170006Ev, symObjAddr: 0xB224, symBinAddr: 0x100012EB4, symSize: 0x20 }
  - { offsetInCU: 0x22809, offset: 0x46F1C, size: 0x8, addend: 0x0, symName: __ZNKSt3__16vectorINS_10unique_ptrI9ComponentNS_14default_deleteIS2_EEEENS_9allocatorIS5_EEE11__recommendB8ue170006Em, symObjAddr: 0xB244, symBinAddr: 0x100012ED4, symSize: 0xB4 }
  - { offsetInCU: 0x2285C, offset: 0x46F6F, size: 0x8, addend: 0x0, symName: __ZNSt3__114__split_bufferINS_10unique_ptrI9ComponentNS_14default_deleteIS2_EEEERNS_9allocatorIS5_EEEC1EmmS8_, symObjAddr: 0xB2F8, symBinAddr: 0x100012F88, symSize: 0x44 }
  - { offsetInCU: 0x228B1, offset: 0x46FC4, size: 0x8, addend: 0x0, symName: __ZNSt3__114__split_bufferINS_10unique_ptrI9ComponentNS_14default_deleteIS2_EEEERNS_9allocatorIS5_EEED1Ev, symObjAddr: 0xB44C, symBinAddr: 0x1000130DC, symSize: 0x2C }
  - { offsetInCU: 0x228DC, offset: 0x46FEF, size: 0x8, addend: 0x0, symName: __ZNKSt3__16vectorINS_10unique_ptrI9ComponentNS_14default_deleteIS2_EEEENS_9allocatorIS5_EEE8max_sizeEv, symObjAddr: 0xB478, symBinAddr: 0x100013108, symSize: 0x60 }
  - { offsetInCU: 0x22902, offset: 0x47015, size: 0x8, addend: 0x0, symName: __ZNKSt3__16vectorINS_10unique_ptrI9ComponentNS_14default_deleteIS2_EEEENS_9allocatorIS5_EEE20__throw_length_errorB8ue170006Ev, symObjAddr: 0xB4D8, symBinAddr: 0x100013168, symSize: 0x1C }
  - { offsetInCU: 0x22931, offset: 0x47044, size: 0x8, addend: 0x0, symName: __ZNSt3__116allocator_traitsINS_9allocatorINS_10unique_ptrI9ComponentNS_14default_deleteIS3_EEEEEEE8max_sizeB8ue170006IS7_vEEmRKS7_, symObjAddr: 0xB4F4, symBinAddr: 0x100013184, symSize: 0x24 }
  - { offsetInCU: 0x2295F, offset: 0x47072, size: 0x8, addend: 0x0, symName: __ZNKSt3__16vectorINS_10unique_ptrI9ComponentNS_14default_deleteIS2_EEEENS_9allocatorIS5_EEE7__allocB8ue170006Ev, symObjAddr: 0xB518, symBinAddr: 0x1000131A8, symSize: 0x28 }
  - { offsetInCU: 0x22984, offset: 0x47097, size: 0x8, addend: 0x0, symName: __ZNKSt3__19allocatorINS_10unique_ptrI9ComponentNS_14default_deleteIS2_EEEEE8max_sizeB8ue170006Ev, symObjAddr: 0xB540, symBinAddr: 0x1000131D0, symSize: 0x14 }
  - { offsetInCU: 0x229A9, offset: 0x470BC, size: 0x8, addend: 0x0, symName: __ZNKSt3__117__compressed_pairIPNS_10unique_ptrI9ComponentNS_14default_deleteIS2_EEEENS_9allocatorIS5_EEE6secondB8ue170006Ev, symObjAddr: 0xB554, symBinAddr: 0x1000131E4, symSize: 0x24 }
  - { offsetInCU: 0x229CE, offset: 0x470E1, size: 0x8, addend: 0x0, symName: __ZNKSt3__122__compressed_pair_elemINS_9allocatorINS_10unique_ptrI9ComponentNS_14default_deleteIS3_EEEEEELi1ELb1EE5__getB8ue170006Ev, symObjAddr: 0xB578, symBinAddr: 0x100013208, symSize: 0x14 }
  - { offsetInCU: 0x229F3, offset: 0x47106, size: 0x8, addend: 0x0, symName: __ZNSt3__114__split_bufferINS_10unique_ptrI9ComponentNS_14default_deleteIS2_EEEERNS_9allocatorIS5_EEEC2EmmS8_, symObjAddr: 0xB58C, symBinAddr: 0x10001321C, symSize: 0xD4 }
  - { offsetInCU: 0x22A65, offset: 0x47178, size: 0x8, addend: 0x0, symName: __ZNSt3__117__compressed_pairIPNS_10unique_ptrI9ComponentNS_14default_deleteIS2_EEEERNS_9allocatorIS5_EEEC1B8ue170006IDnS9_EEOT_OT0_, symObjAddr: 0xB660, symBinAddr: 0x1000132F0, symSize: 0x3C }
  - { offsetInCU: 0x22ABC, offset: 0x471CF, size: 0x8, addend: 0x0, symName: __ZNSt3__114__split_bufferINS_10unique_ptrI9ComponentNS_14default_deleteIS2_EEEERNS_9allocatorIS5_EEE7__allocB8ue170006Ev, symObjAddr: 0xB6DC, symBinAddr: 0x10001336C, symSize: 0x28 }
  - { offsetInCU: 0x22AE1, offset: 0x471F4, size: 0x8, addend: 0x0, symName: __ZNSt3__114__split_bufferINS_10unique_ptrI9ComponentNS_14default_deleteIS2_EEEERNS_9allocatorIS5_EEE9__end_capB8ue170006Ev, symObjAddr: 0xB704, symBinAddr: 0x100013394, symSize: 0x28 }
  - { offsetInCU: 0x22B06, offset: 0x47219, size: 0x8, addend: 0x0, symName: __ZNSt3__117__compressed_pairIPNS_10unique_ptrI9ComponentNS_14default_deleteIS2_EEEERNS_9allocatorIS5_EEEC2B8ue170006IDnS9_EEOT_OT0_, symObjAddr: 0xB72C, symBinAddr: 0x1000133BC, symSize: 0x48 }
  - { offsetInCU: 0x22B5D, offset: 0x47270, size: 0x8, addend: 0x0, symName: __ZNSt3__122__compressed_pair_elemIRNS_9allocatorINS_10unique_ptrI9ComponentNS_14default_deleteIS3_EEEEEELi1ELb0EEC2B8ue170006IS8_vEEOT_, symObjAddr: 0xB774, symBinAddr: 0x100013404, symSize: 0x20 }
  - { offsetInCU: 0x22B9E, offset: 0x472B1, size: 0x8, addend: 0x0, symName: __ZNSt3__19allocatorINS_10unique_ptrI9ComponentNS_14default_deleteIS2_EEEEE8allocateB8ue170006Em, symObjAddr: 0xB794, symBinAddr: 0x100013424, symSize: 0x58 }
  - { offsetInCU: 0x22BD1, offset: 0x472E4, size: 0x8, addend: 0x0, symName: __ZNSt3__117__compressed_pairIPNS_10unique_ptrI9ComponentNS_14default_deleteIS2_EEEERNS_9allocatorIS5_EEE6secondB8ue170006Ev, symObjAddr: 0xB7EC, symBinAddr: 0x10001347C, symSize: 0x28 }
  - { offsetInCU: 0x22BF6, offset: 0x47309, size: 0x8, addend: 0x0, symName: __ZNSt3__122__compressed_pair_elemIRNS_9allocatorINS_10unique_ptrI9ComponentNS_14default_deleteIS3_EEEEEELi1ELb0EE5__getB8ue170006Ev, symObjAddr: 0xB814, symBinAddr: 0x1000134A4, symSize: 0x18 }
  - { offsetInCU: 0x22C1B, offset: 0x4732E, size: 0x8, addend: 0x0, symName: __ZNSt3__117__compressed_pairIPNS_10unique_ptrI9ComponentNS_14default_deleteIS2_EEEERNS_9allocatorIS5_EEE5firstB8ue170006Ev, symObjAddr: 0xB82C, symBinAddr: 0x1000134BC, symSize: 0x24 }
  - { offsetInCU: 0x22C40, offset: 0x47353, size: 0x8, addend: 0x0, symName: __ZNSt3__116reverse_iteratorIPNS_10unique_ptrI9ComponentNS_14default_deleteIS2_EEEEEC1B8ue170006ES6_, symObjAddr: 0xB97C, symBinAddr: 0x10001360C, symSize: 0x34 }
  - { offsetInCU: 0x22C77, offset: 0x4738A, size: 0x8, addend: 0x0, symName: __ZNKSt3__116reverse_iteratorIPNS_10unique_ptrI9ComponentNS_14default_deleteIS2_EEEEE4baseB8ue170006Ev, symObjAddr: 0xB9B0, symBinAddr: 0x100013640, symSize: 0x18 }
  - { offsetInCU: 0x22C9C, offset: 0x473AF, size: 0x8, addend: 0x0, symName: __ZNKSt3__16vectorINS_10unique_ptrI9ComponentNS_14default_deleteIS2_EEEENS_9allocatorIS5_EEE14__annotate_newB8ue170006Em, symObjAddr: 0xBA04, symBinAddr: 0x100013694, symSize: 0xAC }
  - { offsetInCU: 0x22CD0, offset: 0x473E3, size: 0x8, addend: 0x0, symName: __ZNSt3__129_AllocatorDestroyRangeReverseINS_9allocatorINS_10unique_ptrI9ComponentNS_14default_deleteIS3_EEEEEENS_16reverse_iteratorIPS6_EEEC1B8ue170006ERS7_RSA_SD_, symObjAddr: 0xBAFC, symBinAddr: 0x10001378C, symSize: 0x44 }
  - { offsetInCU: 0x22D26, offset: 0x47439, size: 0x8, addend: 0x0, symName: __ZNSt3__116allocator_traitsINS_9allocatorINS_10unique_ptrI9ComponentNS_14default_deleteIS3_EEEEEEE9constructB8ue170006IS6_JS6_EvEEvRS7_PT_DpOT0_, symObjAddr: 0xBB88, symBinAddr: 0x100013818, symSize: 0x34 }
  - { offsetInCU: 0x22D7D, offset: 0x47490, size: 0x8, addend: 0x0, symName: __ZNKSt3__116reverse_iteratorIPNS_10unique_ptrI9ComponentNS_14default_deleteIS2_EEEEEdeB8ue170006Ev, symObjAddr: 0xBBE0, symBinAddr: 0x100013870, symSize: 0x28 }
  - { offsetInCU: 0x22DB0, offset: 0x474C3, size: 0x8, addend: 0x0, symName: __ZNSt3__116reverse_iteratorIPNS_10unique_ptrI9ComponentNS_14default_deleteIS2_EEEEEppB8ue170006Ev, symObjAddr: 0xBC08, symBinAddr: 0x100013898, symSize: 0x20 }
  - { offsetInCU: 0x22DD5, offset: 0x474E8, size: 0x8, addend: 0x0, symName: __ZNSt3__128__exception_guard_exceptionsINS_29_AllocatorDestroyRangeReverseINS_9allocatorINS_10unique_ptrI9ComponentNS_14default_deleteIS4_EEEEEENS_16reverse_iteratorIPS7_EEEEE10__completeB8ue170006Ev, symObjAddr: 0xBC28, symBinAddr: 0x1000138B8, symSize: 0x1C }
  - { offsetInCU: 0x22DFA, offset: 0x4750D, size: 0x8, addend: 0x0, symName: __ZNSt3__128__exception_guard_exceptionsINS_29_AllocatorDestroyRangeReverseINS_9allocatorINS_10unique_ptrI9ComponentNS_14default_deleteIS4_EEEEEENS_16reverse_iteratorIPS7_EEEEED1B8ue170006Ev, symObjAddr: 0xBC44, symBinAddr: 0x1000138D4, symSize: 0x2C }
  - { offsetInCU: 0x22E23, offset: 0x47536, size: 0x8, addend: 0x0, symName: __ZNSt3__128__exception_guard_exceptionsINS_29_AllocatorDestroyRangeReverseINS_9allocatorINS_10unique_ptrI9ComponentNS_14default_deleteIS4_EEEEEENS_16reverse_iteratorIPS7_EEEEEC1B8ue170006ESC_, symObjAddr: 0xBC70, symBinAddr: 0x100013900, symSize: 0x34 }
  - { offsetInCU: 0x22E5B, offset: 0x4756E, size: 0x8, addend: 0x0, symName: __ZNSt3__128__exception_guard_exceptionsINS_29_AllocatorDestroyRangeReverseINS_9allocatorINS_10unique_ptrI9ComponentNS_14default_deleteIS4_EEEEEENS_16reverse_iteratorIPS7_EEEEEC2B8ue170006ESC_, symObjAddr: 0xBCA4, symBinAddr: 0x100013934, symSize: 0x30 }
  - { offsetInCU: 0x22E93, offset: 0x475A6, size: 0x8, addend: 0x0, symName: __ZNSt3__129_AllocatorDestroyRangeReverseINS_9allocatorINS_10unique_ptrI9ComponentNS_14default_deleteIS3_EEEEEENS_16reverse_iteratorIPS6_EEEC2B8ue170006ERS7_RSA_SD_, symObjAddr: 0xBCD4, symBinAddr: 0x100013964, symSize: 0x38 }
  - { offsetInCU: 0x22EE9, offset: 0x475FC, size: 0x8, addend: 0x0, symName: __ZNSt3__19allocatorINS_10unique_ptrI9ComponentNS_14default_deleteIS2_EEEEE9constructB8ue170006IS5_JS5_EEEvPT_DpOT0_, symObjAddr: 0xBD0C, symBinAddr: 0x10001399C, symSize: 0x30 }
  - { offsetInCU: 0x22F3E, offset: 0x47651, size: 0x8, addend: 0x0, symName: __ZNSt3__110unique_ptrI9ComponentNS_14default_deleteIS1_EEEC1B8ue170006EOS4_, symObjAddr: 0xBD3C, symBinAddr: 0x1000139CC, symSize: 0x34 }
  - { offsetInCU: 0x22F75, offset: 0x47688, size: 0x8, addend: 0x0, symName: __ZNSt3__110unique_ptrI9ComponentNS_14default_deleteIS1_EEEC2B8ue170006EOS4_, symObjAddr: 0xBD70, symBinAddr: 0x100013A00, symSize: 0x60 }
  - { offsetInCU: 0x22FAC, offset: 0x476BF, size: 0x8, addend: 0x0, symName: __ZNSt3__110unique_ptrI9ComponentNS_14default_deleteIS1_EEE7releaseB8ue170006Ev, symObjAddr: 0xBDD0, symBinAddr: 0x100013A60, symSize: 0x44 }
  - { offsetInCU: 0x22FE0, offset: 0x476F3, size: 0x8, addend: 0x0, symName: __ZNSt3__110unique_ptrI9ComponentNS_14default_deleteIS1_EEE11get_deleterB8ue170006Ev, symObjAddr: 0xBE14, symBinAddr: 0x100013AA4, symSize: 0x24 }
  - { offsetInCU: 0x2300F, offset: 0x47722, size: 0x8, addend: 0x0, symName: __ZNSt3__117__compressed_pairIP9ComponentNS_14default_deleteIS1_EEEC1B8ue170006IS2_S4_EEOT_OT0_, symObjAddr: 0xBE38, symBinAddr: 0x100013AC8, symSize: 0x3C }
  - { offsetInCU: 0x23066, offset: 0x47779, size: 0x8, addend: 0x0, symName: __ZNSt3__117__compressed_pairIP9ComponentNS_14default_deleteIS1_EEEC2B8ue170006IS2_S4_EEOT_OT0_, symObjAddr: 0xBE74, symBinAddr: 0x100013B04, symSize: 0x44 }
  - { offsetInCU: 0x230BD, offset: 0x477D0, size: 0x8, addend: 0x0, symName: __ZNSt3__122__compressed_pair_elemIP9ComponentLi0ELb0EEC2B8ue170006IS2_vEEOT_, symObjAddr: 0xBEB8, symBinAddr: 0x100013B48, symSize: 0x24 }
  - { offsetInCU: 0x230FE, offset: 0x47811, size: 0x8, addend: 0x0, symName: __ZNSt3__122__compressed_pair_elemINS_14default_deleteI9ComponentEELi1ELb1EEC2B8ue170006IS3_vEEOT_, symObjAddr: 0xBEDC, symBinAddr: 0x100013B6C, symSize: 0x18 }
  - { offsetInCU: 0x23144, offset: 0x47857, size: 0x8, addend: 0x0, symName: __ZNSt3__119__to_address_helperINS_16reverse_iteratorIPNS_10unique_ptrI9ComponentNS_14default_deleteIS3_EEEEEEvE6__callB8ue170006ERKS8_, symObjAddr: 0xBEF4, symBinAddr: 0x100013B84, symSize: 0x38 }
  - { offsetInCU: 0x23167, offset: 0x4787A, size: 0x8, addend: 0x0, symName: __ZNKSt3__116reverse_iteratorIPNS_10unique_ptrI9ComponentNS_14default_deleteIS2_EEEEEptB8ue170006Ev, symObjAddr: 0xBF2C, symBinAddr: 0x100013BBC, symSize: 0x24 }
  - { offsetInCU: 0x2318C, offset: 0x4789F, size: 0x8, addend: 0x0, symName: __ZNSt3__128__exception_guard_exceptionsINS_29_AllocatorDestroyRangeReverseINS_9allocatorINS_10unique_ptrI9ComponentNS_14default_deleteIS4_EEEEEENS_16reverse_iteratorIPS7_EEEEED2B8ue170006Ev, symObjAddr: 0xBF50, symBinAddr: 0x100013BE0, symSize: 0x50 }
  - { offsetInCU: 0x231B5, offset: 0x478C8, size: 0x8, addend: 0x0, symName: __ZNKSt3__129_AllocatorDestroyRangeReverseINS_9allocatorINS_10unique_ptrI9ComponentNS_14default_deleteIS3_EEEEEENS_16reverse_iteratorIPS6_EEEclB8ue170006Ev, symObjAddr: 0xBFA0, symBinAddr: 0x100013C30, symSize: 0xB4 }
  - { offsetInCU: 0x231DB, offset: 0x478EE, size: 0x8, addend: 0x0, symName: __ZNSt3__116reverse_iteratorINS0_IPNS_10unique_ptrI9ComponentNS_14default_deleteIS2_EEEEEEEC1B8ue170006ES7_, symObjAddr: 0xC0C4, symBinAddr: 0x100013D54, symSize: 0x3C }
  - { offsetInCU: 0x23212, offset: 0x47925, size: 0x8, addend: 0x0, symName: __ZNSt3__116reverse_iteratorINS0_IPNS_10unique_ptrI9ComponentNS_14default_deleteIS2_EEEEEEEppB8ue170006Ev, symObjAddr: 0xC184, symBinAddr: 0x100013E14, symSize: 0x30 }
  - { offsetInCU: 0x23237, offset: 0x4794A, size: 0x8, addend: 0x0, symName: __ZNKSt3__116reverse_iteratorINS0_IPNS_10unique_ptrI9ComponentNS_14default_deleteIS2_EEEEEEE4baseB8ue170006Ev, symObjAddr: 0xC1B4, symBinAddr: 0x100013E44, symSize: 0x24 }
  - { offsetInCU: 0x23261, offset: 0x47974, size: 0x8, addend: 0x0, symName: __ZNSt3__119__to_address_helperINS_16reverse_iteratorINS1_IPNS_10unique_ptrI9ComponentNS_14default_deleteIS3_EEEEEEEEvE6__callB8ue170006ERKS9_, symObjAddr: 0xC1D8, symBinAddr: 0x100013E68, symSize: 0x38 }
  - { offsetInCU: 0x23284, offset: 0x47997, size: 0x8, addend: 0x0, symName: __ZNKSt3__116reverse_iteratorINS0_IPNS_10unique_ptrI9ComponentNS_14default_deleteIS2_EEEEEEEptB8ue170006Ev, symObjAddr: 0xC210, symBinAddr: 0x100013EA0, symSize: 0x24 }
  - { offsetInCU: 0x232A9, offset: 0x479BC, size: 0x8, addend: 0x0, symName: __ZNKSt3__116reverse_iteratorINS0_IPNS_10unique_ptrI9ComponentNS_14default_deleteIS2_EEEEEEEdeB8ue170006Ev, symObjAddr: 0xC234, symBinAddr: 0x100013EC4, symSize: 0x34 }
  - { offsetInCU: 0x232DC, offset: 0x479EF, size: 0x8, addend: 0x0, symName: __ZNSt3__116reverse_iteratorIPNS_10unique_ptrI9ComponentNS_14default_deleteIS2_EEEEEmmB8ue170006Ev, symObjAddr: 0xC268, symBinAddr: 0x100013EF8, symSize: 0x20 }
  - { offsetInCU: 0x23301, offset: 0x47A14, size: 0x8, addend: 0x0, symName: __ZNSt3__116reverse_iteratorINS0_IPNS_10unique_ptrI9ComponentNS_14default_deleteIS2_EEEEEEEC2B8ue170006ES7_, symObjAddr: 0xC288, symBinAddr: 0x100013F18, symSize: 0x2C }
  - { offsetInCU: 0x23338, offset: 0x47A4B, size: 0x8, addend: 0x0, symName: __ZNSt3__116reverse_iteratorIPNS_10unique_ptrI9ComponentNS_14default_deleteIS2_EEEEEC2B8ue170006ES6_, symObjAddr: 0xC2B4, symBinAddr: 0x100013F44, symSize: 0x28 }
  - { offsetInCU: 0x2336F, offset: 0x47A82, size: 0x8, addend: 0x0, symName: __ZNSt3__114__split_bufferINS_10unique_ptrI9ComponentNS_14default_deleteIS2_EEEERNS_9allocatorIS5_EEED2Ev, symObjAddr: 0xC2DC, symBinAddr: 0x100013F6C, symSize: 0x8C }
  - { offsetInCU: 0x2339A, offset: 0x47AAD, size: 0x8, addend: 0x0, symName: __ZNSt3__114__split_bufferINS_10unique_ptrI9ComponentNS_14default_deleteIS2_EEEERNS_9allocatorIS5_EEE5clearB8ue170006Ev, symObjAddr: 0xC368, symBinAddr: 0x100013FF8, symSize: 0x28 }
  - { offsetInCU: 0x233BF, offset: 0x47AD2, size: 0x8, addend: 0x0, symName: __ZNKSt3__114__split_bufferINS_10unique_ptrI9ComponentNS_14default_deleteIS2_EEEERNS_9allocatorIS5_EEE8capacityB8ue170006Ev, symObjAddr: 0xC390, symBinAddr: 0x100014020, symSize: 0x40 }
  - { offsetInCU: 0x233E4, offset: 0x47AF7, size: 0x8, addend: 0x0, symName: __ZNSt3__114__split_bufferINS_10unique_ptrI9ComponentNS_14default_deleteIS2_EEEERNS_9allocatorIS5_EEE17__destruct_at_endB8ue170006EPS5_, symObjAddr: 0xC3D0, symBinAddr: 0x100014060, symSize: 0x2C }
  - { offsetInCU: 0x23417, offset: 0x47B2A, size: 0x8, addend: 0x0, symName: __ZNSt3__114__split_bufferINS_10unique_ptrI9ComponentNS_14default_deleteIS2_EEEERNS_9allocatorIS5_EEE17__destruct_at_endB8ue170006EPS5_NS_17integral_constantIbLb0EEE, symObjAddr: 0xC3FC, symBinAddr: 0x10001408C, symSize: 0x80 }
  - { offsetInCU: 0x23456, offset: 0x47B69, size: 0x8, addend: 0x0, symName: __ZNKSt3__114__split_bufferINS_10unique_ptrI9ComponentNS_14default_deleteIS2_EEEERNS_9allocatorIS5_EEE9__end_capB8ue170006Ev, symObjAddr: 0xC47C, symBinAddr: 0x10001410C, symSize: 0x28 }
  - { offsetInCU: 0x2347B, offset: 0x47B8E, size: 0x8, addend: 0x0, symName: __ZNKSt3__117__compressed_pairIPNS_10unique_ptrI9ComponentNS_14default_deleteIS2_EEEERNS_9allocatorIS5_EEE5firstB8ue170006Ev, symObjAddr: 0xC4A4, symBinAddr: 0x100014134, symSize: 0x24 }
  - { offsetInCU: 0x234A0, offset: 0x47BB3, size: 0x8, addend: 0x0, symName: __ZNSt3__18__bitsetILm15625ELm999999EE10__make_refB8ue170006Em, symObjAddr: 0xC4E0, symBinAddr: 0x100014170, symSize: 0x5C }
  - { offsetInCU: 0x234D3, offset: 0x47BE6, size: 0x8, addend: 0x0, symName: __ZNSt3__115__bit_referenceINS_8__bitsetILm15625ELm999999EEELb1EEC1B8ue170006EPmm, symObjAddr: 0xC53C, symBinAddr: 0x1000141CC, symSize: 0x3C }
  - { offsetInCU: 0x23518, offset: 0x47C2B, size: 0x8, addend: 0x0, symName: __ZNSt3__115__bit_referenceINS_8__bitsetILm15625ELm999999EEELb1EEC2B8ue170006EPmm, symObjAddr: 0xC578, symBinAddr: 0x100014208, symSize: 0x2C }
  - { offsetInCU: 0x2355D, offset: 0x47C70, size: 0x8, addend: 0x0, symName: __ZNSt3__110unique_ptrI13TileComponentNS_14default_deleteIS1_EEED2B8ue170006Ev, symObjAddr: 0xC5A4, symBinAddr: 0x100014234, symSize: 0x30 }
  - { offsetInCU: 0x23586, offset: 0x47C99, size: 0x8, addend: 0x0, symName: __ZNSt3__110unique_ptrI13TileComponentNS_14default_deleteIS1_EEE5resetB8ue170006EPS1_, symObjAddr: 0xC5D4, symBinAddr: 0x100014264, symSize: 0x78 }
  - { offsetInCU: 0x235C9, offset: 0x47CDC, size: 0x8, addend: 0x0, symName: __ZNKSt3__114default_deleteI13TileComponentEclB8ue170006EPS1_, symObjAddr: 0xC64C, symBinAddr: 0x1000142DC, symSize: 0x4C }
  - { offsetInCU: 0x26, offset: 0x48004, size: 0x8, addend: 0x0, symName: __ZN10GameObjectC2EPKcii, symObjAddr: 0x0, symBinAddr: 0x100014490, symSize: 0x54 }
  - { offsetInCU: 0x2A67, offset: 0x4AA45, size: 0x8, addend: 0x0, symName: __ZN10GameObjectC2EPKcii, symObjAddr: 0x0, symBinAddr: 0x100014490, symSize: 0x54 }
  - { offsetInCU: 0x2ABC, offset: 0x4AA9A, size: 0x8, addend: 0x0, symName: __ZN10GameObjectC1EPKcii, symObjAddr: 0x54, symBinAddr: 0x1000144E4, symSize: 0x44 }
  - { offsetInCU: 0x2B11, offset: 0x4AAEF, size: 0x8, addend: 0x0, symName: __ZN10GameObject6UpdateEv, symObjAddr: 0x98, symBinAddr: 0x100014528, symSize: 0x54 }
  - { offsetInCU: 0x2B38, offset: 0x4AB16, size: 0x8, addend: 0x0, symName: __ZN10GameObject6RenderEv, symObjAddr: 0xEC, symBinAddr: 0x10001457C, symSize: 0x3C }
  - { offsetInCU: 0x5395, offset: 0x4FED7, size: 0x8, addend: 0x0, symName: __ZNSt3__17advanceB8ue170006IP12SDL_ScancodellvEEvRT_T0_, symObjAddr: 0x5118, symBinAddr: 0x100017980, symSize: 0x38 }
  - { offsetInCU: 0x69AD, offset: 0x514EF, size: 0x8, addend: 0x0, symName: __ZNSt3__1neB8ue170006ERKNS_25__hash_map_const_iteratorINS_21__hash_const_iteratorIPNS_11__hash_nodeINS_17__hash_value_typeINS_12basic_stringIcNS_11char_traitsIcEENS_9allocatorIcEEEENS_6vectorI12SDL_ScancodeNS7_ISB_EEEEEEPvEEEEEESL_, symObjAddr: 0x48C, symBinAddr: 0x100014A44, symSize: 0x30 }
  - { offsetInCU: 0x69EA, offset: 0x5152C, size: 0x8, addend: 0x0, symName: __ZNSt3__1neB8ue170006IPK12SDL_ScancodeEEbRKNS_11__wrap_iterIT_EES8_, symObjAddr: 0x580, symBinAddr: 0x100014B38, symSize: 0x34 }
  - { offsetInCU: 0x6A2D, offset: 0x5156F, size: 0x8, addend: 0x0, symName: __ZNSt3__1eqB8ue170006IPK12SDL_ScancodeEEbRKNS_11__wrap_iterIT_EES8_, symObjAddr: 0x904, symBinAddr: 0x100014EBC, symSize: 0x48 }
  - { offsetInCU: 0x6AA3, offset: 0x515E5, size: 0x8, addend: 0x0, symName: __ZNSt3__17launderB8ue170006INS_4pairIKNS_12basic_stringIcNS_11char_traitsIcEENS_9allocatorIcEEEENS_6vectorI12SDL_ScancodeNS5_ISA_EEEEEEEEPT_SF_, symObjAddr: 0x1914, symBinAddr: 0x100015858, symSize: 0x24 }
  - { offsetInCU: 0x6ADA, offset: 0x5161C, size: 0x8, addend: 0x0, symName: __ZNSt3__19__launderB8ue170006INS_4pairIKNS_12basic_stringIcNS_11char_traitsIcEENS_9allocatorIcEEEENS_6vectorI12SDL_ScancodeNS5_ISA_EEEEEEEEPT_SF_, symObjAddr: 0x1938, symBinAddr: 0x10001587C, symSize: 0x14 }
  - { offsetInCU: 0x6B48, offset: 0x5168A, size: 0x8, addend: 0x0, symName: __ZNSt3__116forward_as_tupleB8ue170006IJRKNS_12basic_stringIcNS_11char_traitsIcEENS_9allocatorIcEEEEEEENS_5tupleIJDpOT_EEESC_, symObjAddr: 0x211C, symBinAddr: 0x10001604C, symSize: 0x2C }
  - { offsetInCU: 0x6B81, offset: 0x516C3, size: 0x8, addend: 0x0, symName: __ZNSt3__116forward_as_tupleB8ue170006IJEEENS_5tupleIJDpOT_EEES4_, symObjAddr: 0x2148, symBinAddr: 0x100016078, symSize: 0x4 }
  - { offsetInCU: 0x6BA5, offset: 0x516E7, size: 0x8, addend: 0x0, symName: __ZNSt3__17launderB8ue170006IKNS_4pairIKNS_12basic_stringIcNS_11char_traitsIcEENS_9allocatorIcEEEENS_6vectorI12SDL_ScancodeNS5_ISA_EEEEEEEEPT_SG_, symObjAddr: 0x3A5C, symBinAddr: 0x10001667C, symSize: 0x24 }
  - { offsetInCU: 0x6BDC, offset: 0x5171E, size: 0x8, addend: 0x0, symName: __ZNSt3__19__launderB8ue170006IKNS_4pairIKNS_12basic_stringIcNS_11char_traitsIcEENS_9allocatorIcEEEENS_6vectorI12SDL_ScancodeNS5_ISA_EEEEEEEEPT_SG_, symObjAddr: 0x3A80, symBinAddr: 0x1000166A0, symSize: 0x14 }
  - { offsetInCU: 0x6C31, offset: 0x51773, size: 0x8, addend: 0x0, symName: __ZNSt3__13getB8ue170006ILm0EJRKNS_12basic_stringIcNS_11char_traitsIcEENS_9allocatorIcEEEEEEERNS_13tuple_elementIXT_ENS_5tupleIJDpT0_EEEE4typeERSD_, symObjAddr: 0x3F78, symBinAddr: 0x100016AB4, symSize: 0x24 }
  - { offsetInCU: 0x6CBC, offset: 0x517FE, size: 0x8, addend: 0x0, symName: __ZNSt3__18distanceB8ue170006IP12SDL_ScancodeEENS_15iterator_traitsIT_E15difference_typeES4_S4_, symObjAddr: 0x4D68, symBinAddr: 0x10001767C, symSize: 0x2C }
  - { offsetInCU: 0x6CFF, offset: 0x51841, size: 0x8, addend: 0x0, symName: __ZNSt3__14nextB8ue170006IP12SDL_ScancodeEENS_9enable_ifIXsr29__has_input_iterator_categoryIT_EE5valueES4_E4typeES4_NS_15iterator_traitsIS4_E15difference_typeE, symObjAddr: 0x4D94, symBinAddr: 0x1000176A8, symSize: 0x34 }
  - { offsetInCU: 0x6D42, offset: 0x51884, size: 0x8, addend: 0x0, symName: __ZNSt3__14copyB8ue170006IP12SDL_ScancodeS2_EET0_T_S4_S3_, symObjAddr: 0x4DC8, symBinAddr: 0x1000176DC, symSize: 0x40 }
  - { offsetInCU: 0x6D9C, offset: 0x518DE, size: 0x8, addend: 0x0, symName: __ZNSt3__16__copyB8ue170006INS_17_ClassicAlgPolicyEP12SDL_ScancodeS3_S3_EENS_4pairIT0_T2_EES5_T1_S6_, symObjAddr: 0x4E94, symBinAddr: 0x1000177A8, symSize: 0x44 }
  - { offsetInCU: 0x6E08, offset: 0x5194A, size: 0x8, addend: 0x0, symName: __ZNSt3__121__convert_to_integralB8ue170006El, symObjAddr: 0x5150, symBinAddr: 0x1000179B8, symSize: 0x14 }
  - { offsetInCU: 0x6E34, offset: 0x51976, size: 0x8, addend: 0x0, symName: __ZNSt3__19__advanceB8ue170006IP12SDL_ScancodeEEvRT_NS_15iterator_traitsIS3_E15difference_typeENS_26random_access_iterator_tagE, symObjAddr: 0x5164, symBinAddr: 0x1000179CC, symSize: 0x28 }
  - { offsetInCU: 0x6E7F, offset: 0x519C1, size: 0x8, addend: 0x0, symName: __ZNSt3__130__uninitialized_allocator_copyB8ue170006INS_9allocatorI12SDL_ScancodeEEPS2_S4_S4_EET2_RT_T0_T1_S5_, symObjAddr: 0x51C8, symBinAddr: 0x1000179F4, symSize: 0x80 }
  - { offsetInCU: 0x6F1C, offset: 0x51A5E, size: 0x8, addend: 0x0, symName: __ZNSt3__114__unwrap_rangeB8ue170006IP12SDL_ScancodeS2_EENS_4pairIT0_S4_EET_S6_, symObjAddr: 0x52B8, symBinAddr: 0x100017A74, symSize: 0x60 }
  - { offsetInCU: 0x6F68, offset: 0x51AAA, size: 0x8, addend: 0x0, symName: __ZNSt3__135__uninitialized_allocator_copy_implB8ue170006INS_9allocatorI12SDL_ScancodeEES2_S2_S2_LPv0EEEPT2_RT_PT0_SA_S6_, symObjAddr: 0x5318, symBinAddr: 0x100017AD4, symSize: 0x38 }
  - { offsetInCU: 0x6FE9, offset: 0x51B2B, size: 0x8, addend: 0x0, symName: __ZNSt3__19make_pairB8ue170006IP12SDL_ScancodeS2_EENS_4pairINS_18__unwrap_ref_decayIT_E4typeENS4_IT0_E4typeEEEOS5_OS8_, symObjAddr: 0x53B0, symBinAddr: 0x100017B0C, symSize: 0x38 }
  - { offsetInCU: 0x713B, offset: 0x51C7D, size: 0x8, addend: 0x0, symName: __ZNSt3__123__dispatch_copy_or_moveB8ue170006INS_17_ClassicAlgPolicyENS_11__copy_loopIS1_EENS_14__copy_trivialEP12SDL_ScancodeS6_S6_EENS_4pairIT2_T4_EES8_T3_S9_, symObjAddr: 0x54EC, symBinAddr: 0x100017BB4, symSize: 0x44 }
  - { offsetInCU: 0x71B9, offset: 0x51CFB, size: 0x8, addend: 0x0, symName: __ZNSt3__121__unwrap_and_dispatchB8ue170006INS_10__overloadINS_11__copy_loopINS_17_ClassicAlgPolicyEEENS_14__copy_trivialEEEP12SDL_ScancodeS8_S8_Li0EEENS_4pairIT0_T2_EESA_T1_SB_, symObjAddr: 0x5530, symBinAddr: 0x100017BF8, symSize: 0xB4 }
  - { offsetInCU: 0x728D, offset: 0x51DCF, size: 0x8, addend: 0x0, symName: __ZNSt3__114__rewrap_rangeB8ue170006IP12SDL_ScancodeS2_EET_S3_T0_, symObjAddr: 0x562C, symBinAddr: 0x100017CF4, symSize: 0x2C }
  - { offsetInCU: 0x72D9, offset: 0x51E1B, size: 0x8, addend: 0x0, symName: __ZNSt3__119__copy_trivial_implB8ue170006I12SDL_ScancodeS1_EENS_4pairIPT_PT0_EES4_S4_S6_, symObjAddr: 0x5658, symBinAddr: 0x100017D20, symSize: 0x80 }
  - { offsetInCU: 0x7341, offset: 0x51E83, size: 0x8, addend: 0x0, symName: __ZNSt3__119__constexpr_memmoveB8ue170006I12SDL_ScancodeS1_Li0EEEPT_S3_PT0_NS_15__element_countE, symObjAddr: 0x56D8, symBinAddr: 0x100017DA0, symSize: 0x64 }
  - { offsetInCU: 0x73AF, offset: 0x51EF1, size: 0x8, addend: 0x0, symName: __ZNSt3__19make_pairB8ue170006IRP12SDL_ScancodeS2_EENS_4pairINS_18__unwrap_ref_decayIT_E4typeENS5_IT0_E4typeEEEOS6_OS9_, symObjAddr: 0x573C, symBinAddr: 0x100017E04, symSize: 0x38 }
  - { offsetInCU: 0x73FE, offset: 0x51F40, size: 0x8, addend: 0x0, symName: __ZNSt3__110__distanceB8ue170006IP12SDL_ScancodeEENS_15iterator_traitsIT_E15difference_typeES4_S4_NS_26random_access_iterator_tagE, symObjAddr: 0x5D14, symBinAddr: 0x100017FA4, symSize: 0x28 }
  - { offsetInCU: 0x744C, offset: 0x51F8E, size: 0x8, addend: 0x0, symName: __ZNSt3__1neB8ue170006ERKNS_21__hash_const_iteratorIPNS_11__hash_nodeINS_17__hash_value_typeINS_12basic_stringIcNS_11char_traitsIcEENS_9allocatorIcEEEENS_6vectorI12SDL_ScancodeNS6_ISA_EEEEEEPvEEEESJ_, symObjAddr: 0x6088, symBinAddr: 0x100018318, symSize: 0x34 }
  - { offsetInCU: 0x7489, offset: 0x51FCB, size: 0x8, addend: 0x0, symName: __ZNSt3__1eqB8ue170006ERKNS_21__hash_const_iteratorIPNS_11__hash_nodeINS_17__hash_value_typeINS_12basic_stringIcNS_11char_traitsIcEENS_9allocatorIcEEEENS_6vectorI12SDL_ScancodeNS6_ISA_EEEEEEPvEEEESJ_, symObjAddr: 0x60BC, symBinAddr: 0x10001834C, symSize: 0x30 }
  - { offsetInCU: 0x9B16, offset: 0x54658, size: 0x8, addend: 0x0, symName: __ZN12InputManagerC2Ev, symObjAddr: 0x0, symBinAddr: 0x1000145B8, symSize: 0xB0 }
  - { offsetInCU: 0x9B41, offset: 0x54683, size: 0x8, addend: 0x0, symName: __ZNSt3__113unordered_mapINS_12basic_stringIcNS_11char_traitsIcEENS_9allocatorIcEEEENS_6vectorI12SDL_ScancodeNS4_IS8_EEEENS_4hashIS6_EENS_8equal_toIS6_EENS4_INS_4pairIKS6_SA_EEEEEC1B8ue170006Ev, symObjAddr: 0xB0, symBinAddr: 0x100014668, symSize: 0x2C }
  - { offsetInCU: 0x9B6A, offset: 0x546AC, size: 0x8, addend: 0x0, symName: __ZNSt3__113unordered_mapINS_12basic_stringIcNS_11char_traitsIcEENS_9allocatorIcEEEENS_6vectorI12SDL_ScancodeNS4_IS8_EEEENS_4hashIS6_EENS_8equal_toIS6_EENS4_INS_4pairIKS6_SA_EEEEED1B8ue170006Ev, symObjAddr: 0xDC, symBinAddr: 0x100014694, symSize: 0x2C }
  - { offsetInCU: 0x9B93, offset: 0x546D5, size: 0x8, addend: 0x0, symName: __ZN12InputManagerC1Ev, symObjAddr: 0x108, symBinAddr: 0x1000146C0, symSize: 0x2C }
  - { offsetInCU: 0x9BBE, offset: 0x54700, size: 0x8, addend: 0x0, symName: __ZN12InputManagerD2Ev, symObjAddr: 0x134, symBinAddr: 0x1000146EC, symSize: 0x88 }
  - { offsetInCU: 0x9BE9, offset: 0x5472B, size: 0x8, addend: 0x0, symName: __ZN12InputManagerD1Ev, symObjAddr: 0x1BC, symBinAddr: 0x100014774, symSize: 0x2C }
  - { offsetInCU: 0x9C14, offset: 0x54756, size: 0x8, addend: 0x0, symName: __ZN12InputManager8addInputERKNSt3__112basic_stringIcNS0_11char_traitsIcEENS0_9allocatorIcEEEERKNS0_6vectorI12SDL_ScancodeNS4_ISA_EEEE, symObjAddr: 0x1E8, symBinAddr: 0x1000147A0, symSize: 0x44 }
  - { offsetInCU: 0x9C57, offset: 0x54799, size: 0x8, addend: 0x0, symName: __ZNSt3__113unordered_mapINS_12basic_stringIcNS_11char_traitsIcEENS_9allocatorIcEEEENS_6vectorI12SDL_ScancodeNS4_IS8_EEEENS_4hashIS6_EENS_8equal_toIS6_EENS4_INS_4pairIKS6_SA_EEEEEixERSG_, symObjAddr: 0x22C, symBinAddr: 0x1000147E4, symSize: 0x80 }
  - { offsetInCU: 0x9C8C, offset: 0x547CE, size: 0x8, addend: 0x0, symName: __ZNSt3__16vectorI12SDL_ScancodeNS_9allocatorIS1_EEEaSB8ue170006ERKS4_, symObjAddr: 0x2AC, symBinAddr: 0x100014864, symSize: 0x68 }
  - { offsetInCU: 0x9CC1, offset: 0x54803, size: 0x8, addend: 0x0, symName: __ZNK12InputManager9isPressedERKNSt3__112basic_stringIcNS0_11char_traitsIcEENS0_9allocatorIcEEEE, symObjAddr: 0x314, symBinAddr: 0x1000148CC, symSize: 0x138 }
  - { offsetInCU: 0x9D55, offset: 0x54897, size: 0x8, addend: 0x0, symName: __ZNKSt3__113unordered_mapINS_12basic_stringIcNS_11char_traitsIcEENS_9allocatorIcEEEENS_6vectorI12SDL_ScancodeNS4_IS8_EEEENS_4hashIS6_EENS_8equal_toIS6_EENS4_INS_4pairIKS6_SA_EEEEE4findB8ue170006ERSG_, symObjAddr: 0x44C, symBinAddr: 0x100014A04, symSize: 0x40 }
  - { offsetInCU: 0x9D89, offset: 0x548CB, size: 0x8, addend: 0x0, symName: __ZNKSt3__113unordered_mapINS_12basic_stringIcNS_11char_traitsIcEENS_9allocatorIcEEEENS_6vectorI12SDL_ScancodeNS4_IS8_EEEENS_4hashIS6_EENS_8equal_toIS6_EENS4_INS_4pairIKS6_SA_EEEEE3endB8ue170006Ev, symObjAddr: 0x4BC, symBinAddr: 0x100014A74, symSize: 0x38 }
  - { offsetInCU: 0x9DAE, offset: 0x548F0, size: 0x8, addend: 0x0, symName: __ZNKSt3__125__hash_map_const_iteratorINS_21__hash_const_iteratorIPNS_11__hash_nodeINS_17__hash_value_typeINS_12basic_stringIcNS_11char_traitsIcEENS_9allocatorIcEEEENS_6vectorI12SDL_ScancodeNS7_ISB_EEEEEEPvEEEEEptB8ue170006Ev, symObjAddr: 0x4F4, symBinAddr: 0x100014AAC, symSize: 0x2C }
  - { offsetInCU: 0x9DD3, offset: 0x54915, size: 0x8, addend: 0x0, symName: __ZNKSt3__16vectorI12SDL_ScancodeNS_9allocatorIS1_EEE5beginB8ue170006Ev, symObjAddr: 0x520, symBinAddr: 0x100014AD8, symSize: 0x30 }
  - { offsetInCU: 0x9DF9, offset: 0x5493B, size: 0x8, addend: 0x0, symName: __ZNKSt3__16vectorI12SDL_ScancodeNS_9allocatorIS1_EEE3endB8ue170006Ev, symObjAddr: 0x550, symBinAddr: 0x100014B08, symSize: 0x30 }
  - { offsetInCU: 0x9E1F, offset: 0x54961, size: 0x8, addend: 0x0, symName: __ZNKSt3__111__wrap_iterIPK12SDL_ScancodeEdeB8ue170006Ev, symObjAddr: 0x5B4, symBinAddr: 0x100014B6C, symSize: 0x18 }
  - { offsetInCU: 0x9E44, offset: 0x54986, size: 0x8, addend: 0x0, symName: __ZNSt3__111__wrap_iterIPK12SDL_ScancodeEppB8ue170006Ev, symObjAddr: 0x5CC, symBinAddr: 0x100014B84, symSize: 0x20 }
  - { offsetInCU: 0x9E69, offset: 0x549AB, size: 0x8, addend: 0x0, symName: __ZNK12InputManager13isJustPressedERKNSt3__112basic_stringIcNS0_11char_traitsIcEENS0_9allocatorIcEEEE, symObjAddr: 0x5EC, symBinAddr: 0x100014BA4, symSize: 0x160 }
  - { offsetInCU: 0x9EFD, offset: 0x54A3F, size: 0x8, addend: 0x0, symName: __ZNK12InputManager10isReleasedERKNSt3__112basic_stringIcNS0_11char_traitsIcEENS0_9allocatorIcEEEE, symObjAddr: 0x74C, symBinAddr: 0x100014D04, symSize: 0x160 }
  - { offsetInCU: 0x9F91, offset: 0x54AD3, size: 0x8, addend: 0x0, symName: __ZN12InputManager6updateEv, symObjAddr: 0x8AC, symBinAddr: 0x100014E64, symSize: 0x58 }
  - { offsetInCU: 0x9FC6, offset: 0x54B08, size: 0x8, addend: 0x0, symName: __ZNKSt3__111__wrap_iterIPK12SDL_ScancodeE4baseB8ue170006Ev, symObjAddr: 0x94C, symBinAddr: 0x100014F04, symSize: 0x18 }
  - { offsetInCU: 0x9FEB, offset: 0x54B2D, size: 0x8, addend: 0x0, symName: __ZNSt3__113unordered_mapINS_12basic_stringIcNS_11char_traitsIcEENS_9allocatorIcEEEENS_6vectorI12SDL_ScancodeNS4_IS8_EEEENS_4hashIS6_EENS_8equal_toIS6_EENS4_INS_4pairIKS6_SA_EEEEEC2B8ue170006Ev, symObjAddr: 0x964, symBinAddr: 0x100014F1C, symSize: 0x2C }
  - { offsetInCU: 0xA014, offset: 0x54B56, size: 0x8, addend: 0x0, symName: __ZNSt3__112__hash_tableINS_17__hash_value_typeINS_12basic_stringIcNS_11char_traitsIcEENS_9allocatorIcEEEENS_6vectorI12SDL_ScancodeNS5_IS9_EEEEEENS_22__unordered_map_hasherIS7_SC_NS_4hashIS7_EENS_8equal_toIS7_EELb1EEENS_21__unordered_map_equalIS7_SC_SH_SF_Lb1EEENS5_ISC_EEEC1Ev, symObjAddr: 0x990, symBinAddr: 0x100014F48, symSize: 0x2C }
  - { offsetInCU: 0xA03F, offset: 0x54B81, size: 0x8, addend: 0x0, symName: __ZNSt3__112__hash_tableINS_17__hash_value_typeINS_12basic_stringIcNS_11char_traitsIcEENS_9allocatorIcEEEENS_6vectorI12SDL_ScancodeNS5_IS9_EEEEEENS_22__unordered_map_hasherIS7_SC_NS_4hashIS7_EENS_8equal_toIS7_EELb1EEENS_21__unordered_map_equalIS7_SC_SH_SF_Lb1EEENS5_ISC_EEEC2Ev, symObjAddr: 0x9BC, symBinAddr: 0x100014F74, symSize: 0x7C }
  - { offsetInCU: 0xA06A, offset: 0x54BAC, size: 0x8, addend: 0x0, symName: __ZNSt3__110unique_ptrIA_PNS_16__hash_node_baseIPNS_11__hash_nodeINS_17__hash_value_typeINS_12basic_stringIcNS_11char_traitsIcEENS_9allocatorIcEEEENS_6vectorI12SDL_ScancodeNS7_ISB_EEEEEEPvEEEENS_25__bucket_list_deallocatorINS7_ISJ_EEEEEC1B8ue170006ILb1EvEEv, symObjAddr: 0xA38, symBinAddr: 0x100014FF0, symSize: 0x2C }
  - { offsetInCU: 0xA09E, offset: 0x54BE0, size: 0x8, addend: 0x0, symName: __ZNSt3__117__compressed_pairINS_16__hash_node_baseIPNS_11__hash_nodeINS_17__hash_value_typeINS_12basic_stringIcNS_11char_traitsIcEENS_9allocatorIcEEEENS_6vectorI12SDL_ScancodeNS7_ISB_EEEEEEPvEEEENS7_ISG_EEEC1B8ue170006ILb1EvEEv, symObjAddr: 0xA64, symBinAddr: 0x10001501C, symSize: 0x2C }
  - { offsetInCU: 0xA0DC, offset: 0x54C1E, size: 0x8, addend: 0x0, symName: __ZNSt3__117__compressed_pairImNS_22__unordered_map_hasherINS_12basic_stringIcNS_11char_traitsIcEENS_9allocatorIcEEEENS_17__hash_value_typeIS7_NS_6vectorI12SDL_ScancodeNS5_ISA_EEEEEENS_4hashIS7_EENS_8equal_toIS7_EELb1EEEEC1B8ue170006IiNS_18__default_init_tagEEEOT_OT0_, symObjAddr: 0xA9C, symBinAddr: 0x100015048, symSize: 0x3C }
  - { offsetInCU: 0xA138, offset: 0x54C7A, size: 0x8, addend: 0x0, symName: __ZNSt3__117__compressed_pairIfNS_21__unordered_map_equalINS_12basic_stringIcNS_11char_traitsIcEENS_9allocatorIcEEEENS_17__hash_value_typeIS7_NS_6vectorI12SDL_ScancodeNS5_ISA_EEEEEENS_8equal_toIS7_EENS_4hashIS7_EELb1EEEEC1B8ue170006IfNS_18__default_init_tagEEEOT_OT0_, symObjAddr: 0xAD8, symBinAddr: 0x100015084, symSize: 0x3C }
  - { offsetInCU: 0xA18F, offset: 0x54CD1, size: 0x8, addend: 0x0, symName: __ZNSt3__110unique_ptrIA_PNS_16__hash_node_baseIPNS_11__hash_nodeINS_17__hash_value_typeINS_12basic_stringIcNS_11char_traitsIcEENS_9allocatorIcEEEENS_6vectorI12SDL_ScancodeNS7_ISB_EEEEEEPvEEEENS_25__bucket_list_deallocatorINS7_ISJ_EEEEEC2B8ue170006ILb1EvEEv, symObjAddr: 0xB14, symBinAddr: 0x1000150C0, symSize: 0x3C }
  - { offsetInCU: 0xA1C8, offset: 0x54D0A, size: 0x8, addend: 0x0, symName: __ZNSt3__117__compressed_pairIPPNS_16__hash_node_baseIPNS_11__hash_nodeINS_17__hash_value_typeINS_12basic_stringIcNS_11char_traitsIcEENS_9allocatorIcEEEENS_6vectorI12SDL_ScancodeNS7_ISB_EEEEEEPvEEEENS_25__bucket_list_deallocatorINS7_ISJ_EEEEEC1B8ue170006INS_16__value_init_tagESQ_EEOT_OT0_, symObjAddr: 0xB50, symBinAddr: 0x1000150FC, symSize: 0x3C }
  - { offsetInCU: 0xA21F, offset: 0x54D61, size: 0x8, addend: 0x0, symName: __ZNSt3__117__compressed_pairIPPNS_16__hash_node_baseIPNS_11__hash_nodeINS_17__hash_value_typeINS_12basic_stringIcNS_11char_traitsIcEENS_9allocatorIcEEEENS_6vectorI12SDL_ScancodeNS7_ISB_EEEEEEPvEEEENS_25__bucket_list_deallocatorINS7_ISJ_EEEEEC2B8ue170006INS_16__value_init_tagESQ_EEOT_OT0_, symObjAddr: 0xB8C, symBinAddr: 0x100015138, symSize: 0x40 }
  - { offsetInCU: 0xA276, offset: 0x54DB8, size: 0x8, addend: 0x0, symName: __ZNSt3__122__compressed_pair_elemIPPNS_16__hash_node_baseIPNS_11__hash_nodeINS_17__hash_value_typeINS_12basic_stringIcNS_11char_traitsIcEENS_9allocatorIcEEEENS_6vectorI12SDL_ScancodeNS7_ISB_EEEEEEPvEEEELi0ELb0EEC2B8ue170006ENS_16__value_init_tagE, symObjAddr: 0xBCC, symBinAddr: 0x100015178, symSize: 0x18 }
  - { offsetInCU: 0xA2AA, offset: 0x54DEC, size: 0x8, addend: 0x0, symName: __ZNSt3__122__compressed_pair_elemINS_25__bucket_list_deallocatorINS_9allocatorIPNS_16__hash_node_baseIPNS_11__hash_nodeINS_17__hash_value_typeINS_12basic_stringIcNS_11char_traitsIcEENS2_IcEEEENS_6vectorI12SDL_ScancodeNS2_ISC_EEEEEEPvEEEEEEEELi1ELb0EEC2B8ue170006ENS_16__value_init_tagE, symObjAddr: 0xBE4, symBinAddr: 0x100015190, symSize: 0x2C }
  - { offsetInCU: 0xA2DE, offset: 0x54E20, size: 0x8, addend: 0x0, symName: __ZNSt3__125__bucket_list_deallocatorINS_9allocatorIPNS_16__hash_node_baseIPNS_11__hash_nodeINS_17__hash_value_typeINS_12basic_stringIcNS_11char_traitsIcEENS1_IcEEEENS_6vectorI12SDL_ScancodeNS1_ISB_EEEEEEPvEEEEEEEC1B8ue170006Ev, symObjAddr: 0xC10, symBinAddr: 0x1000151BC, symSize: 0x2C }
  - { offsetInCU: 0xA307, offset: 0x54E49, size: 0x8, addend: 0x0, symName: __ZNSt3__125__bucket_list_deallocatorINS_9allocatorIPNS_16__hash_node_baseIPNS_11__hash_nodeINS_17__hash_value_typeINS_12basic_stringIcNS_11char_traitsIcEENS1_IcEEEENS_6vectorI12SDL_ScancodeNS1_ISB_EEEEEEPvEEEEEEEC2B8ue170006Ev, symObjAddr: 0xC3C, symBinAddr: 0x1000151E8, symSize: 0x40 }
  - { offsetInCU: 0xA330, offset: 0x54E72, size: 0x8, addend: 0x0, symName: __ZNSt3__117__compressed_pairImNS_9allocatorIPNS_16__hash_node_baseIPNS_11__hash_nodeINS_17__hash_value_typeINS_12basic_stringIcNS_11char_traitsIcEENS1_IcEEEENS_6vectorI12SDL_ScancodeNS1_ISB_EEEEEEPvEEEEEEEC1B8ue170006IiNS_18__default_init_tagEEEOT_OT0_, symObjAddr: 0xC7C, symBinAddr: 0x100015228, symSize: 0x3C }
  - { offsetInCU: 0xA387, offset: 0x54EC9, size: 0x8, addend: 0x0, symName: __ZNSt3__117__compressed_pairImNS_9allocatorIPNS_16__hash_node_baseIPNS_11__hash_nodeINS_17__hash_value_typeINS_12basic_stringIcNS_11char_traitsIcEENS1_IcEEEENS_6vectorI12SDL_ScancodeNS1_ISB_EEEEEEPvEEEEEEEC2B8ue170006IiNS_18__default_init_tagEEEOT_OT0_, symObjAddr: 0xCB8, symBinAddr: 0x100015264, symSize: 0x40 }
  - { offsetInCU: 0xA3DE, offset: 0x54F20, size: 0x8, addend: 0x0, symName: __ZNSt3__122__compressed_pair_elemINS_9allocatorIPNS_16__hash_node_baseIPNS_11__hash_nodeINS_17__hash_value_typeINS_12basic_stringIcNS_11char_traitsIcEENS1_IcEEEENS_6vectorI12SDL_ScancodeNS1_ISB_EEEEEEPvEEEEEELi1ELb1EEC2B8ue170006ENS_18__default_init_tagE, symObjAddr: 0xD1C, symBinAddr: 0x1000152A4, symSize: 0x2C }
  - { offsetInCU: 0xA412, offset: 0x54F54, size: 0x8, addend: 0x0, symName: __ZNSt3__19allocatorIPNS_16__hash_node_baseIPNS_11__hash_nodeINS_17__hash_value_typeINS_12basic_stringIcNS_11char_traitsIcEENS0_IcEEEENS_6vectorI12SDL_ScancodeNS0_ISA_EEEEEEPvEEEEEC2B8ue170006Ev, symObjAddr: 0xD48, symBinAddr: 0x1000152D0, symSize: 0x2C }
  - { offsetInCU: 0xA43B, offset: 0x54F7D, size: 0x8, addend: 0x0, symName: __ZNSt3__116__non_trivial_ifILb1ENS_9allocatorIPNS_16__hash_node_baseIPNS_11__hash_nodeINS_17__hash_value_typeINS_12basic_stringIcNS_11char_traitsIcEENS1_IcEEEENS_6vectorI12SDL_ScancodeNS1_ISB_EEEEEEPvEEEEEEEC2B8ue170006Ev, symObjAddr: 0xD74, symBinAddr: 0x1000152FC, symSize: 0x14 }
  - { offsetInCU: 0xA464, offset: 0x54FA6, size: 0x8, addend: 0x0, symName: __ZNSt3__117__compressed_pairINS_16__hash_node_baseIPNS_11__hash_nodeINS_17__hash_value_typeINS_12basic_stringIcNS_11char_traitsIcEENS_9allocatorIcEEEENS_6vectorI12SDL_ScancodeNS7_ISB_EEEEEEPvEEEENS7_ISG_EEEC2B8ue170006ILb1EvEEv, symObjAddr: 0xD88, symBinAddr: 0x100015310, symSize: 0x34 }
  - { offsetInCU: 0xA498, offset: 0x54FDA, size: 0x8, addend: 0x0, symName: __ZNSt3__122__compressed_pair_elemINS_16__hash_node_baseIPNS_11__hash_nodeINS_17__hash_value_typeINS_12basic_stringIcNS_11char_traitsIcEENS_9allocatorIcEEEENS_6vectorI12SDL_ScancodeNS7_ISB_EEEEEEPvEEEELi0ELb0EEC2B8ue170006ENS_16__value_init_tagE, symObjAddr: 0xDBC, symBinAddr: 0x100015344, symSize: 0x2C }
  - { offsetInCU: 0xA4CC, offset: 0x5500E, size: 0x8, addend: 0x0, symName: __ZNSt3__122__compressed_pair_elemINS_9allocatorINS_11__hash_nodeINS_17__hash_value_typeINS_12basic_stringIcNS_11char_traitsIcEENS1_IcEEEENS_6vectorI12SDL_ScancodeNS1_ISA_EEEEEEPvEEEELi1ELb1EEC2B8ue170006ENS_16__value_init_tagE, symObjAddr: 0xDE8, symBinAddr: 0x100015370, symSize: 0x2C }
  - { offsetInCU: 0xA500, offset: 0x55042, size: 0x8, addend: 0x0, symName: __ZNSt3__116__hash_node_baseIPNS_11__hash_nodeINS_17__hash_value_typeINS_12basic_stringIcNS_11char_traitsIcEENS_9allocatorIcEEEENS_6vectorI12SDL_ScancodeNS6_ISA_EEEEEEPvEEEC1B8ue170006Ev, symObjAddr: 0xE14, symBinAddr: 0x10001539C, symSize: 0x2C }
  - { offsetInCU: 0xA529, offset: 0x5506B, size: 0x8, addend: 0x0, symName: __ZNSt3__116__hash_node_baseIPNS_11__hash_nodeINS_17__hash_value_typeINS_12basic_stringIcNS_11char_traitsIcEENS_9allocatorIcEEEENS_6vectorI12SDL_ScancodeNS6_ISA_EEEEEEPvEEEC2B8ue170006Ev, symObjAddr: 0xE40, symBinAddr: 0x1000153C8, symSize: 0x18 }
  - { offsetInCU: 0xA552, offset: 0x55094, size: 0x8, addend: 0x0, symName: __ZNSt3__19allocatorINS_11__hash_nodeINS_17__hash_value_typeINS_12basic_stringIcNS_11char_traitsIcEENS0_IcEEEENS_6vectorI12SDL_ScancodeNS0_IS9_EEEEEEPvEEEC2B8ue170006Ev, symObjAddr: 0xE58, symBinAddr: 0x1000153E0, symSize: 0x2C }
  - { offsetInCU: 0xA57B, offset: 0x550BD, size: 0x8, addend: 0x0, symName: __ZNSt3__116__non_trivial_ifILb1ENS_9allocatorINS_11__hash_nodeINS_17__hash_value_typeINS_12basic_stringIcNS_11char_traitsIcEENS1_IcEEEENS_6vectorI12SDL_ScancodeNS1_ISA_EEEEEEPvEEEEEC2B8ue170006Ev, symObjAddr: 0xE84, symBinAddr: 0x10001540C, symSize: 0x14 }
  - { offsetInCU: 0xA5A4, offset: 0x550E6, size: 0x8, addend: 0x0, symName: __ZNSt3__117__compressed_pairImNS_22__unordered_map_hasherINS_12basic_stringIcNS_11char_traitsIcEENS_9allocatorIcEEEENS_17__hash_value_typeIS7_NS_6vectorI12SDL_ScancodeNS5_ISA_EEEEEENS_4hashIS7_EENS_8equal_toIS7_EELb1EEEEC2B8ue170006IiNS_18__default_init_tagEEEOT_OT0_, symObjAddr: 0xE98, symBinAddr: 0x100015420, symSize: 0x40 }
  - { offsetInCU: 0xA5FB, offset: 0x5513D, size: 0x8, addend: 0x0, symName: __ZNSt3__122__compressed_pair_elemINS_22__unordered_map_hasherINS_12basic_stringIcNS_11char_traitsIcEENS_9allocatorIcEEEENS_17__hash_value_typeIS7_NS_6vectorI12SDL_ScancodeNS5_ISA_EEEEEENS_4hashIS7_EENS_8equal_toIS7_EELb1EEELi1ELb1EEC2B8ue170006ENS_18__default_init_tagE, symObjAddr: 0xED8, symBinAddr: 0x100015460, symSize: 0x2C }
  - { offsetInCU: 0xA62F, offset: 0x55171, size: 0x8, addend: 0x0, symName: __ZNSt3__122__unordered_map_hasherINS_12basic_stringIcNS_11char_traitsIcEENS_9allocatorIcEEEENS_17__hash_value_typeIS6_NS_6vectorI12SDL_ScancodeNS4_IS9_EEEEEENS_4hashIS6_EENS_8equal_toIS6_EELb1EEC2B8ue170006Ev, symObjAddr: 0xF04, symBinAddr: 0x10001548C, symSize: 0x14 }
  - { offsetInCU: 0xA658, offset: 0x5519A, size: 0x8, addend: 0x0, symName: __ZNSt3__117__compressed_pairIfNS_21__unordered_map_equalINS_12basic_stringIcNS_11char_traitsIcEENS_9allocatorIcEEEENS_17__hash_value_typeIS7_NS_6vectorI12SDL_ScancodeNS5_ISA_EEEEEENS_8equal_toIS7_EENS_4hashIS7_EELb1EEEEC2B8ue170006IfNS_18__default_init_tagEEEOT_OT0_, symObjAddr: 0xF18, symBinAddr: 0x1000154A0, symSize: 0x40 }
  - { offsetInCU: 0xA6AF, offset: 0x551F1, size: 0x8, addend: 0x0, symName: __ZNSt3__122__compressed_pair_elemINS_21__unordered_map_equalINS_12basic_stringIcNS_11char_traitsIcEENS_9allocatorIcEEEENS_17__hash_value_typeIS7_NS_6vectorI12SDL_ScancodeNS5_ISA_EEEEEENS_8equal_toIS7_EENS_4hashIS7_EELb1EEELi1ELb1EEC2B8ue170006ENS_18__default_init_tagE, symObjAddr: 0xF7C, symBinAddr: 0x1000154E0, symSize: 0x2C }
  - { offsetInCU: 0xA6E3, offset: 0x55225, size: 0x8, addend: 0x0, symName: __ZNSt3__121__unordered_map_equalINS_12basic_stringIcNS_11char_traitsIcEENS_9allocatorIcEEEENS_17__hash_value_typeIS6_NS_6vectorI12SDL_ScancodeNS4_IS9_EEEEEENS_8equal_toIS6_EENS_4hashIS6_EELb1EEC2B8ue170006Ev, symObjAddr: 0xFA8, symBinAddr: 0x10001550C, symSize: 0x14 }
  - { offsetInCU: 0xA70C, offset: 0x5524E, size: 0x8, addend: 0x0, symName: __ZNSt3__113unordered_mapINS_12basic_stringIcNS_11char_traitsIcEENS_9allocatorIcEEEENS_6vectorI12SDL_ScancodeNS4_IS8_EEEENS_4hashIS6_EENS_8equal_toIS6_EENS4_INS_4pairIKS6_SA_EEEEED2B8ue170006Ev, symObjAddr: 0xFBC, symBinAddr: 0x100015520, symSize: 0x2C }
  - { offsetInCU: 0xA735, offset: 0x55277, size: 0x8, addend: 0x0, symName: __ZNSt3__112__hash_tableINS_17__hash_value_typeINS_12basic_stringIcNS_11char_traitsIcEENS_9allocatorIcEEEENS_6vectorI12SDL_ScancodeNS5_IS9_EEEEEENS_22__unordered_map_hasherIS7_SC_NS_4hashIS7_EENS_8equal_toIS7_EELb1EEENS_21__unordered_map_equalIS7_SC_SH_SF_Lb1EEENS5_ISC_EEED1Ev, symObjAddr: 0xFE8, symBinAddr: 0x10001554C, symSize: 0x2C }
  - { offsetInCU: 0xA760, offset: 0x552A2, size: 0x8, addend: 0x0, symName: __ZNSt3__112__hash_tableINS_17__hash_value_typeINS_12basic_stringIcNS_11char_traitsIcEENS_9allocatorIcEEEENS_6vectorI12SDL_ScancodeNS5_IS9_EEEEEENS_22__unordered_map_hasherIS7_SC_NS_4hashIS7_EENS_8equal_toIS7_EELb1EEENS_21__unordered_map_equalIS7_SC_SH_SF_Lb1EEENS5_ISC_EEED2Ev, symObjAddr: 0x1014, symBinAddr: 0x100015578, symSize: 0x48 }
  - { offsetInCU: 0xA78B, offset: 0x552CD, size: 0x8, addend: 0x0, symName: __ZNSt3__112__hash_tableINS_17__hash_value_typeINS_12basic_stringIcNS_11char_traitsIcEENS_9allocatorIcEEEENS_6vectorI12SDL_ScancodeNS5_IS9_EEEEEENS_22__unordered_map_hasherIS7_SC_NS_4hashIS7_EENS_8equal_toIS7_EELb1EEENS_21__unordered_map_equalIS7_SC_SH_SF_Lb1EEENS5_ISC_EEE17__deallocate_nodeEPNS_16__hash_node_baseIPNS_11__hash_nodeISC_PvEEEE, symObjAddr: 0x105C, symBinAddr: 0x1000155C0, symSize: 0xA8 }
  - { offsetInCU: 0xA7F4, offset: 0x55336, size: 0x8, addend: 0x0, symName: __ZNSt3__117__compressed_pairINS_16__hash_node_baseIPNS_11__hash_nodeINS_17__hash_value_typeINS_12basic_stringIcNS_11char_traitsIcEENS_9allocatorIcEEEENS_6vectorI12SDL_ScancodeNS7_ISB_EEEEEEPvEEEENS7_ISG_EEE5firstB8ue170006Ev, symObjAddr: 0x1104, symBinAddr: 0x100015668, symSize: 0x24 }
  - { offsetInCU: 0xA819, offset: 0x5535B, size: 0x8, addend: 0x0, symName: __ZNSt3__110unique_ptrIA_PNS_16__hash_node_baseIPNS_11__hash_nodeINS_17__hash_value_typeINS_12basic_stringIcNS_11char_traitsIcEENS_9allocatorIcEEEENS_6vectorI12SDL_ScancodeNS7_ISB_EEEEEEPvEEEENS_25__bucket_list_deallocatorINS7_ISJ_EEEEED1B8ue170006Ev, symObjAddr: 0x1128, symBinAddr: 0x10001568C, symSize: 0x2C }
  - { offsetInCU: 0xA842, offset: 0x55384, size: 0x8, addend: 0x0, symName: __ZNSt3__112__hash_tableINS_17__hash_value_typeINS_12basic_stringIcNS_11char_traitsIcEENS_9allocatorIcEEEENS_6vectorI12SDL_ScancodeNS5_IS9_EEEEEENS_22__unordered_map_hasherIS7_SC_NS_4hashIS7_EENS_8equal_toIS7_EELb1EEENS_21__unordered_map_equalIS7_SC_SH_SF_Lb1EEENS5_ISC_EEE12__node_allocB8ue170006Ev, symObjAddr: 0x1154, symBinAddr: 0x1000156B8, symSize: 0x28 }
  - { offsetInCU: 0xA867, offset: 0x553A9, size: 0x8, addend: 0x0, symName: __ZNSt3__116__hash_node_baseIPNS_11__hash_nodeINS_17__hash_value_typeINS_12basic_stringIcNS_11char_traitsIcEENS_9allocatorIcEEEENS_6vectorI12SDL_ScancodeNS6_ISA_EEEEEEPvEEE8__upcastB8ue170006Ev, symObjAddr: 0x117C, symBinAddr: 0x1000156E0, symSize: 0x24 }
  - { offsetInCU: 0xA88C, offset: 0x553CE, size: 0x8, addend: 0x0, symName: __ZNSt3__116allocator_traitsINS_9allocatorINS_11__hash_nodeINS_17__hash_value_typeINS_12basic_stringIcNS_11char_traitsIcEENS1_IcEEEENS_6vectorI12SDL_ScancodeNS1_ISA_EEEEEEPvEEEEE7destroyB8ue170006INS_4pairIKS8_SC_EEvvEEvRSG_PT_, symObjAddr: 0x11A0, symBinAddr: 0x100015704, symSize: 0x28 }
  - { offsetInCU: 0xA8C6, offset: 0x55408, size: 0x8, addend: 0x0, symName: __ZNSt3__122__hash_key_value_typesINS_17__hash_value_typeINS_12basic_stringIcNS_11char_traitsIcEENS_9allocatorIcEEEENS_6vectorI12SDL_ScancodeNS5_IS9_EEEEEEE9__get_ptrB8ue170006ERSC_, symObjAddr: 0x11C8, symBinAddr: 0x10001572C, symSize: 0x24 }
  - { offsetInCU: 0xA8E9, offset: 0x5542B, size: 0x8, addend: 0x0, symName: __ZNSt3__116allocator_traitsINS_9allocatorINS_11__hash_nodeINS_17__hash_value_typeINS_12basic_stringIcNS_11char_traitsIcEENS1_IcEEEENS_6vectorI12SDL_ScancodeNS1_ISA_EEEEEEPvEEEEE10deallocateB8ue170006ERSG_PSF_m, symObjAddr: 0x11EC, symBinAddr: 0x100015750, symSize: 0x34 }
  - { offsetInCU: 0xA92B, offset: 0x5546D, size: 0x8, addend: 0x0, symName: __ZNSt3__117__compressed_pairINS_16__hash_node_baseIPNS_11__hash_nodeINS_17__hash_value_typeINS_12basic_stringIcNS_11char_traitsIcEENS_9allocatorIcEEEENS_6vectorI12SDL_ScancodeNS7_ISB_EEEEEEPvEEEENS7_ISG_EEE6secondB8ue170006Ev, symObjAddr: 0x1220, symBinAddr: 0x100015784, symSize: 0x24 }
  - { offsetInCU: 0xA950, offset: 0x55492, size: 0x8, addend: 0x0, symName: __ZNSt3__122__compressed_pair_elemINS_9allocatorINS_11__hash_nodeINS_17__hash_value_typeINS_12basic_stringIcNS_11char_traitsIcEENS1_IcEEEENS_6vectorI12SDL_ScancodeNS1_ISA_EEEEEEPvEEEELi1ELb1EE5__getB8ue170006Ev, symObjAddr: 0x1244, symBinAddr: 0x1000157A8, symSize: 0x14 }
  - { offsetInCU: 0xA975, offset: 0x554B7, size: 0x8, addend: 0x0, symName: __ZNSt3__114pointer_traitsIPNS_16__hash_node_baseIPNS_11__hash_nodeINS_17__hash_value_typeINS_12basic_stringIcNS_11char_traitsIcEENS_9allocatorIcEEEENS_6vectorI12SDL_ScancodeNS7_ISB_EEEEEEPvEEEEE10pointer_toB8ue170006ERSI_, symObjAddr: 0x1258, symBinAddr: 0x1000157BC, symSize: 0x14 }
  - { offsetInCU: 0xA998, offset: 0x554DA, size: 0x8, addend: 0x0, symName: __ZNSt3__14pairIKNS_12basic_stringIcNS_11char_traitsIcEENS_9allocatorIcEEEENS_6vectorI12SDL_ScancodeNS4_IS9_EEEEED1Ev, symObjAddr: 0x126C, symBinAddr: 0x1000157D0, symSize: 0x2C }
  - { offsetInCU: 0xA9C3, offset: 0x55505, size: 0x8, addend: 0x0, symName: __ZNSt3__14pairIKNS_12basic_stringIcNS_11char_traitsIcEENS_9allocatorIcEEEENS_6vectorI12SDL_ScancodeNS4_IS9_EEEEED2Ev, symObjAddr: 0x1298, symBinAddr: 0x1000157FC, symSize: 0x38 }
  - { offsetInCU: 0xA9EE, offset: 0x55530, size: 0x8, addend: 0x0, symName: __ZNSt3__117__hash_value_typeINS_12basic_stringIcNS_11char_traitsIcEENS_9allocatorIcEEEENS_6vectorI12SDL_ScancodeNS4_IS8_EEEEE11__get_valueB8ue170006Ev, symObjAddr: 0x18F0, symBinAddr: 0x100015834, symSize: 0x24 }
  - { offsetInCU: 0xAA13, offset: 0x55555, size: 0x8, addend: 0x0, symName: __ZNSt3__19allocatorINS_11__hash_nodeINS_17__hash_value_typeINS_12basic_stringIcNS_11char_traitsIcEENS0_IcEEEENS_6vectorI12SDL_ScancodeNS0_IS9_EEEEEEPvEEE10deallocateB8ue170006EPSE_m, symObjAddr: 0x194C, symBinAddr: 0x100015890, symSize: 0x40 }
  - { offsetInCU: 0xAA54, offset: 0x55596, size: 0x8, addend: 0x0, symName: __ZNSt3__122__compressed_pair_elemINS_16__hash_node_baseIPNS_11__hash_nodeINS_17__hash_value_typeINS_12basic_stringIcNS_11char_traitsIcEENS_9allocatorIcEEEENS_6vectorI12SDL_ScancodeNS7_ISB_EEEEEEPvEEEELi0ELb0EE5__getB8ue170006Ev, symObjAddr: 0x198C, symBinAddr: 0x1000158D0, symSize: 0x14 }
  - { offsetInCU: 0xAA79, offset: 0x555BB, size: 0x8, addend: 0x0, symName: __ZNSt3__110unique_ptrIA_PNS_16__hash_node_baseIPNS_11__hash_nodeINS_17__hash_value_typeINS_12basic_stringIcNS_11char_traitsIcEENS_9allocatorIcEEEENS_6vectorI12SDL_ScancodeNS7_ISB_EEEEEEPvEEEENS_25__bucket_list_deallocatorINS7_ISJ_EEEEED2B8ue170006Ev, symObjAddr: 0x19A0, symBinAddr: 0x1000158E4, symSize: 0x30 }
  - { offsetInCU: 0xAAA2, offset: 0x555E4, size: 0x8, addend: 0x0, symName: __ZNSt3__110unique_ptrIA_PNS_16__hash_node_baseIPNS_11__hash_nodeINS_17__hash_value_typeINS_12basic_stringIcNS_11char_traitsIcEENS_9allocatorIcEEEENS_6vectorI12SDL_ScancodeNS7_ISB_EEEEEEPvEEEENS_25__bucket_list_deallocatorINS7_ISJ_EEEEE5resetB8ue170006EDn, symObjAddr: 0x19D0, symBinAddr: 0x100015914, symSize: 0x6C }
  - { offsetInCU: 0xAAE1, offset: 0x55623, size: 0x8, addend: 0x0, symName: __ZNSt3__117__compressed_pairIPPNS_16__hash_node_baseIPNS_11__hash_nodeINS_17__hash_value_typeINS_12basic_stringIcNS_11char_traitsIcEENS_9allocatorIcEEEENS_6vectorI12SDL_ScancodeNS7_ISB_EEEEEEPvEEEENS_25__bucket_list_deallocatorINS7_ISJ_EEEEE5firstB8ue170006Ev, symObjAddr: 0x1A3C, symBinAddr: 0x100015980, symSize: 0x24 }
  - { offsetInCU: 0xAB06, offset: 0x55648, size: 0x8, addend: 0x0, symName: __ZNSt3__117__compressed_pairIPPNS_16__hash_node_baseIPNS_11__hash_nodeINS_17__hash_value_typeINS_12basic_stringIcNS_11char_traitsIcEENS_9allocatorIcEEEENS_6vectorI12SDL_ScancodeNS7_ISB_EEEEEEPvEEEENS_25__bucket_list_deallocatorINS7_ISJ_EEEEE6secondB8ue170006Ev, symObjAddr: 0x1A60, symBinAddr: 0x1000159A4, symSize: 0x28 }
  - { offsetInCU: 0xAB2B, offset: 0x5566D, size: 0x8, addend: 0x0, symName: __ZNSt3__125__bucket_list_deallocatorINS_9allocatorIPNS_16__hash_node_baseIPNS_11__hash_nodeINS_17__hash_value_typeINS_12basic_stringIcNS_11char_traitsIcEENS1_IcEEEENS_6vectorI12SDL_ScancodeNS1_ISB_EEEEEEPvEEEEEEEclB8ue170006EPSJ_, symObjAddr: 0x1A88, symBinAddr: 0x1000159CC, symSize: 0x58 }
  - { offsetInCU: 0xAB5F, offset: 0x556A1, size: 0x8, addend: 0x0, symName: __ZNSt3__122__compressed_pair_elemIPPNS_16__hash_node_baseIPNS_11__hash_nodeINS_17__hash_value_typeINS_12basic_stringIcNS_11char_traitsIcEENS_9allocatorIcEEEENS_6vectorI12SDL_ScancodeNS7_ISB_EEEEEEPvEEEELi0ELb0EE5__getB8ue170006Ev, symObjAddr: 0x1AE0, symBinAddr: 0x100015A24, symSize: 0x14 }
  - { offsetInCU: 0xAB84, offset: 0x556C6, size: 0x8, addend: 0x0, symName: __ZNSt3__122__compressed_pair_elemINS_25__bucket_list_deallocatorINS_9allocatorIPNS_16__hash_node_baseIPNS_11__hash_nodeINS_17__hash_value_typeINS_12basic_stringIcNS_11char_traitsIcEENS2_IcEEEENS_6vectorI12SDL_ScancodeNS2_ISC_EEEEEEPvEEEEEEEELi1ELb0EE5__getB8ue170006Ev, symObjAddr: 0x1AF4, symBinAddr: 0x100015A38, symSize: 0x14 }
  - { offsetInCU: 0xABA9, offset: 0x556EB, size: 0x8, addend: 0x0, symName: __ZNSt3__116allocator_traitsINS_9allocatorIPNS_16__hash_node_baseIPNS_11__hash_nodeINS_17__hash_value_typeINS_12basic_stringIcNS_11char_traitsIcEENS1_IcEEEENS_6vectorI12SDL_ScancodeNS1_ISB_EEEEEEPvEEEEEEE10deallocateB8ue170006ERSK_PSJ_m, symObjAddr: 0x1B08, symBinAddr: 0x100015A4C, symSize: 0x34 }
  - { offsetInCU: 0xABEB, offset: 0x5572D, size: 0x8, addend: 0x0, symName: __ZNSt3__125__bucket_list_deallocatorINS_9allocatorIPNS_16__hash_node_baseIPNS_11__hash_nodeINS_17__hash_value_typeINS_12basic_stringIcNS_11char_traitsIcEENS1_IcEEEENS_6vectorI12SDL_ScancodeNS1_ISB_EEEEEEPvEEEEEEE7__allocB8ue170006Ev, symObjAddr: 0x1B3C, symBinAddr: 0x100015A80, symSize: 0x24 }
  - { offsetInCU: 0xAC10, offset: 0x55752, size: 0x8, addend: 0x0, symName: __ZNSt3__125__bucket_list_deallocatorINS_9allocatorIPNS_16__hash_node_baseIPNS_11__hash_nodeINS_17__hash_value_typeINS_12basic_stringIcNS_11char_traitsIcEENS1_IcEEEENS_6vectorI12SDL_ScancodeNS1_ISB_EEEEEEPvEEEEEEE4sizeB8ue170006Ev, symObjAddr: 0x1B60, symBinAddr: 0x100015AA4, symSize: 0x24 }
  - { offsetInCU: 0xAC35, offset: 0x55777, size: 0x8, addend: 0x0, symName: __ZNSt3__19allocatorIPNS_16__hash_node_baseIPNS_11__hash_nodeINS_17__hash_value_typeINS_12basic_stringIcNS_11char_traitsIcEENS0_IcEEEENS_6vectorI12SDL_ScancodeNS0_ISA_EEEEEEPvEEEEE10deallocateB8ue170006EPSI_m, symObjAddr: 0x1B84, symBinAddr: 0x100015AC8, symSize: 0x40 }
  - { offsetInCU: 0xAC76, offset: 0x557B8, size: 0x8, addend: 0x0, symName: __ZNSt3__117__compressed_pairImNS_9allocatorIPNS_16__hash_node_baseIPNS_11__hash_nodeINS_17__hash_value_typeINS_12basic_stringIcNS_11char_traitsIcEENS1_IcEEEENS_6vectorI12SDL_ScancodeNS1_ISB_EEEEEEPvEEEEEEE6secondB8ue170006Ev, symObjAddr: 0x1BC4, symBinAddr: 0x100015B08, symSize: 0x24 }
  - { offsetInCU: 0xAC9B, offset: 0x557DD, size: 0x8, addend: 0x0, symName: __ZNSt3__122__compressed_pair_elemINS_9allocatorIPNS_16__hash_node_baseIPNS_11__hash_nodeINS_17__hash_value_typeINS_12basic_stringIcNS_11char_traitsIcEENS1_IcEEEENS_6vectorI12SDL_ScancodeNS1_ISB_EEEEEEPvEEEEEELi1ELb1EE5__getB8ue170006Ev, symObjAddr: 0x1BE8, symBinAddr: 0x100015B2C, symSize: 0x14 }
  - { offsetInCU: 0xACC0, offset: 0x55802, size: 0x8, addend: 0x0, symName: __ZNSt3__117__compressed_pairImNS_9allocatorIPNS_16__hash_node_baseIPNS_11__hash_nodeINS_17__hash_value_typeINS_12basic_stringIcNS_11char_traitsIcEENS1_IcEEEENS_6vectorI12SDL_ScancodeNS1_ISB_EEEEEEPvEEEEEEE5firstB8ue170006Ev, symObjAddr: 0x1BFC, symBinAddr: 0x100015B40, symSize: 0x24 }
  - { offsetInCU: 0xACF9, offset: 0x5583B, size: 0x8, addend: 0x0, symName: __ZNSt3__112__hash_tableINS_17__hash_value_typeINS_12basic_stringIcNS_11char_traitsIcEENS_9allocatorIcEEEENS_6vectorI12SDL_ScancodeNS5_IS9_EEEEEENS_22__unordered_map_hasherIS7_SC_NS_4hashIS7_EENS_8equal_toIS7_EELb1EEENS_21__unordered_map_equalIS7_SC_SH_SF_Lb1EEENS5_ISC_EEE25__emplace_unique_key_argsIS7_JRKNS_21piecewise_construct_tENS_5tupleIJRKS7_EEENSR_IJEEEEEENS_4pairINS_15__hash_iteratorIPNS_11__hash_nodeISC_PvEEEEbEERKT_DpOT0_, symObjAddr: 0x1C34, symBinAddr: 0x100015B64, symSize: 0x4E8 }
  - { offsetInCU: 0xAE02, offset: 0x55944, size: 0x8, addend: 0x0, symName: __ZNKSt3__115__hash_iteratorIPNS_11__hash_nodeINS_17__hash_value_typeINS_12basic_stringIcNS_11char_traitsIcEENS_9allocatorIcEEEENS_6vectorI12SDL_ScancodeNS6_ISA_EEEEEEPvEEEptB8ue170006Ev, symObjAddr: 0x214C, symBinAddr: 0x10001607C, symSize: 0x30 }
  - { offsetInCU: 0xAE27, offset: 0x55969, size: 0x8, addend: 0x0, symName: __ZNSt3__112__hash_tableINS_17__hash_value_typeINS_12basic_stringIcNS_11char_traitsIcEENS_9allocatorIcEEEENS_6vectorI12SDL_ScancodeNS5_IS9_EEEEEENS_22__unordered_map_hasherIS7_SC_NS_4hashIS7_EENS_8equal_toIS7_EELb1EEENS_21__unordered_map_equalIS7_SC_SH_SF_Lb1EEENS5_ISC_EEE13hash_functionB8ue170006Ev, symObjAddr: 0x217C, symBinAddr: 0x1000160AC, symSize: 0x28 }
  - { offsetInCU: 0xAE4C, offset: 0x5598E, size: 0x8, addend: 0x0, symName: __ZNKSt3__122__unordered_map_hasherINS_12basic_stringIcNS_11char_traitsIcEENS_9allocatorIcEEEENS_17__hash_value_typeIS6_NS_6vectorI12SDL_ScancodeNS4_IS9_EEEEEENS_4hashIS6_EENS_8equal_toIS6_EELb1EEclB8ue170006ERKS6_, symObjAddr: 0x21A4, symBinAddr: 0x1000160D4, symSize: 0x2C }
  - { offsetInCU: 0xAE80, offset: 0x559C2, size: 0x8, addend: 0x0, symName: __ZNKSt3__112__hash_tableINS_17__hash_value_typeINS_12basic_stringIcNS_11char_traitsIcEENS_9allocatorIcEEEENS_6vectorI12SDL_ScancodeNS5_IS9_EEEEEENS_22__unordered_map_hasherIS7_SC_NS_4hashIS7_EENS_8equal_toIS7_EELb1EEENS_21__unordered_map_equalIS7_SC_SH_SF_Lb1EEENS5_ISC_EEE12bucket_countB8ue170006Ev, symObjAddr: 0x21D0, symBinAddr: 0x100016100, symSize: 0x28 }
  - { offsetInCU: 0xAEA5, offset: 0x559E7, size: 0x8, addend: 0x0, symName: __ZNKSt3__110unique_ptrIA_PNS_16__hash_node_baseIPNS_11__hash_nodeINS_17__hash_value_typeINS_12basic_stringIcNS_11char_traitsIcEENS_9allocatorIcEEEENS_6vectorI12SDL_ScancodeNS7_ISB_EEEEEEPvEEEENS_25__bucket_list_deallocatorINS7_ISJ_EEEEEixB8ue170006Em, symObjAddr: 0x2290, symBinAddr: 0x100016128, symSize: 0x34 }
  - { offsetInCU: 0xAED9, offset: 0x55A1B, size: 0x8, addend: 0x0, symName: __ZNKSt3__116__hash_node_baseIPNS_11__hash_nodeINS_17__hash_value_typeINS_12basic_stringIcNS_11char_traitsIcEENS_9allocatorIcEEEENS_6vectorI12SDL_ScancodeNS6_ISA_EEEEEEPvEEE6__hashB8ue170006Ev, symObjAddr: 0x22C4, symBinAddr: 0x10001615C, symSize: 0x18 }
  - { offsetInCU: 0xAEFE, offset: 0x55A40, size: 0x8, addend: 0x0, symName: __ZNSt3__112__hash_tableINS_17__hash_value_typeINS_12basic_stringIcNS_11char_traitsIcEENS_9allocatorIcEEEENS_6vectorI12SDL_ScancodeNS5_IS9_EEEEEENS_22__unordered_map_hasherIS7_SC_NS_4hashIS7_EENS_8equal_toIS7_EELb1EEENS_21__unordered_map_equalIS7_SC_SH_SF_Lb1EEENS5_ISC_EEE6key_eqB8ue170006Ev, symObjAddr: 0x22DC, symBinAddr: 0x100016174, symSize: 0x28 }
  - { offsetInCU: 0xAF23, offset: 0x55A65, size: 0x8, addend: 0x0, symName: __ZNKSt3__121__unordered_map_equalINS_12basic_stringIcNS_11char_traitsIcEENS_9allocatorIcEEEENS_17__hash_value_typeIS6_NS_6vectorI12SDL_ScancodeNS4_IS9_EEEEEENS_8equal_toIS6_EENS_4hashIS6_EELb1EEclB8ue170006ERKSC_RKS6_, symObjAddr: 0x2304, symBinAddr: 0x10001619C, symSize: 0x48 }
  - { offsetInCU: 0xAF66, offset: 0x55AA8, size: 0x8, addend: 0x0, symName: __ZNSt3__112__hash_tableINS_17__hash_value_typeINS_12basic_stringIcNS_11char_traitsIcEENS_9allocatorIcEEEENS_6vectorI12SDL_ScancodeNS5_IS9_EEEEEENS_22__unordered_map_hasherIS7_SC_NS_4hashIS7_EENS_8equal_toIS7_EELb1EEENS_21__unordered_map_equalIS7_SC_SH_SF_Lb1EEENS5_ISC_EEE21__construct_node_hashIRKNS_21piecewise_construct_tEJNS_5tupleIJRKS7_EEENSR_IJEEEEEENS_10unique_ptrINS_11__hash_nodeISC_PvEENS_22__hash_node_destructorINS5_ISZ_EEEEEEmOT_DpOT0_, symObjAddr: 0x234C, symBinAddr: 0x1000161E4, symSize: 0x150 }
  - { offsetInCU: 0xB000, offset: 0x55B42, size: 0x8, addend: 0x0, symName: __ZNSt3__112__hash_tableINS_17__hash_value_typeINS_12basic_stringIcNS_11char_traitsIcEENS_9allocatorIcEEEENS_6vectorI12SDL_ScancodeNS5_IS9_EEEEEENS_22__unordered_map_hasherIS7_SC_NS_4hashIS7_EENS_8equal_toIS7_EELb1EEENS_21__unordered_map_equalIS7_SC_SH_SF_Lb1EEENS5_ISC_EEE4sizeB8ue170006Ev, symObjAddr: 0x249C, symBinAddr: 0x100016334, symSize: 0x28 }
  - { offsetInCU: 0xB025, offset: 0x55B67, size: 0x8, addend: 0x0, symName: __ZNSt3__112__hash_tableINS_17__hash_value_typeINS_12basic_stringIcNS_11char_traitsIcEENS_9allocatorIcEEEENS_6vectorI12SDL_ScancodeNS5_IS9_EEEEEENS_22__unordered_map_hasherIS7_SC_NS_4hashIS7_EENS_8equal_toIS7_EELb1EEENS_21__unordered_map_equalIS7_SC_SH_SF_Lb1EEENS5_ISC_EEE15max_load_factorB8ue170006Ev, symObjAddr: 0x24C4, symBinAddr: 0x10001635C, symSize: 0x28 }
  - { offsetInCU: 0xB04A, offset: 0x55B8C, size: 0x8, addend: 0x0, symName: __ZNSt3__112__hash_tableINS_17__hash_value_typeINS_12basic_stringIcNS_11char_traitsIcEENS_9allocatorIcEEEENS_6vectorI12SDL_ScancodeNS5_IS9_EEEEEENS_22__unordered_map_hasherIS7_SC_NS_4hashIS7_EENS_8equal_toIS7_EELb1EEENS_21__unordered_map_equalIS7_SC_SH_SF_Lb1EEENS5_ISC_EEE15__rehash_uniqueB8ue170006Em, symObjAddr: 0x24EC, symBinAddr: 0x100016384, symSize: 0x2C }
  - { offsetInCU: 0xB07E, offset: 0x55BC0, size: 0x8, addend: 0x0, symName: __ZNSt3__116__hash_node_baseIPNS_11__hash_nodeINS_17__hash_value_typeINS_12basic_stringIcNS_11char_traitsIcEENS_9allocatorIcEEEENS_6vectorI12SDL_ScancodeNS6_ISA_EEEEEEPvEEE5__ptrB8ue170006Ev, symObjAddr: 0x25AC, symBinAddr: 0x1000163B0, symSize: 0x24 }
  - { offsetInCU: 0xB0A3, offset: 0x55BE5, size: 0x8, addend: 0x0, symName: __ZNKSt3__110unique_ptrINS_11__hash_nodeINS_17__hash_value_typeINS_12basic_stringIcNS_11char_traitsIcEENS_9allocatorIcEEEENS_6vectorI12SDL_ScancodeNS6_ISA_EEEEEEPvEENS_22__hash_node_destructorINS6_ISF_EEEEEptB8ue170006Ev, symObjAddr: 0x25D0, symBinAddr: 0x1000163D4, symSize: 0x28 }
  - { offsetInCU: 0xB0C8, offset: 0x55C0A, size: 0x8, addend: 0x0, symName: __ZNKSt3__110unique_ptrINS_11__hash_nodeINS_17__hash_value_typeINS_12basic_stringIcNS_11char_traitsIcEENS_9allocatorIcEEEENS_6vectorI12SDL_ScancodeNS6_ISA_EEEEEEPvEENS_22__hash_node_destructorINS6_ISF_EEEEE3getB8ue170006Ev, symObjAddr: 0x25F8, symBinAddr: 0x1000163FC, symSize: 0x28 }
  - { offsetInCU: 0xB0ED, offset: 0x55C2F, size: 0x8, addend: 0x0, symName: __ZNSt3__110unique_ptrINS_11__hash_nodeINS_17__hash_value_typeINS_12basic_stringIcNS_11char_traitsIcEENS_9allocatorIcEEEENS_6vectorI12SDL_ScancodeNS6_ISA_EEEEEEPvEENS_22__hash_node_destructorINS6_ISF_EEEEE7releaseB8ue170006Ev, symObjAddr: 0x2620, symBinAddr: 0x100016424, symSize: 0x44 }
  - { offsetInCU: 0xB121, offset: 0x55C63, size: 0x8, addend: 0x0, symName: __ZNSt3__110unique_ptrINS_11__hash_nodeINS_17__hash_value_typeINS_12basic_stringIcNS_11char_traitsIcEENS_9allocatorIcEEEENS_6vectorI12SDL_ScancodeNS6_ISA_EEEEEEPvEENS_22__hash_node_destructorINS6_ISF_EEEEED1B8ue170006Ev, symObjAddr: 0x2664, symBinAddr: 0x100016468, symSize: 0x2C }
  - { offsetInCU: 0xB14A, offset: 0x55C8C, size: 0x8, addend: 0x0, symName: __ZNSt3__115__hash_iteratorIPNS_11__hash_nodeINS_17__hash_value_typeINS_12basic_stringIcNS_11char_traitsIcEENS_9allocatorIcEEEENS_6vectorI12SDL_ScancodeNS6_ISA_EEEEEEPvEEEC1B8ue170006EPNS_16__hash_node_baseISG_EE, symObjAddr: 0x2690, symBinAddr: 0x100016494, symSize: 0x34 }
  - { offsetInCU: 0xB18C, offset: 0x55CCE, size: 0x8, addend: 0x0, symName: __ZNSt3__14pairINS_15__hash_iteratorIPNS_11__hash_nodeINS_17__hash_value_typeINS_12basic_stringIcNS_11char_traitsIcEENS_9allocatorIcEEEENS_6vectorI12SDL_ScancodeNS7_ISB_EEEEEEPvEEEEbEC1B8ue170006ISI_RbLSF_0EEEOT_OT0_, symObjAddr: 0x26C4, symBinAddr: 0x1000164C8, symSize: 0x3C }
  - { offsetInCU: 0xB1E9, offset: 0x55D2B, size: 0x8, addend: 0x0, symName: __ZNSt3__117__compressed_pairImNS_22__unordered_map_hasherINS_12basic_stringIcNS_11char_traitsIcEENS_9allocatorIcEEEENS_17__hash_value_typeIS7_NS_6vectorI12SDL_ScancodeNS5_ISA_EEEEEENS_4hashIS7_EENS_8equal_toIS7_EELb1EEEE6secondB8ue170006Ev, symObjAddr: 0x2700, symBinAddr: 0x100016504, symSize: 0x24 }
  - { offsetInCU: 0xB20E, offset: 0x55D50, size: 0x8, addend: 0x0, symName: __ZNSt3__122__compressed_pair_elemINS_22__unordered_map_hasherINS_12basic_stringIcNS_11char_traitsIcEENS_9allocatorIcEEEENS_17__hash_value_typeIS7_NS_6vectorI12SDL_ScancodeNS5_ISA_EEEEEENS_4hashIS7_EENS_8equal_toIS7_EELb1EEELi1ELb1EE5__getB8ue170006Ev, symObjAddr: 0x2724, symBinAddr: 0x100016528, symSize: 0x14 }
  - { offsetInCU: 0xB233, offset: 0x55D75, size: 0x8, addend: 0x0, symName: __ZNKSt3__110unique_ptrIA_PNS_16__hash_node_baseIPNS_11__hash_nodeINS_17__hash_value_typeINS_12basic_stringIcNS_11char_traitsIcEENS_9allocatorIcEEEENS_6vectorI12SDL_ScancodeNS7_ISB_EEEEEEPvEEEENS_25__bucket_list_deallocatorINS7_ISJ_EEEEE11get_deleterB8ue170006Ev, symObjAddr: 0x3758, symBinAddr: 0x10001653C, symSize: 0x24 }
  - { offsetInCU: 0xB258, offset: 0x55D9A, size: 0x8, addend: 0x0, symName: __ZNKSt3__125__bucket_list_deallocatorINS_9allocatorIPNS_16__hash_node_baseIPNS_11__hash_nodeINS_17__hash_value_typeINS_12basic_stringIcNS_11char_traitsIcEENS1_IcEEEENS_6vectorI12SDL_ScancodeNS1_ISB_EEEEEEPvEEEEEEE4sizeB8ue170006Ev, symObjAddr: 0x377C, symBinAddr: 0x100016560, symSize: 0x28 }
  - { offsetInCU: 0xB27D, offset: 0x55DBF, size: 0x8, addend: 0x0, symName: __ZNKSt3__117__compressed_pairIPPNS_16__hash_node_baseIPNS_11__hash_nodeINS_17__hash_value_typeINS_12basic_stringIcNS_11char_traitsIcEENS_9allocatorIcEEEENS_6vectorI12SDL_ScancodeNS7_ISB_EEEEEEPvEEEENS_25__bucket_list_deallocatorINS7_ISJ_EEEEE6secondB8ue170006Ev, symObjAddr: 0x37A4, symBinAddr: 0x100016588, symSize: 0x28 }
  - { offsetInCU: 0xB2A2, offset: 0x55DE4, size: 0x8, addend: 0x0, symName: __ZNKSt3__122__compressed_pair_elemINS_25__bucket_list_deallocatorINS_9allocatorIPNS_16__hash_node_baseIPNS_11__hash_nodeINS_17__hash_value_typeINS_12basic_stringIcNS_11char_traitsIcEENS2_IcEEEENS_6vectorI12SDL_ScancodeNS2_ISC_EEEEEEPvEEEEEEEELi1ELb0EE5__getB8ue170006Ev, symObjAddr: 0x37CC, symBinAddr: 0x1000165B0, symSize: 0x14 }
  - { offsetInCU: 0xB2C7, offset: 0x55E09, size: 0x8, addend: 0x0, symName: __ZNKSt3__117__compressed_pairImNS_9allocatorIPNS_16__hash_node_baseIPNS_11__hash_nodeINS_17__hash_value_typeINS_12basic_stringIcNS_11char_traitsIcEENS1_IcEEEENS_6vectorI12SDL_ScancodeNS1_ISB_EEEEEEPvEEEEEEE5firstB8ue170006Ev, symObjAddr: 0x37E0, symBinAddr: 0x1000165C4, symSize: 0x24 }
  - { offsetInCU: 0xB2EC, offset: 0x55E2E, size: 0x8, addend: 0x0, symName: __ZNKSt3__117__compressed_pairIPPNS_16__hash_node_baseIPNS_11__hash_nodeINS_17__hash_value_typeINS_12basic_stringIcNS_11char_traitsIcEENS_9allocatorIcEEEENS_6vectorI12SDL_ScancodeNS7_ISB_EEEEEEPvEEEENS_25__bucket_list_deallocatorINS7_ISJ_EEEEE5firstB8ue170006Ev, symObjAddr: 0x3818, symBinAddr: 0x1000165E8, symSize: 0x24 }
  - { offsetInCU: 0xB311, offset: 0x55E53, size: 0x8, addend: 0x0, symName: __ZNKSt3__122__compressed_pair_elemIPPNS_16__hash_node_baseIPNS_11__hash_nodeINS_17__hash_value_typeINS_12basic_stringIcNS_11char_traitsIcEENS_9allocatorIcEEEENS_6vectorI12SDL_ScancodeNS7_ISB_EEEEEEPvEEEELi0ELb0EE5__getB8ue170006Ev, symObjAddr: 0x383C, symBinAddr: 0x10001660C, symSize: 0x14 }
  - { offsetInCU: 0xB336, offset: 0x55E78, size: 0x8, addend: 0x0, symName: __ZNSt3__117__compressed_pairIfNS_21__unordered_map_equalINS_12basic_stringIcNS_11char_traitsIcEENS_9allocatorIcEEEENS_17__hash_value_typeIS7_NS_6vectorI12SDL_ScancodeNS5_ISA_EEEEEENS_8equal_toIS7_EENS_4hashIS7_EELb1EEEE6secondB8ue170006Ev, symObjAddr: 0x3850, symBinAddr: 0x100016620, symSize: 0x24 }
  - { offsetInCU: 0xB35B, offset: 0x55E9D, size: 0x8, addend: 0x0, symName: __ZNSt3__122__compressed_pair_elemINS_21__unordered_map_equalINS_12basic_stringIcNS_11char_traitsIcEENS_9allocatorIcEEEENS_17__hash_value_typeIS7_NS_6vectorI12SDL_ScancodeNS5_ISA_EEEEEENS_8equal_toIS7_EENS_4hashIS7_EELb1EEELi1ELb1EE5__getB8ue170006Ev, symObjAddr: 0x3874, symBinAddr: 0x100016644, symSize: 0x14 }
  - { offsetInCU: 0xB380, offset: 0x55EC2, size: 0x8, addend: 0x0, symName: __ZNKSt3__117__hash_value_typeINS_12basic_stringIcNS_11char_traitsIcEENS_9allocatorIcEEEENS_6vectorI12SDL_ScancodeNS4_IS8_EEEEE11__get_valueB8ue170006Ev, symObjAddr: 0x38BC, symBinAddr: 0x100016658, symSize: 0x24 }
  - { offsetInCU: 0xB3A5, offset: 0x55EE7, size: 0x8, addend: 0x0, symName: __ZNSt3__116allocator_traitsINS_9allocatorINS_11__hash_nodeINS_17__hash_value_typeINS_12basic_stringIcNS_11char_traitsIcEENS1_IcEEEENS_6vectorI12SDL_ScancodeNS1_ISA_EEEEEEPvEEEEE8allocateB8ue170006ERSG_m, symObjAddr: 0x3A94, symBinAddr: 0x1000166B4, symSize: 0x2C }
  - { offsetInCU: 0xB3D8, offset: 0x55F1A, size: 0x8, addend: 0x0, symName: __ZNSt3__122__hash_node_destructorINS_9allocatorINS_11__hash_nodeINS_17__hash_value_typeINS_12basic_stringIcNS_11char_traitsIcEENS1_IcEEEENS_6vectorI12SDL_ScancodeNS1_ISA_EEEEEEPvEEEEEC1B8ue170006ERSG_b, symObjAddr: 0x3AC0, symBinAddr: 0x1000166E0, symSize: 0x48 }
  - { offsetInCU: 0xB424, offset: 0x55F66, size: 0x8, addend: 0x0, symName: __ZNSt3__110unique_ptrINS_11__hash_nodeINS_17__hash_value_typeINS_12basic_stringIcNS_11char_traitsIcEENS_9allocatorIcEEEENS_6vectorI12SDL_ScancodeNS6_ISA_EEEEEEPvEENS_22__hash_node_destructorINS6_ISF_EEEEEC1B8ue170006ILb1EvEEPSF_NS_16__dependent_typeINS_27__unique_ptr_deleter_sfinaeISI_EEXT_EE20__good_rval_ref_typeE, symObjAddr: 0x3B08, symBinAddr: 0x100016728, symSize: 0x3C }
  - { offsetInCU: 0xB474, offset: 0x55FB6, size: 0x8, addend: 0x0, symName: __ZNSt3__116allocator_traitsINS_9allocatorINS_11__hash_nodeINS_17__hash_value_typeINS_12basic_stringIcNS_11char_traitsIcEENS1_IcEEEENS_6vectorI12SDL_ScancodeNS1_ISA_EEEEEEPvEEEEE9constructB8ue170006INS_4pairIKS8_SC_EEJRKNS_21piecewise_construct_tENS_5tupleIJRSK_EEENSP_IJEEEEvEEvRSG_PT_DpOT0_, symObjAddr: 0x3B44, symBinAddr: 0x100016764, symSize: 0x44 }
  - { offsetInCU: 0xB4F3, offset: 0x56035, size: 0x8, addend: 0x0, symName: __ZNSt3__110unique_ptrINS_11__hash_nodeINS_17__hash_value_typeINS_12basic_stringIcNS_11char_traitsIcEENS_9allocatorIcEEEENS_6vectorI12SDL_ScancodeNS6_ISA_EEEEEEPvEENS_22__hash_node_destructorINS6_ISF_EEEEE11get_deleterB8ue170006Ev, symObjAddr: 0x3B88, symBinAddr: 0x1000167A8, symSize: 0x24 }
  - { offsetInCU: 0xB518, offset: 0x5605A, size: 0x8, addend: 0x0, symName: __ZNSt3__19allocatorINS_11__hash_nodeINS_17__hash_value_typeINS_12basic_stringIcNS_11char_traitsIcEENS0_IcEEEENS_6vectorI12SDL_ScancodeNS0_IS9_EEEEEEPvEEE8allocateB8ue170006Em, symObjAddr: 0x3BAC, symBinAddr: 0x1000167CC, symSize: 0x58 }
  - { offsetInCU: 0xB555, offset: 0x56097, size: 0x8, addend: 0x0, symName: __ZNSt3__116allocator_traitsINS_9allocatorINS_11__hash_nodeINS_17__hash_value_typeINS_12basic_stringIcNS_11char_traitsIcEENS1_IcEEEENS_6vectorI12SDL_ScancodeNS1_ISA_EEEEEEPvEEEEE8max_sizeB8ue170006ISG_vEEmRKSG_, symObjAddr: 0x3C04, symBinAddr: 0x100016824, symSize: 0x24 }
  - { offsetInCU: 0xB583, offset: 0x560C5, size: 0x8, addend: 0x0, symName: __ZNKSt3__19allocatorINS_11__hash_nodeINS_17__hash_value_typeINS_12basic_stringIcNS_11char_traitsIcEENS0_IcEEEENS_6vectorI12SDL_ScancodeNS0_IS9_EEEEEEPvEEE8max_sizeB8ue170006Ev, symObjAddr: 0x3CBC, symBinAddr: 0x100016848, symSize: 0x14 }
  - { offsetInCU: 0xB5A8, offset: 0x560EA, size: 0x8, addend: 0x0, symName: __ZNSt3__122__hash_node_destructorINS_9allocatorINS_11__hash_nodeINS_17__hash_value_typeINS_12basic_stringIcNS_11char_traitsIcEENS1_IcEEEENS_6vectorI12SDL_ScancodeNS1_ISA_EEEEEEPvEEEEEC2B8ue170006ERSG_b, symObjAddr: 0x3D20, symBinAddr: 0x10001685C, symSize: 0x38 }
  - { offsetInCU: 0xB5EF, offset: 0x56131, size: 0x8, addend: 0x0, symName: __ZNSt3__110unique_ptrINS_11__hash_nodeINS_17__hash_value_typeINS_12basic_stringIcNS_11char_traitsIcEENS_9allocatorIcEEEENS_6vectorI12SDL_ScancodeNS6_ISA_EEEEEEPvEENS_22__hash_node_destructorINS6_ISF_EEEEEC2B8ue170006ILb1EvEEPSF_NS_16__dependent_typeINS_27__unique_ptr_deleter_sfinaeISI_EEXT_EE20__good_rval_ref_typeE, symObjAddr: 0x3D58, symBinAddr: 0x100016894, symSize: 0x48 }
  - { offsetInCU: 0xB63F, offset: 0x56181, size: 0x8, addend: 0x0, symName: __ZNSt3__117__compressed_pairIPNS_11__hash_nodeINS_17__hash_value_typeINS_12basic_stringIcNS_11char_traitsIcEENS_9allocatorIcEEEENS_6vectorI12SDL_ScancodeNS6_ISA_EEEEEEPvEENS_22__hash_node_destructorINS6_ISF_EEEEEC1B8ue170006IRSG_SJ_EEOT_OT0_, symObjAddr: 0x3DA0, symBinAddr: 0x1000168DC, symSize: 0x3C }
  - { offsetInCU: 0xB696, offset: 0x561D8, size: 0x8, addend: 0x0, symName: __ZNSt3__117__compressed_pairIPNS_11__hash_nodeINS_17__hash_value_typeINS_12basic_stringIcNS_11char_traitsIcEENS_9allocatorIcEEEENS_6vectorI12SDL_ScancodeNS6_ISA_EEEEEEPvEENS_22__hash_node_destructorINS6_ISF_EEEEEC2B8ue170006IRSG_SJ_EEOT_OT0_, symObjAddr: 0x3DDC, symBinAddr: 0x100016918, symSize: 0x48 }
  - { offsetInCU: 0xB6ED, offset: 0x5622F, size: 0x8, addend: 0x0, symName: __ZNSt3__122__compressed_pair_elemIPNS_11__hash_nodeINS_17__hash_value_typeINS_12basic_stringIcNS_11char_traitsIcEENS_9allocatorIcEEEENS_6vectorI12SDL_ScancodeNS6_ISA_EEEEEEPvEELi0ELb0EEC2B8ue170006IRSG_vEEOT_, symObjAddr: 0x3E24, symBinAddr: 0x100016960, symSize: 0x24 }
  - { offsetInCU: 0xB72E, offset: 0x56270, size: 0x8, addend: 0x0, symName: __ZNSt3__122__compressed_pair_elemINS_22__hash_node_destructorINS_9allocatorINS_11__hash_nodeINS_17__hash_value_typeINS_12basic_stringIcNS_11char_traitsIcEENS2_IcEEEENS_6vectorI12SDL_ScancodeNS2_ISB_EEEEEEPvEEEEEELi1ELb0EEC2B8ue170006ISI_vEEOT_, symObjAddr: 0x3E48, symBinAddr: 0x100016984, symSize: 0x24 }
  - { offsetInCU: 0xB76F, offset: 0x562B1, size: 0x8, addend: 0x0, symName: __ZNSt3__19allocatorINS_11__hash_nodeINS_17__hash_value_typeINS_12basic_stringIcNS_11char_traitsIcEENS0_IcEEEENS_6vectorI12SDL_ScancodeNS0_IS9_EEEEEEPvEEE9constructB8ue170006INS_4pairIKS7_SB_EEJRKNS_21piecewise_construct_tENS_5tupleIJRSI_EEENSN_IJEEEEEEvPT_DpOT0_, symObjAddr: 0x3E6C, symBinAddr: 0x1000169A8, symSize: 0x44 }
  - { offsetInCU: 0xB7EA, offset: 0x5632C, size: 0x8, addend: 0x0, symName: __ZNSt3__14pairIKNS_12basic_stringIcNS_11char_traitsIcEENS_9allocatorIcEEEENS_6vectorI12SDL_ScancodeNS4_IS9_EEEEEC1B8ue170006IJRS7_EJEEENS_21piecewise_construct_tENS_5tupleIJDpT_EEENSG_IJDpT0_EEE, symObjAddr: 0x3EB0, symBinAddr: 0x1000169EC, symSize: 0x3C }
  - { offsetInCU: 0xB850, offset: 0x56392, size: 0x8, addend: 0x0, symName: __ZNSt3__14pairIKNS_12basic_stringIcNS_11char_traitsIcEENS_9allocatorIcEEEENS_6vectorI12SDL_ScancodeNS4_IS9_EEEEEC1B8ue170006IJRS7_EJEJLm0EEJEEENS_21piecewise_construct_tERNS_5tupleIJDpT_EEERNSG_IJDpT0_EEENS_15__tuple_indicesIJXspT1_EEEENSP_IJXspT2_EEEE, symObjAddr: 0x3EEC, symBinAddr: 0x100016A28, symSize: 0x3C }
  - { offsetInCU: 0xB8DC, offset: 0x5641E, size: 0x8, addend: 0x0, symName: __ZNSt3__14pairIKNS_12basic_stringIcNS_11char_traitsIcEENS_9allocatorIcEEEENS_6vectorI12SDL_ScancodeNS4_IS9_EEEEEC2B8ue170006IJRS7_EJEJLm0EEJEEENS_21piecewise_construct_tERNS_5tupleIJDpT_EEERNSG_IJDpT0_EEENS_15__tuple_indicesIJXspT1_EEEENSP_IJXspT2_EEEE, symObjAddr: 0x3F28, symBinAddr: 0x100016A64, symSize: 0x50 }
  - { offsetInCU: 0xB968, offset: 0x564AA, size: 0x8, addend: 0x0, symName: __ZNSt3__16vectorI12SDL_ScancodeNS_9allocatorIS1_EEEC1B8ue170006Ev, symObjAddr: 0x3F9C, symBinAddr: 0x100016AD8, symSize: 0x2C }
  - { offsetInCU: 0xB991, offset: 0x564D3, size: 0x8, addend: 0x0, symName: __ZNSt3__112__tuple_leafILm0ERKNS_12basic_stringIcNS_11char_traitsIcEENS_9allocatorIcEEEELb0EE3getB8ue170006Ev, symObjAddr: 0x3FC8, symBinAddr: 0x100016B04, symSize: 0x18 }
  - { offsetInCU: 0xB9B6, offset: 0x564F8, size: 0x8, addend: 0x0, symName: __ZNSt3__16vectorI12SDL_ScancodeNS_9allocatorIS1_EEEC2B8ue170006Ev, symObjAddr: 0x3FE0, symBinAddr: 0x100016B1C, symSize: 0x4C }
  - { offsetInCU: 0xB9DF, offset: 0x56521, size: 0x8, addend: 0x0, symName: __ZNSt3__117__compressed_pairIPNS_11__hash_nodeINS_17__hash_value_typeINS_12basic_stringIcNS_11char_traitsIcEENS_9allocatorIcEEEENS_6vectorI12SDL_ScancodeNS6_ISA_EEEEEEPvEENS_22__hash_node_destructorINS6_ISF_EEEEE6secondB8ue170006Ev, symObjAddr: 0x4130, symBinAddr: 0x100016B68, symSize: 0x28 }
  - { offsetInCU: 0xBA04, offset: 0x56546, size: 0x8, addend: 0x0, symName: __ZNSt3__122__compressed_pair_elemINS_22__hash_node_destructorINS_9allocatorINS_11__hash_nodeINS_17__hash_value_typeINS_12basic_stringIcNS_11char_traitsIcEENS2_IcEEEENS_6vectorI12SDL_ScancodeNS2_ISB_EEEEEEPvEEEEEELi1ELb0EE5__getB8ue170006Ev, symObjAddr: 0x4158, symBinAddr: 0x100016B90, symSize: 0x14 }
  - { offsetInCU: 0xBA29, offset: 0x5656B, size: 0x8, addend: 0x0, symName: __ZNSt3__117__compressed_pairImNS_22__unordered_map_hasherINS_12basic_stringIcNS_11char_traitsIcEENS_9allocatorIcEEEENS_17__hash_value_typeIS7_NS_6vectorI12SDL_ScancodeNS5_ISA_EEEEEENS_4hashIS7_EENS_8equal_toIS7_EELb1EEEE5firstB8ue170006Ev, symObjAddr: 0x416C, symBinAddr: 0x100016BA4, symSize: 0x24 }
  - { offsetInCU: 0xBA4E, offset: 0x56590, size: 0x8, addend: 0x0, symName: __ZNSt3__117__compressed_pairIfNS_21__unordered_map_equalINS_12basic_stringIcNS_11char_traitsIcEENS_9allocatorIcEEEENS_17__hash_value_typeIS7_NS_6vectorI12SDL_ScancodeNS5_ISA_EEEEEENS_8equal_toIS7_EENS_4hashIS7_EELb1EEEE5firstB8ue170006Ev, symObjAddr: 0x4190, symBinAddr: 0x100016BC8, symSize: 0x24 }
  - { offsetInCU: 0xBA73, offset: 0x565B5, size: 0x8, addend: 0x0, symName: __ZNSt3__112__hash_tableINS_17__hash_value_typeINS_12basic_stringIcNS_11char_traitsIcEENS_9allocatorIcEEEENS_6vectorI12SDL_ScancodeNS5_IS9_EEEEEENS_22__unordered_map_hasherIS7_SC_NS_4hashIS7_EENS_8equal_toIS7_EELb1EEENS_21__unordered_map_equalIS7_SC_SH_SF_Lb1EEENS5_ISC_EEE8__rehashILb1EEEvm, symObjAddr: 0x41C8, symBinAddr: 0x100016BEC, symSize: 0x1A8 }
  - { offsetInCU: 0xBAC1, offset: 0x56603, size: 0x8, addend: 0x0, symName: __ZNSt3__112__hash_tableINS_17__hash_value_typeINS_12basic_stringIcNS_11char_traitsIcEENS_9allocatorIcEEEENS_6vectorI12SDL_ScancodeNS5_IS9_EEEEEENS_22__unordered_map_hasherIS7_SC_NS_4hashIS7_EENS_8equal_toIS7_EELb1EEENS_21__unordered_map_equalIS7_SC_SH_SF_Lb1EEENS5_ISC_EEE11__do_rehashILb1EEEvm, symObjAddr: 0x4370, symBinAddr: 0x100016D94, symSize: 0x288 }
  - { offsetInCU: 0xBBA2, offset: 0x566E4, size: 0x8, addend: 0x0, symName: __ZNSt3__110unique_ptrIA_PNS_16__hash_node_baseIPNS_11__hash_nodeINS_17__hash_value_typeINS_12basic_stringIcNS_11char_traitsIcEENS_9allocatorIcEEEENS_6vectorI12SDL_ScancodeNS7_ISB_EEEEEEPvEEEENS_25__bucket_list_deallocatorINS7_ISJ_EEEEE11get_deleterB8ue170006Ev, symObjAddr: 0x4664, symBinAddr: 0x10001701C, symSize: 0x24 }
  - { offsetInCU: 0xBBC7, offset: 0x56709, size: 0x8, addend: 0x0, symName: __ZNSt3__110unique_ptrIA_PNS_16__hash_node_baseIPNS_11__hash_nodeINS_17__hash_value_typeINS_12basic_stringIcNS_11char_traitsIcEENS_9allocatorIcEEEENS_6vectorI12SDL_ScancodeNS7_ISB_EEEEEEPvEEEENS_25__bucket_list_deallocatorINS7_ISJ_EEEEE5resetB8ue170006IPSJ_EENS_9enable_ifIXsr28_CheckArrayPointerConversionIT_EE5valueEvE4typeESS_, symObjAddr: 0x4688, symBinAddr: 0x100017040, symSize: 0x78 }
  - { offsetInCU: 0xBC13, offset: 0x56755, size: 0x8, addend: 0x0, symName: __ZNSt3__116allocator_traitsINS_9allocatorIPNS_16__hash_node_baseIPNS_11__hash_nodeINS_17__hash_value_typeINS_12basic_stringIcNS_11char_traitsIcEENS1_IcEEEENS_6vectorI12SDL_ScancodeNS1_ISB_EEEEEEPvEEEEEEE8allocateB8ue170006ERSK_m, symObjAddr: 0x4700, symBinAddr: 0x1000170B8, symSize: 0x2C }
  - { offsetInCU: 0xBC46, offset: 0x56788, size: 0x8, addend: 0x0, symName: __ZNSt3__19allocatorIPNS_16__hash_node_baseIPNS_11__hash_nodeINS_17__hash_value_typeINS_12basic_stringIcNS_11char_traitsIcEENS0_IcEEEENS_6vectorI12SDL_ScancodeNS0_ISA_EEEEEEPvEEEEE8allocateB8ue170006Em, symObjAddr: 0x472C, symBinAddr: 0x1000170E4, symSize: 0x58 }
  - { offsetInCU: 0xBC83, offset: 0x567C5, size: 0x8, addend: 0x0, symName: __ZNSt3__116allocator_traitsINS_9allocatorIPNS_16__hash_node_baseIPNS_11__hash_nodeINS_17__hash_value_typeINS_12basic_stringIcNS_11char_traitsIcEENS1_IcEEEENS_6vectorI12SDL_ScancodeNS1_ISB_EEEEEEPvEEEEEEE8max_sizeB8ue170006ISK_vEEmRKSK_, symObjAddr: 0x4784, symBinAddr: 0x10001713C, symSize: 0x24 }
  - { offsetInCU: 0xBCB1, offset: 0x567F3, size: 0x8, addend: 0x0, symName: __ZNKSt3__19allocatorIPNS_16__hash_node_baseIPNS_11__hash_nodeINS_17__hash_value_typeINS_12basic_stringIcNS_11char_traitsIcEENS0_IcEEEENS_6vectorI12SDL_ScancodeNS0_ISA_EEEEEEPvEEEEE8max_sizeB8ue170006Ev, symObjAddr: 0x47A8, symBinAddr: 0x100017160, symSize: 0x14 }
  - { offsetInCU: 0xBCD6, offset: 0x56818, size: 0x8, addend: 0x0, symName: __ZNKSt3__117__compressed_pairIPNS_11__hash_nodeINS_17__hash_value_typeINS_12basic_stringIcNS_11char_traitsIcEENS_9allocatorIcEEEENS_6vectorI12SDL_ScancodeNS6_ISA_EEEEEEPvEENS_22__hash_node_destructorINS6_ISF_EEEEE5firstB8ue170006Ev, symObjAddr: 0x4860, symBinAddr: 0x100017174, symSize: 0x24 }
  - { offsetInCU: 0xBCFB, offset: 0x5683D, size: 0x8, addend: 0x0, symName: __ZNKSt3__122__compressed_pair_elemIPNS_11__hash_nodeINS_17__hash_value_typeINS_12basic_stringIcNS_11char_traitsIcEENS_9allocatorIcEEEENS_6vectorI12SDL_ScancodeNS6_ISA_EEEEEEPvEELi0ELb0EE5__getB8ue170006Ev, symObjAddr: 0x4884, symBinAddr: 0x100017198, symSize: 0x14 }
  - { offsetInCU: 0xBD20, offset: 0x56862, size: 0x8, addend: 0x0, symName: __ZNSt3__117__compressed_pairIPNS_11__hash_nodeINS_17__hash_value_typeINS_12basic_stringIcNS_11char_traitsIcEENS_9allocatorIcEEEENS_6vectorI12SDL_ScancodeNS6_ISA_EEEEEEPvEENS_22__hash_node_destructorINS6_ISF_EEEEE5firstB8ue170006Ev, symObjAddr: 0x4898, symBinAddr: 0x1000171AC, symSize: 0x24 }
  - { offsetInCU: 0xBD45, offset: 0x56887, size: 0x8, addend: 0x0, symName: __ZNSt3__122__compressed_pair_elemIPNS_11__hash_nodeINS_17__hash_value_typeINS_12basic_stringIcNS_11char_traitsIcEENS_9allocatorIcEEEENS_6vectorI12SDL_ScancodeNS6_ISA_EEEEEEPvEELi0ELb0EE5__getB8ue170006Ev, symObjAddr: 0x48BC, symBinAddr: 0x1000171D0, symSize: 0x14 }
  - { offsetInCU: 0xBD6A, offset: 0x568AC, size: 0x8, addend: 0x0, symName: __ZNSt3__110unique_ptrINS_11__hash_nodeINS_17__hash_value_typeINS_12basic_stringIcNS_11char_traitsIcEENS_9allocatorIcEEEENS_6vectorI12SDL_ScancodeNS6_ISA_EEEEEEPvEENS_22__hash_node_destructorINS6_ISF_EEEEED2B8ue170006Ev, symObjAddr: 0x48D0, symBinAddr: 0x1000171E4, symSize: 0x30 }
  - { offsetInCU: 0xBD93, offset: 0x568D5, size: 0x8, addend: 0x0, symName: __ZNSt3__110unique_ptrINS_11__hash_nodeINS_17__hash_value_typeINS_12basic_stringIcNS_11char_traitsIcEENS_9allocatorIcEEEENS_6vectorI12SDL_ScancodeNS6_ISA_EEEEEEPvEENS_22__hash_node_destructorINS6_ISF_EEEEE5resetB8ue170006EPSF_, symObjAddr: 0x4900, symBinAddr: 0x100017214, symSize: 0x78 }
  - { offsetInCU: 0xBDD6, offset: 0x56918, size: 0x8, addend: 0x0, symName: __ZNSt3__122__hash_node_destructorINS_9allocatorINS_11__hash_nodeINS_17__hash_value_typeINS_12basic_stringIcNS_11char_traitsIcEENS1_IcEEEENS_6vectorI12SDL_ScancodeNS1_ISA_EEEEEEPvEEEEEclB8ue170006EPSF_, symObjAddr: 0x4978, symBinAddr: 0x10001728C, symSize: 0x94 }
  - { offsetInCU: 0xBE0A, offset: 0x5694C, size: 0x8, addend: 0x0, symName: __ZNSt3__115__hash_iteratorIPNS_11__hash_nodeINS_17__hash_value_typeINS_12basic_stringIcNS_11char_traitsIcEENS_9allocatorIcEEEENS_6vectorI12SDL_ScancodeNS6_ISA_EEEEEEPvEEEC2B8ue170006EPNS_16__hash_node_baseISG_EE, symObjAddr: 0x4A0C, symBinAddr: 0x100017320, symSize: 0x20 }
  - { offsetInCU: 0xBE42, offset: 0x56984, size: 0x8, addend: 0x0, symName: __ZNSt3__14pairINS_15__hash_iteratorIPNS_11__hash_nodeINS_17__hash_value_typeINS_12basic_stringIcNS_11char_traitsIcEENS_9allocatorIcEEEENS_6vectorI12SDL_ScancodeNS7_ISB_EEEEEEPvEEEEbEC2B8ue170006ISI_RbLSF_0EEEOT_OT0_, symObjAddr: 0x4A2C, symBinAddr: 0x100017340, symSize: 0x38 }
  - { offsetInCU: 0xBE9F, offset: 0x569E1, size: 0x8, addend: 0x0, symName: __ZNSt3__15tupleIJRKNS_12basic_stringIcNS_11char_traitsIcEENS_9allocatorIcEEEEEEC1B8ue170006INS_4_AndELi0EEES8_, symObjAddr: 0x4A64, symBinAddr: 0x100017378, symSize: 0x34 }
  - { offsetInCU: 0xBEE7, offset: 0x56A29, size: 0x8, addend: 0x0, symName: __ZNSt3__15tupleIJRKNS_12basic_stringIcNS_11char_traitsIcEENS_9allocatorIcEEEEEEC2B8ue170006INS_4_AndELi0EEES8_, symObjAddr: 0x4A98, symBinAddr: 0x1000173AC, symSize: 0x34 }
  - { offsetInCU: 0xBF2F, offset: 0x56A71, size: 0x8, addend: 0x0, symName: __ZNSt3__112__tuple_implINS_15__tuple_indicesIJLm0EEEEJRKNS_12basic_stringIcNS_11char_traitsIcEENS_9allocatorIcEEEEEEC1B8ue170006IJLm0EEJSA_EJEJEJSA_EEENS1_IJXspT_EEEENS_13__tuple_typesIJDpT0_EEENS1_IJXspT1_EEEENSE_IJDpT2_EEEDpOT3_, symObjAddr: 0x4ACC, symBinAddr: 0x1000173E0, symSize: 0x34 }
  - { offsetInCU: 0xBFBF, offset: 0x56B01, size: 0x8, addend: 0x0, symName: __ZNSt3__112__tuple_implINS_15__tuple_indicesIJLm0EEEEJRKNS_12basic_stringIcNS_11char_traitsIcEENS_9allocatorIcEEEEEEC2B8ue170006IJLm0EEJSA_EJEJEJSA_EEENS1_IJXspT_EEEENS_13__tuple_typesIJDpT0_EEENS1_IJXspT1_EEEENSE_IJDpT2_EEEDpOT3_, symObjAddr: 0x4B00, symBinAddr: 0x100017414, symSize: 0x34 }
  - { offsetInCU: 0xC04F, offset: 0x56B91, size: 0x8, addend: 0x0, symName: __ZNSt3__112__tuple_leafILm0ERKNS_12basic_stringIcNS_11char_traitsIcEENS_9allocatorIcEEEELb0EEC2B8ue170006IS8_vEEOT_, symObjAddr: 0x4B34, symBinAddr: 0x100017448, symSize: 0x20 }
  - { offsetInCU: 0xC091, offset: 0x56BD3, size: 0x8, addend: 0x0, symName: __ZNSt3__114pointer_traitsIPNS_17__hash_value_typeINS_12basic_stringIcNS_11char_traitsIcEENS_9allocatorIcEEEENS_6vectorI12SDL_ScancodeNS5_IS9_EEEEEEE10pointer_toB8ue170006ERSC_, symObjAddr: 0x4B54, symBinAddr: 0x100017468, symSize: 0x14 }
  - { offsetInCU: 0xC0B4, offset: 0x56BF6, size: 0x8, addend: 0x0, symName: __ZNSt3__16vectorI12SDL_ScancodeNS_9allocatorIS1_EEE19__copy_assign_allocB8ue170006ERKS4_, symObjAddr: 0x4B68, symBinAddr: 0x10001747C, symSize: 0x2C }
  - { offsetInCU: 0xC0E8, offset: 0x56C2A, size: 0x8, addend: 0x0, symName: __ZNSt3__16vectorI12SDL_ScancodeNS_9allocatorIS1_EEE6assignIPS1_Li0EEEvT_S7_, symObjAddr: 0x4B94, symBinAddr: 0x1000174A8, symSize: 0x5C }
  - { offsetInCU: 0xC13B, offset: 0x56C7D, size: 0x8, addend: 0x0, symName: __ZNSt3__16vectorI12SDL_ScancodeNS_9allocatorIS1_EEE19__copy_assign_allocB8ue170006ERKS4_NS_17integral_constantIbLb0EEE, symObjAddr: 0x4BF0, symBinAddr: 0x100017504, symSize: 0x14 }
  - { offsetInCU: 0xC176, offset: 0x56CB8, size: 0x8, addend: 0x0, symName: __ZNSt3__16vectorI12SDL_ScancodeNS_9allocatorIS1_EEE18__assign_with_sizeB8ue170006IPS1_S6_EEvT_T0_l, symObjAddr: 0x4C04, symBinAddr: 0x100017518, symSize: 0x164 }
  - { offsetInCU: 0xC224, offset: 0x56D66, size: 0x8, addend: 0x0, symName: __ZNSt3__16vectorI12SDL_ScancodeNS_9allocatorIS1_EEE18__construct_at_endIPS1_S6_EEvT_T0_m, symObjAddr: 0x4E08, symBinAddr: 0x10001771C, symSize: 0x8C }
  - { offsetInCU: 0xC298, offset: 0x56DDA, size: 0x8, addend: 0x0, symName: __ZNSt3__16vectorI12SDL_ScancodeNS_9allocatorIS1_EEE17__destruct_at_endB8ue170006EPS1_, symObjAddr: 0x4ED8, symBinAddr: 0x1000177EC, symSize: 0x4C }
  - { offsetInCU: 0xC2DB, offset: 0x56E1D, size: 0x8, addend: 0x0, symName: __ZNSt3__16vectorI12SDL_ScancodeNS_9allocatorIS1_EEE13__vdeallocateEv, symObjAddr: 0x4F24, symBinAddr: 0x100017838, symSize: 0x94 }
  - { offsetInCU: 0xC301, offset: 0x56E43, size: 0x8, addend: 0x0, symName: __ZNKSt3__16vectorI12SDL_ScancodeNS_9allocatorIS1_EEE11__recommendB8ue170006Em, symObjAddr: 0x5064, symBinAddr: 0x1000178CC, symSize: 0xB4 }
  - { offsetInCU: 0xC38B, offset: 0x56ECD, size: 0x8, addend: 0x0, symName: __ZNSt3__14pairIP12SDL_ScancodeS2_EC1B8ue170006IS2_S2_LPv0EEEOT_OT0_, symObjAddr: 0x53E8, symBinAddr: 0x100017B44, symSize: 0x3C }
  - { offsetInCU: 0xC3E8, offset: 0x56F2A, size: 0x8, addend: 0x0, symName: __ZNSt3__14pairIP12SDL_ScancodeS2_EC2B8ue170006IS2_S2_LPv0EEEOT_OT0_, symObjAddr: 0x5424, symBinAddr: 0x100017B80, symSize: 0x34 }
  - { offsetInCU: 0xC44F, offset: 0x56F91, size: 0x8, addend: 0x0, symName: __ZNKSt3__114__copy_trivialclB8ue170006I12SDL_ScancodeS2_Li0EEENS_4pairIPT_PT0_EES5_S5_S7_, symObjAddr: 0x55E4, symBinAddr: 0x100017CAC, symSize: 0x48 }
  - { offsetInCU: 0xC4B6, offset: 0x56FF8, size: 0x8, addend: 0x0, symName: __ZNSt3__14pairIP12SDL_ScancodeS2_EC1B8ue170006IRS2_S2_LPv0EEEOT_OT0_, symObjAddr: 0x5774, symBinAddr: 0x100017E3C, symSize: 0x3C }
  - { offsetInCU: 0xC513, offset: 0x57055, size: 0x8, addend: 0x0, symName: __ZNSt3__14pairIP12SDL_ScancodeS2_EC2B8ue170006IRS2_S2_LPv0EEEOT_OT0_, symObjAddr: 0x57B0, symBinAddr: 0x100017E78, symSize: 0x34 }
  - { offsetInCU: 0xC570, offset: 0x570B2, size: 0x8, addend: 0x0, symName: __ZNKSt3__16vectorI12SDL_ScancodeNS_9allocatorIS1_EEE17__annotate_shrinkB8ue170006Em, symObjAddr: 0x57E4, symBinAddr: 0x100017EAC, symSize: 0xB4 }
  - { offsetInCU: 0xC5A4, offset: 0x570E6, size: 0x8, addend: 0x0, symName: __ZNSt3__16vectorI12SDL_ScancodeNS_9allocatorIS1_EEE5clearB8ue170006Ev, symObjAddr: 0x5898, symBinAddr: 0x100017F60, symSize: 0x44 }
  - { offsetInCU: 0xC5E2, offset: 0x57124, size: 0x8, addend: 0x0, symName: __ZNKSt3__112__hash_tableINS_17__hash_value_typeINS_12basic_stringIcNS_11char_traitsIcEENS_9allocatorIcEEEENS_6vectorI12SDL_ScancodeNS5_IS9_EEEEEENS_22__unordered_map_hasherIS7_SC_NS_4hashIS7_EENS_8equal_toIS7_EELb1EEENS_21__unordered_map_equalIS7_SC_SH_SF_Lb1EEENS5_ISC_EEE4findIS7_EENS_21__hash_const_iteratorIPNS_11__hash_nodeISC_PvEEEERKT_, symObjAddr: 0x5D3C, symBinAddr: 0x100017FCC, symSize: 0x1B8 }
  - { offsetInCU: 0xC66A, offset: 0x571AC, size: 0x8, addend: 0x0, symName: __ZNSt3__125__hash_map_const_iteratorINS_21__hash_const_iteratorIPNS_11__hash_nodeINS_17__hash_value_typeINS_12basic_stringIcNS_11char_traitsIcEENS_9allocatorIcEEEENS_6vectorI12SDL_ScancodeNS7_ISB_EEEEEEPvEEEEEC1B8ue170006ESI_, symObjAddr: 0x5EF4, symBinAddr: 0x100018184, symSize: 0x34 }
  - { offsetInCU: 0xC6A2, offset: 0x571E4, size: 0x8, addend: 0x0, symName: __ZNKSt3__112__hash_tableINS_17__hash_value_typeINS_12basic_stringIcNS_11char_traitsIcEENS_9allocatorIcEEEENS_6vectorI12SDL_ScancodeNS5_IS9_EEEEEENS_22__unordered_map_hasherIS7_SC_NS_4hashIS7_EENS_8equal_toIS7_EELb1EEENS_21__unordered_map_equalIS7_SC_SH_SF_Lb1EEENS5_ISC_EEE13hash_functionB8ue170006Ev, symObjAddr: 0x5F28, symBinAddr: 0x1000181B8, symSize: 0x28 }
  - { offsetInCU: 0xC6C7, offset: 0x57209, size: 0x8, addend: 0x0, symName: __ZNKSt3__112__hash_tableINS_17__hash_value_typeINS_12basic_stringIcNS_11char_traitsIcEENS_9allocatorIcEEEENS_6vectorI12SDL_ScancodeNS5_IS9_EEEEEENS_22__unordered_map_hasherIS7_SC_NS_4hashIS7_EENS_8equal_toIS7_EELb1EEENS_21__unordered_map_equalIS7_SC_SH_SF_Lb1EEENS5_ISC_EEE6key_eqB8ue170006Ev, symObjAddr: 0x5F50, symBinAddr: 0x1000181E0, symSize: 0x28 }
  - { offsetInCU: 0xC6EC, offset: 0x5722E, size: 0x8, addend: 0x0, symName: __ZNSt3__121__hash_const_iteratorIPNS_11__hash_nodeINS_17__hash_value_typeINS_12basic_stringIcNS_11char_traitsIcEENS_9allocatorIcEEEENS_6vectorI12SDL_ScancodeNS6_ISA_EEEEEEPvEEEC1B8ue170006EPNS_16__hash_node_baseISG_EE, symObjAddr: 0x5F78, symBinAddr: 0x100018208, symSize: 0x34 }
  - { offsetInCU: 0xC724, offset: 0x57266, size: 0x8, addend: 0x0, symName: __ZNKSt3__112__hash_tableINS_17__hash_value_typeINS_12basic_stringIcNS_11char_traitsIcEENS_9allocatorIcEEEENS_6vectorI12SDL_ScancodeNS5_IS9_EEEEEENS_22__unordered_map_hasherIS7_SC_NS_4hashIS7_EENS_8equal_toIS7_EELb1EEENS_21__unordered_map_equalIS7_SC_SH_SF_Lb1EEENS5_ISC_EEE3endEv, symObjAddr: 0x5FAC, symBinAddr: 0x10001823C, symSize: 0x2C }
  - { offsetInCU: 0xC74A, offset: 0x5728C, size: 0x8, addend: 0x0, symName: __ZNKSt3__117__compressed_pairImNS_22__unordered_map_hasherINS_12basic_stringIcNS_11char_traitsIcEENS_9allocatorIcEEEENS_17__hash_value_typeIS7_NS_6vectorI12SDL_ScancodeNS5_ISA_EEEEEENS_4hashIS7_EENS_8equal_toIS7_EELb1EEEE6secondB8ue170006Ev, symObjAddr: 0x5FD8, symBinAddr: 0x100018268, symSize: 0x24 }
  - { offsetInCU: 0xC76F, offset: 0x572B1, size: 0x8, addend: 0x0, symName: __ZNKSt3__122__compressed_pair_elemINS_22__unordered_map_hasherINS_12basic_stringIcNS_11char_traitsIcEENS_9allocatorIcEEEENS_17__hash_value_typeIS7_NS_6vectorI12SDL_ScancodeNS5_ISA_EEEEEENS_4hashIS7_EENS_8equal_toIS7_EELb1EEELi1ELb1EE5__getB8ue170006Ev, symObjAddr: 0x5FFC, symBinAddr: 0x10001828C, symSize: 0x14 }
  - { offsetInCU: 0xC794, offset: 0x572D6, size: 0x8, addend: 0x0, symName: __ZNKSt3__117__compressed_pairIfNS_21__unordered_map_equalINS_12basic_stringIcNS_11char_traitsIcEENS_9allocatorIcEEEENS_17__hash_value_typeIS7_NS_6vectorI12SDL_ScancodeNS5_ISA_EEEEEENS_8equal_toIS7_EENS_4hashIS7_EELb1EEEE6secondB8ue170006Ev, symObjAddr: 0x6010, symBinAddr: 0x1000182A0, symSize: 0x24 }
  - { offsetInCU: 0xC7B9, offset: 0x572FB, size: 0x8, addend: 0x0, symName: __ZNKSt3__122__compressed_pair_elemINS_21__unordered_map_equalINS_12basic_stringIcNS_11char_traitsIcEENS_9allocatorIcEEEENS_17__hash_value_typeIS7_NS_6vectorI12SDL_ScancodeNS5_ISA_EEEEEENS_8equal_toIS7_EENS_4hashIS7_EELb1EEELi1ELb1EE5__getB8ue170006Ev, symObjAddr: 0x6034, symBinAddr: 0x1000182C4, symSize: 0x14 }
  - { offsetInCU: 0xC7DE, offset: 0x57320, size: 0x8, addend: 0x0, symName: __ZNSt3__121__hash_const_iteratorIPNS_11__hash_nodeINS_17__hash_value_typeINS_12basic_stringIcNS_11char_traitsIcEENS_9allocatorIcEEEENS_6vectorI12SDL_ScancodeNS6_ISA_EEEEEEPvEEEC2B8ue170006EPNS_16__hash_node_baseISG_EE, symObjAddr: 0x6048, symBinAddr: 0x1000182D8, symSize: 0x20 }
  - { offsetInCU: 0xC816, offset: 0x57358, size: 0x8, addend: 0x0, symName: __ZNSt3__125__hash_map_const_iteratorINS_21__hash_const_iteratorIPNS_11__hash_nodeINS_17__hash_value_typeINS_12basic_stringIcNS_11char_traitsIcEENS_9allocatorIcEEEENS_6vectorI12SDL_ScancodeNS7_ISB_EEEEEEPvEEEEEC2B8ue170006ESI_, symObjAddr: 0x6068, symBinAddr: 0x1000182F8, symSize: 0x20 }
  - { offsetInCU: 0xC84E, offset: 0x57390, size: 0x8, addend: 0x0, symName: __ZNSt3__114pointer_traitsIPKNS_4pairIKNS_12basic_stringIcNS_11char_traitsIcEENS_9allocatorIcEEEENS_6vectorI12SDL_ScancodeNS5_ISA_EEEEEEE10pointer_toB8ue170006ERSE_, symObjAddr: 0x60EC, symBinAddr: 0x10001837C, symSize: 0x14 }
  - { offsetInCU: 0xC871, offset: 0x573B3, size: 0x8, addend: 0x0, symName: __ZNKSt3__121__hash_const_iteratorIPNS_11__hash_nodeINS_17__hash_value_typeINS_12basic_stringIcNS_11char_traitsIcEENS_9allocatorIcEEEENS_6vectorI12SDL_ScancodeNS6_ISA_EEEEEEPvEEEptB8ue170006Ev, symObjAddr: 0x6100, symBinAddr: 0x100018390, symSize: 0x30 }
  - { offsetInCU: 0xC896, offset: 0x573D8, size: 0x8, addend: 0x0, symName: __ZNSt3__114pointer_traitsIPKNS_17__hash_value_typeINS_12basic_stringIcNS_11char_traitsIcEENS_9allocatorIcEEEENS_6vectorI12SDL_ScancodeNS5_IS9_EEEEEEE10pointer_toB8ue170006ERSD_, symObjAddr: 0x6130, symBinAddr: 0x1000183C0, symSize: 0x14 }
  - { offsetInCU: 0xC8B9, offset: 0x573FB, size: 0x8, addend: 0x0, symName: __ZNKSt3__16vectorI12SDL_ScancodeNS_9allocatorIS1_EEE11__make_iterB8ue170006EPKS1_, symObjAddr: 0x6144, symBinAddr: 0x1000183D4, symSize: 0x30 }
  - { offsetInCU: 0xC8ED, offset: 0x5742F, size: 0x8, addend: 0x0, symName: __ZNSt3__111__wrap_iterIPK12SDL_ScancodeEC1B8ue170006ES3_, symObjAddr: 0x6174, symBinAddr: 0x100018404, symSize: 0x34 }
  - { offsetInCU: 0xC924, offset: 0x57466, size: 0x8, addend: 0x0, symName: __ZNSt3__111__wrap_iterIPK12SDL_ScancodeEC2B8ue170006ES3_, symObjAddr: 0x61A8, symBinAddr: 0x100018438, symSize: 0x20 }
  - { offsetInCU: 0x26, offset: 0x575DF, size: 0x8, addend: 0x0, symName: _main, symObjAddr: 0x0, symBinAddr: 0x100018458, symSize: 0x164 }
  - { offsetInCU: 0x40, offset: 0x575F9, size: 0x8, addend: 0x0, symName: _game, symObjAddr: 0x698B0, symBinAddr: 0x10003C498, symSize: 0x0 }
  - { offsetInCU: 0xB4B4, offset: 0x62A6D, size: 0x8, addend: 0x0, symName: _main, symObjAddr: 0x0, symBinAddr: 0x100018458, symSize: 0x164 }
  - { offsetInCU: 0xB531, offset: 0x62AEA, size: 0x8, addend: 0x0, symName: __ZN4Game7runningEv, symObjAddr: 0x164, symBinAddr: 0x1000185BC, symSize: 0x20 }
  - { offsetInCU: 0x110B4, offset: 0x73BC8, size: 0x8, addend: 0x0, symName: __ZNSt3__17getlineB8ue170006IcNS_11char_traitsIcEENS_9allocatorIcEEEERNS_13basic_istreamIT_T0_EES9_RNS_12basic_stringIS6_S7_T1_EES6_, symObjAddr: 0x328, symBinAddr: 0x100018904, symSize: 0x238 }
  - { offsetInCU: 0x11A00, offset: 0x74514, size: 0x8, addend: 0x0, symName: __ZNSt3__17getlineB8ue170006IcNS_11char_traitsIcEENS_9allocatorIcEEEERNS_13basic_istreamIT_T0_EES9_RNS_12basic_stringIS6_S7_T1_EE, symObjAddr: 0xCBC, symBinAddr: 0x1000191CC, symSize: 0x5C }
  - { offsetInCU: 0x11A63, offset: 0x74577, size: 0x8, addend: 0x0, symName: __ZNSt3__112__to_addressB8ue170006INS_12basic_stringIcNS_11char_traitsIcEENS_9allocatorIcEEEEEEPT_S8_, symObjAddr: 0x17E8, symBinAddr: 0x100019BBC, symSize: 0x14 }
  - { offsetInCU: 0x11C85, offset: 0x74799, size: 0x8, addend: 0x0, symName: __ZNSt3__119__allocate_at_leastB8ue170006INS_9allocatorINS_12basic_stringIcNS_11char_traitsIcEENS1_IcEEEEEEEENS_19__allocation_resultINS_16allocator_traitsIT_E7pointerEEERSA_m, symObjAddr: 0x2F18, symBinAddr: 0x10001AD40, symSize: 0x40 }
  - { offsetInCU: 0x11CC8, offset: 0x747DC, size: 0x8, addend: 0x0, symName: __ZNSt3__142__uninitialized_allocator_move_if_noexceptB8ue170006INS_9allocatorINS_12basic_stringIcNS_11char_traitsIcEENS1_IcEEEEEENS_16reverse_iteratorIPS6_EESA_SA_EET2_RT_T0_T1_SB_, symObjAddr: 0x31B4, symBinAddr: 0x10001AEF8, symSize: 0x12C }
  - { offsetInCU: 0x11D68, offset: 0x7487C, size: 0x8, addend: 0x0, symName: __ZNSt3__14swapB8ue170006IPNS_12basic_stringIcNS_11char_traitsIcEENS_9allocatorIcEEEEEENS_9enable_ifIXaasr21is_move_constructibleIT_EE5valuesr18is_move_assignableIS9_EE5valueEvE4typeERS9_SC_, symObjAddr: 0x332C, symBinAddr: 0x10001B070, symSize: 0x3C }
  - { offsetInCU: 0x11DB9, offset: 0x748CD, size: 0x8, addend: 0x0, symName: __ZNSt3__122__make_exception_guardB8ue170006INS_29_AllocatorDestroyRangeReverseINS_9allocatorINS_12basic_stringIcNS_11char_traitsIcEENS2_IcEEEEEENS_16reverse_iteratorIPS7_EEEEEENS_28__exception_guard_exceptionsIT_EESE_, symObjAddr: 0x3430, symBinAddr: 0x10001B174, symSize: 0x4C }
  - { offsetInCU: 0x11DEF, offset: 0x74903, size: 0x8, addend: 0x0, symName: __ZNSt3__1neB8ue170006IPNS_12basic_stringIcNS_11char_traitsIcEENS_9allocatorIcEEEES7_EEbRKNS_16reverse_iteratorIT_EERKNS8_IT0_EE, symObjAddr: 0x34C0, symBinAddr: 0x10001B204, symSize: 0x48 }
  - { offsetInCU: 0x11E3B, offset: 0x7494F, size: 0x8, addend: 0x0, symName: __ZNSt3__112__to_addressB8ue170006INS_16reverse_iteratorIPNS_12basic_stringIcNS_11char_traitsIcEENS_9allocatorIcEEEEEEvEEu7__decayIDTclsr19__to_address_helperIT_EE6__callclsr3stdE7declvalIRKSA_EEEEESC_, symObjAddr: 0x353C, symBinAddr: 0x10001B280, symSize: 0x24 }
  - { offsetInCU: 0x11E9B, offset: 0x749AF, size: 0x8, addend: 0x0, symName: __ZNSt3__119__allocator_destroyB8ue170006INS_9allocatorINS_12basic_stringIcNS_11char_traitsIcEENS1_IcEEEEEENS_16reverse_iteratorINS8_IPS6_EEEESB_EEvRT_T0_T1_, symObjAddr: 0x3898, symBinAddr: 0x10001B5DC, symSize: 0x70 }
  - { offsetInCU: 0x11F00, offset: 0x74A14, size: 0x8, addend: 0x0, symName: __ZNSt3__1neB8ue170006INS_16reverse_iteratorIPNS_12basic_stringIcNS_11char_traitsIcEENS_9allocatorIcEEEEEES9_EEbRKNS1_IT_EERKNS1_IT0_EE, symObjAddr: 0x3944, symBinAddr: 0x10001B688, symSize: 0x60 }
  - { offsetInCU: 0x11F4C, offset: 0x74A60, size: 0x8, addend: 0x0, symName: __ZNSt3__112__to_addressB8ue170006INS_16reverse_iteratorINS1_IPNS_12basic_stringIcNS_11char_traitsIcEENS_9allocatorIcEEEEEEEEvEEu7__decayIDTclsr19__to_address_helperIT_EE6__callclsr3stdE7declvalIRKSB_EEEEESD_, symObjAddr: 0x39A4, symBinAddr: 0x10001B6E8, symSize: 0x24 }
  - { offsetInCU: 0x11FAC, offset: 0x74AC0, size: 0x8, addend: 0x0, symName: __ZNSt3__112__to_addressB8ue170006INS_6vectorIiNS_9allocatorIiEEEEEEPT_S6_, symObjAddr: 0x4B78, symBinAddr: 0x10001BF5C, symSize: 0x14 }
  - { offsetInCU: 0x11FE1, offset: 0x74AF5, size: 0x8, addend: 0x0, symName: __ZNSt3__112__to_addressB8ue170006IiEEPT_S2_, symObjAddr: 0x5184, symBinAddr: 0x10001C568, symSize: 0x14 }
  - { offsetInCU: 0x12016, offset: 0x74B2A, size: 0x8, addend: 0x0, symName: __ZNSt3__119__allocate_at_leastB8ue170006INS_9allocatorIiEEEENS_19__allocation_resultINS_16allocator_traitsIT_E7pointerEEERS5_m, symObjAddr: 0x5A14, symBinAddr: 0x10001CDF8, symSize: 0x40 }
  - { offsetInCU: 0x12059, offset: 0x74B6D, size: 0x8, addend: 0x0, symName: __ZNSt3__142__uninitialized_allocator_move_if_noexceptB8ue170006INS_9allocatorIiEENS_16reverse_iteratorIPiEES5_ivEET1_RT_T0_S9_S6_, symObjAddr: 0x5BC8, symBinAddr: 0x10001CFAC, symSize: 0x78 }
  - { offsetInCU: 0x120D6, offset: 0x74BEA, size: 0x8, addend: 0x0, symName: __ZNSt3__14swapB8ue170006IPiEENS_9enable_ifIXaasr21is_move_constructibleIT_EE5valuesr18is_move_assignableIS3_EE5valueEvE4typeERS3_S6_, symObjAddr: 0x5C8C, symBinAddr: 0x10001D070, symSize: 0x3C }
  - { offsetInCU: 0x12127, offset: 0x74C3B, size: 0x8, addend: 0x0, symName: __ZNSt3__14moveB8ue170006INS_16reverse_iteratorIPiEES3_EET0_T_S5_S4_, symObjAddr: 0x5D74, symBinAddr: 0x10001D158, symSize: 0x78 }
  - { offsetInCU: 0x12181, offset: 0x74C95, size: 0x8, addend: 0x0, symName: __ZNSt3__16__moveB8ue170006INS_17_ClassicAlgPolicyENS_16reverse_iteratorIPiEES4_S4_EENS_4pairIT0_T2_EES6_T1_S7_, symObjAddr: 0x5DEC, symBinAddr: 0x10001D1D0, symSize: 0x64 }
  - { offsetInCU: 0x121ED, offset: 0x74D01, size: 0x8, addend: 0x0, symName: __ZNSt3__123__dispatch_copy_or_moveB8ue170006INS_17_ClassicAlgPolicyENS_11__move_loopIS1_EENS_14__move_trivialENS_16reverse_iteratorIPiEES7_S7_EENS_4pairIT2_T4_EES9_T3_SA_, symObjAddr: 0x5E50, symBinAddr: 0x10001D234, symSize: 0x64 }
  - { offsetInCU: 0x1226B, offset: 0x74D7F, size: 0x8, addend: 0x0, symName: __ZNSt3__121__unwrap_and_dispatchB8ue170006INS_10__overloadINS_11__move_loopINS_17_ClassicAlgPolicyEEENS_14__move_trivialEEENS_16reverse_iteratorIPiEES9_S9_Li0EEENS_4pairIT0_T2_EESB_T1_SC_, symObjAddr: 0x5EB4, symBinAddr: 0x10001D298, symSize: 0x12C }
  - { offsetInCU: 0x122FB, offset: 0x74E0F, size: 0x8, addend: 0x0, symName: __ZNSt3__114__unwrap_rangeB8ue170006INS_16reverse_iteratorIPiEES3_EENS_4pairIT0_S5_EET_S7_, symObjAddr: 0x5FE0, symBinAddr: 0x10001D3C4, symSize: 0x84 }
  - { offsetInCU: 0x1246D, offset: 0x74F81, size: 0x8, addend: 0x0, symName: __ZNSt3__113__unwrap_iterB8ue170006INS_16reverse_iteratorIPiEENS_18__unwrap_iter_implIS3_Lb0EEELi0EEEDTclsrT0_8__unwrapclsr3stdE7declvalIT_EEEES7_, symObjAddr: 0x6104, symBinAddr: 0x10001D4E8, symSize: 0x44 }
  - { offsetInCU: 0x124B1, offset: 0x74FC5, size: 0x8, addend: 0x0, symName: __ZNSt3__19make_pairB8ue170006INS_16reverse_iteratorIPiEES3_EENS_4pairINS_18__unwrap_ref_decayIT_E4typeENS5_IT0_E4typeEEEOS6_OS9_, symObjAddr: 0x6148, symBinAddr: 0x10001D52C, symSize: 0x38 }
  - { offsetInCU: 0x12500, offset: 0x75014, size: 0x8, addend: 0x0, symName: __ZNSt3__114__rewrap_rangeB8ue170006INS_16reverse_iteratorIPiEES3_EET_S4_T0_, symObjAddr: 0x6180, symBinAddr: 0x10001D564, symSize: 0x5C }
  - { offsetInCU: 0x1254C, offset: 0x75060, size: 0x8, addend: 0x0, symName: __ZNSt3__113__rewrap_iterB8ue170006INS_16reverse_iteratorIPiEES3_NS_18__unwrap_iter_implIS3_Lb0EEEEET_S6_T0_, symObjAddr: 0x61DC, symBinAddr: 0x10001D5C0, symSize: 0x74 }
  - { offsetInCU: 0x125A1, offset: 0x750B5, size: 0x8, addend: 0x0, symName: __ZNSt3__1neB8ue170006IPiS1_EEbRKNS_16reverse_iteratorIT_EERKNS2_IT0_EE, symObjAddr: 0x6250, symBinAddr: 0x10001D634, symSize: 0x48 }
  - { offsetInCU: 0x1269F, offset: 0x751B3, size: 0x8, addend: 0x0, symName: __ZNSt3__122__make_exception_guardB8ue170006INS_6vectorIiNS_9allocatorIiEEE16__destroy_vectorEEENS_28__exception_guard_exceptionsIT_EES7_, symObjAddr: 0x6AE8, symBinAddr: 0x10001DECC, symSize: 0x40 }
  - { offsetInCU: 0x126D4, offset: 0x751E8, size: 0x8, addend: 0x0, symName: __ZNSt3__130__uninitialized_allocator_copyB8ue170006INS_9allocatorIiEEPiS3_S3_EET2_RT_T0_T1_S4_, symObjAddr: 0x6D00, symBinAddr: 0x10001E0E4, symSize: 0x80 }
  - { offsetInCU: 0x12771, offset: 0x75285, size: 0x8, addend: 0x0, symName: __ZNSt3__114__unwrap_rangeB8ue170006IPiS1_EENS_4pairIT0_S3_EET_S5_, symObjAddr: 0x6D80, symBinAddr: 0x10001E164, symSize: 0x60 }
  - { offsetInCU: 0x127BD, offset: 0x752D1, size: 0x8, addend: 0x0, symName: __ZNSt3__135__uninitialized_allocator_copy_implB8ue170006INS_9allocatorIiEEiiiLPv0EEEPT2_RT_PT0_S9_S5_, symObjAddr: 0x6DE0, symBinAddr: 0x10001E1C4, symSize: 0x38 }
  - { offsetInCU: 0x1283E, offset: 0x75352, size: 0x8, addend: 0x0, symName: __ZNSt3__113__unwrap_iterB8ue170006IPiNS_18__unwrap_iter_implIS1_Lb1EEELi0EEEDTclsrT0_8__unwrapclsr3stdE7declvalIT_EEEES5_, symObjAddr: 0x6E18, symBinAddr: 0x10001E1FC, symSize: 0x24 }
  - { offsetInCU: 0x12882, offset: 0x75396, size: 0x8, addend: 0x0, symName: __ZNSt3__113__rewrap_iterB8ue170006IPiS1_NS_18__unwrap_iter_implIS1_Lb1EEEEET_S4_T0_, symObjAddr: 0x6E3C, symBinAddr: 0x10001E220, symSize: 0x3C }
  - { offsetInCU: 0x128D7, offset: 0x753EB, size: 0x8, addend: 0x0, symName: __ZNSt3__19make_pairB8ue170006IPiS1_EENS_4pairINS_18__unwrap_ref_decayIT_E4typeENS3_IT0_E4typeEEEOS4_OS7_, symObjAddr: 0x6E78, symBinAddr: 0x10001E25C, symSize: 0x38 }
  - { offsetInCU: 0x12A29, offset: 0x7553D, size: 0x8, addend: 0x0, symName: __ZNSt3__14copyB8ue170006IPiS1_EET0_T_S3_S2_, symObjAddr: 0x6F20, symBinAddr: 0x10001E304, symSize: 0x40 }
  - { offsetInCU: 0x12A83, offset: 0x75597, size: 0x8, addend: 0x0, symName: __ZNSt3__16__copyB8ue170006INS_17_ClassicAlgPolicyEPiS2_S2_EENS_4pairIT0_T2_EES4_T1_S5_, symObjAddr: 0x6F60, symBinAddr: 0x10001E344, symSize: 0x44 }
  - { offsetInCU: 0x12AEF, offset: 0x75603, size: 0x8, addend: 0x0, symName: __ZNSt3__123__dispatch_copy_or_moveB8ue170006INS_17_ClassicAlgPolicyENS_11__copy_loopIS1_EENS_14__copy_trivialEPiS5_S5_EENS_4pairIT2_T4_EES7_T3_S8_, symObjAddr: 0x6FA4, symBinAddr: 0x10001E388, symSize: 0x44 }
  - { offsetInCU: 0x12B6D, offset: 0x75681, size: 0x8, addend: 0x0, symName: __ZNSt3__121__unwrap_and_dispatchB8ue170006INS_10__overloadINS_11__copy_loopINS_17_ClassicAlgPolicyEEENS_14__copy_trivialEEEPiS7_S7_Li0EEENS_4pairIT0_T2_EES9_T1_SA_, symObjAddr: 0x6FE8, symBinAddr: 0x10001E3CC, symSize: 0xB4 }
  - { offsetInCU: 0x12C41, offset: 0x75755, size: 0x8, addend: 0x0, symName: __ZNSt3__114__rewrap_rangeB8ue170006IPiS1_EET_S2_T0_, symObjAddr: 0x70E4, symBinAddr: 0x10001E4C8, symSize: 0x2C }
  - { offsetInCU: 0x12C8D, offset: 0x757A1, size: 0x8, addend: 0x0, symName: __ZNSt3__119__copy_trivial_implB8ue170006IiiEENS_4pairIPT_PT0_EES3_S3_S5_, symObjAddr: 0x7110, symBinAddr: 0x10001E4F4, symSize: 0x80 }
  - { offsetInCU: 0x12CF5, offset: 0x75809, size: 0x8, addend: 0x0, symName: __ZNSt3__119__constexpr_memmoveB8ue170006IiiLi0EEEPT_S2_PT0_NS_15__element_countE, symObjAddr: 0x7190, symBinAddr: 0x10001E574, symSize: 0x64 }
  - { offsetInCU: 0x12D63, offset: 0x75877, size: 0x8, addend: 0x0, symName: __ZNSt3__19make_pairB8ue170006IRPiS1_EENS_4pairINS_18__unwrap_ref_decayIT_E4typeENS4_IT0_E4typeEEEOS5_OS8_, symObjAddr: 0x71F4, symBinAddr: 0x10001E5D8, symSize: 0x38 }
  - { offsetInCU: 0x12E05, offset: 0x75919, size: 0x8, addend: 0x0, symName: __ZNSt3__119__allocate_at_leastB8ue170006INS_9allocatorINS_6vectorIiNS1_IiEEEEEEEENS_19__allocation_resultINS_16allocator_traitsIT_E7pointerEEERS8_m, symObjAddr: 0x77E0, symBinAddr: 0x10001EBC4, symSize: 0x40 }
  - { offsetInCU: 0x12E48, offset: 0x7595C, size: 0x8, addend: 0x0, symName: __ZNSt3__142__uninitialized_allocator_move_if_noexceptB8ue170006INS_9allocatorINS_6vectorIiNS1_IiEEEEEENS_16reverse_iteratorIPS4_EES8_S8_EET2_RT_T0_T1_S9_, symObjAddr: 0x7998, symBinAddr: 0x10001ED7C, symSize: 0x12C }
  - { offsetInCU: 0x12EE8, offset: 0x759FC, size: 0x8, addend: 0x0, symName: __ZNSt3__14swapB8ue170006IPNS_6vectorIiNS_9allocatorIiEEEEEENS_9enable_ifIXaasr21is_move_constructibleIT_EE5valuesr18is_move_assignableIS7_EE5valueEvE4typeERS7_SA_, symObjAddr: 0x7B10, symBinAddr: 0x10001EEF4, symSize: 0x3C }
  - { offsetInCU: 0x12F39, offset: 0x75A4D, size: 0x8, addend: 0x0, symName: __ZNSt3__122__make_exception_guardB8ue170006INS_29_AllocatorDestroyRangeReverseINS_9allocatorINS_6vectorIiNS2_IiEEEEEENS_16reverse_iteratorIPS5_EEEEEENS_28__exception_guard_exceptionsIT_EESC_, symObjAddr: 0x7C14, symBinAddr: 0x10001EFF8, symSize: 0x4C }
  - { offsetInCU: 0x12F6F, offset: 0x75A83, size: 0x8, addend: 0x0, symName: __ZNSt3__1neB8ue170006IPNS_6vectorIiNS_9allocatorIiEEEES5_EEbRKNS_16reverse_iteratorIT_EERKNS6_IT0_EE, symObjAddr: 0x7CA4, symBinAddr: 0x10001F088, symSize: 0x48 }
  - { offsetInCU: 0x12FBB, offset: 0x75ACF, size: 0x8, addend: 0x0, symName: __ZNSt3__112__to_addressB8ue170006INS_16reverse_iteratorIPNS_6vectorIiNS_9allocatorIiEEEEEEvEEu7__decayIDTclsr19__to_address_helperIT_EE6__callclsr3stdE7declvalIRKS8_EEEEESA_, symObjAddr: 0x7D20, symBinAddr: 0x10001F104, symSize: 0x24 }
  - { offsetInCU: 0x1301B, offset: 0x75B2F, size: 0x8, addend: 0x0, symName: __ZNSt3__119__allocator_destroyB8ue170006INS_9allocatorINS_6vectorIiNS1_IiEEEEEENS_16reverse_iteratorINS6_IPS4_EEEES9_EEvRT_T0_T1_, symObjAddr: 0x80F8, symBinAddr: 0x10001F4DC, symSize: 0x70 }
  - { offsetInCU: 0x13080, offset: 0x75B94, size: 0x8, addend: 0x0, symName: __ZNSt3__1neB8ue170006INS_16reverse_iteratorIPNS_6vectorIiNS_9allocatorIiEEEEEES7_EEbRKNS1_IT_EERKNS1_IT0_EE, symObjAddr: 0x81A4, symBinAddr: 0x10001F588, symSize: 0x60 }
  - { offsetInCU: 0x130CC, offset: 0x75BE0, size: 0x8, addend: 0x0, symName: __ZNSt3__112__to_addressB8ue170006INS_16reverse_iteratorINS1_IPNS_6vectorIiNS_9allocatorIiEEEEEEEEvEEu7__decayIDTclsr19__to_address_helperIT_EE6__callclsr3stdE7declvalIRKS9_EEEEESB_, symObjAddr: 0x8204, symBinAddr: 0x10001F5E8, symSize: 0x24 }
  - { offsetInCU: 0x13CD5, offset: 0x767E9, size: 0x8, addend: 0x0, symName: __ZNSt3__16vectorINS_12basic_stringIcNS_11char_traitsIcEENS_9allocatorIcEEEENS4_IS6_EEE26__swap_out_circular_bufferERNS_14__split_bufferIS6_RS7_EE, symObjAddr: 0x2974, symBinAddr: 0x10001A9D0, symSize: 0x110 }
  - { offsetInCU: 0x140CF, offset: 0x76BE3, size: 0x8, addend: 0x0, symName: __ZNSt3__16vectorIiNS_9allocatorIiEEE26__swap_out_circular_bufferERNS_14__split_bufferIiRS2_EE, symObjAddr: 0x56B4, symBinAddr: 0x10001CA98, symSize: 0x110 }
  - { offsetInCU: 0x1413D, offset: 0x76C51, size: 0x8, addend: 0x0, symName: __ZNSt3__16vectorINS0_IiNS_9allocatorIiEEEENS1_IS3_EEE26__swap_out_circular_bufferERNS_14__split_bufferIS3_RS4_EE, symObjAddr: 0x7470, symBinAddr: 0x10001E854, symSize: 0x110 }
  - { offsetInCU: 0x15FC0, offset: 0x78AD4, size: 0x8, addend: 0x0, symName: __ZN3MapC2Ev, symObjAddr: 0x0, symBinAddr: 0x1000185DC, symSize: 0x14 }
  - { offsetInCU: 0x15FEB, offset: 0x78AFF, size: 0x8, addend: 0x0, symName: __ZN3MapC1Ev, symObjAddr: 0x14, symBinAddr: 0x1000185F0, symSize: 0x2C }
  - { offsetInCU: 0x16016, offset: 0x78B2A, size: 0x8, addend: 0x0, symName: __ZN3MapD2Ev, symObjAddr: 0x40, symBinAddr: 0x10001861C, symSize: 0x14 }
  - { offsetInCU: 0x16041, offset: 0x78B55, size: 0x8, addend: 0x0, symName: __ZN3MapD1Ev, symObjAddr: 0x54, symBinAddr: 0x100018630, symSize: 0x2C }
  - { offsetInCU: 0x1606C, offset: 0x78B80, size: 0x8, addend: 0x0, symName: __ZN3Map11splitStringERKNSt3__112basic_stringIcNS0_11char_traitsIcEENS0_9allocatorIcEEEEc, symObjAddr: 0x80, symBinAddr: 0x10001865C, symSize: 0x140 }
  - { offsetInCU: 0x160CB, offset: 0x78BDF, size: 0x8, addend: 0x0, symName: __ZNSt3__16vectorINS_12basic_stringIcNS_11char_traitsIcEENS_9allocatorIcEEEENS4_IS6_EEEC1B8ue170006Ev, symObjAddr: 0x1C0, symBinAddr: 0x10001879C, symSize: 0x2C }
  - { offsetInCU: 0x161D7, offset: 0x78CEB, size: 0x8, addend: 0x0, symName: __ZNSt3__118basic_stringstreamIcNS_11char_traitsIcEENS_9allocatorIcEEEC1B8ue170006ERKNS_12basic_stringIcS2_S4_EEj, symObjAddr: 0x1EC, symBinAddr: 0x1000187C8, symSize: 0x110 }
  - { offsetInCU: 0x1621E, offset: 0x78D32, size: 0x8, addend: 0x0, symName: __ZNSt3__112basic_stringIcNS_11char_traitsIcEENS_9allocatorIcEEEC1B8ue170006Ev, symObjAddr: 0x2FC, symBinAddr: 0x1000188D8, symSize: 0x2C }
  - { offsetInCU: 0x16247, offset: 0x78D5B, size: 0x8, addend: 0x0, symName: __ZNKSt3__19basic_iosIcNS_11char_traitsIcEEEcvbB8ue170006Ev, symObjAddr: 0x560, symBinAddr: 0x100018B3C, symSize: 0x2C }
  - { offsetInCU: 0x1626C, offset: 0x78D80, size: 0x8, addend: 0x0, symName: __ZNSt3__16vectorINS_12basic_stringIcNS_11char_traitsIcEENS_9allocatorIcEEEENS4_IS6_EEE9push_backB8ue170006ERKS6_, symObjAddr: 0x58C, symBinAddr: 0x100018B68, symSize: 0x6C }
  - { offsetInCU: 0x162A6, offset: 0x78DBA, size: 0x8, addend: 0x0, symName: __ZNSt3__118basic_stringstreamIcNS_11char_traitsIcEENS_9allocatorIcEEED1Ev, symObjAddr: 0x5F8, symBinAddr: 0x100018BD4, symSize: 0x40 }
  - { offsetInCU: 0x162D2, offset: 0x78DE6, size: 0x8, addend: 0x0, symName: __ZNSt3__16vectorINS_12basic_stringIcNS_11char_traitsIcEENS_9allocatorIcEEEENS4_IS6_EEED1B8ue170006Ev, symObjAddr: 0x638, symBinAddr: 0x100018C14, symSize: 0x2C }
  - { offsetInCU: 0x162FB, offset: 0x78E0F, size: 0x8, addend: 0x0, symName: __ZN3Map7LoadMapENSt3__112basic_stringIcNS0_11char_traitsIcEENS0_9allocatorIcEEEEii, symObjAddr: 0x664, symBinAddr: 0x100018C40, symSize: 0x3CC }
  - { offsetInCU: 0x164CC, offset: 0x78FE0, size: 0x8, addend: 0x0, symName: __ZNSt3__114basic_ifstreamIcNS_11char_traitsIcEEEC1ERKNS_12basic_stringIcS2_NS_9allocatorIcEEEEj, symObjAddr: 0xA30, symBinAddr: 0x10001900C, symSize: 0x16C }
  - { offsetInCU: 0x16515, offset: 0x79029, size: 0x8, addend: 0x0, symName: __ZNKSt3__19basic_iosIcNS_11char_traitsIcEEEntB8ue170006Ev, symObjAddr: 0xB9C, symBinAddr: 0x100019178, symSize: 0x28 }
  - { offsetInCU: 0x1653A, offset: 0x7904E, size: 0x8, addend: 0x0, symName: __ZNSt3__16vectorINS0_IiNS_9allocatorIiEEEENS1_IS3_EEEC1B8ue170006Ev, symObjAddr: 0xC90, symBinAddr: 0x1000191A0, symSize: 0x2C }
  - { offsetInCU: 0x16563, offset: 0x79077, size: 0x8, addend: 0x0, symName: __ZNSt3__16vectorIiNS_9allocatorIiEEEC1B8ue170006Ev, symObjAddr: 0xD18, symBinAddr: 0x100019228, symSize: 0x2C }
  - { offsetInCU: 0x1658C, offset: 0x790A0, size: 0x8, addend: 0x0, symName: __ZNSt3__16vectorIiNS_9allocatorIiEEE9push_backB8ue170006EOi, symObjAddr: 0xD44, symBinAddr: 0x100019254, symSize: 0x6C }
  - { offsetInCU: 0x165C1, offset: 0x790D5, size: 0x8, addend: 0x0, symName: __ZNSt3__16vectorINS0_IiNS_9allocatorIiEEEENS1_IS3_EEE9push_backB8ue170006ERKS3_, symObjAddr: 0xDB0, symBinAddr: 0x1000192C0, symSize: 0x6C }
  - { offsetInCU: 0x165F6, offset: 0x7910A, size: 0x8, addend: 0x0, symName: __ZNSt3__16vectorIiNS_9allocatorIiEEED1B8ue170006Ev, symObjAddr: 0xE1C, symBinAddr: 0x10001932C, symSize: 0x2C }
  - { offsetInCU: 0x1661F, offset: 0x79133, size: 0x8, addend: 0x0, symName: __ZNSt3__114basic_ifstreamIcNS_11char_traitsIcEEE5closeEv, symObjAddr: 0xE48, symBinAddr: 0x100019358, symSize: 0x58 }
  - { offsetInCU: 0x16645, offset: 0x79159, size: 0x8, addend: 0x0, symName: __ZNKSt3__16vectorINS0_IiNS_9allocatorIiEEEENS1_IS3_EEE4sizeB8ue170006Ev, symObjAddr: 0xEA0, symBinAddr: 0x1000193B0, symSize: 0x28 }
  - { offsetInCU: 0x1666A, offset: 0x7917E, size: 0x8, addend: 0x0, symName: __ZNSt3__16vectorINS0_IiNS_9allocatorIiEEEENS1_IS3_EEEixB8ue170006Em, symObjAddr: 0xEC8, symBinAddr: 0x1000193D8, symSize: 0x2C }
  - { offsetInCU: 0x166A0, offset: 0x791B4, size: 0x8, addend: 0x0, symName: __ZNKSt3__16vectorIiNS_9allocatorIiEEE4sizeB8ue170006Ev, symObjAddr: 0xEF4, symBinAddr: 0x100019404, symSize: 0x28 }
  - { offsetInCU: 0x166C5, offset: 0x791D9, size: 0x8, addend: 0x0, symName: __ZNSt3__16vectorIiNS_9allocatorIiEEEixB8ue170006Em, symObjAddr: 0xF1C, symBinAddr: 0x10001942C, symSize: 0x24 }
  - { offsetInCU: 0x166FB, offset: 0x7920F, size: 0x8, addend: 0x0, symName: __ZNSt3__16vectorINS0_IiNS_9allocatorIiEEEENS1_IS3_EEED1B8ue170006Ev, symObjAddr: 0xF40, symBinAddr: 0x100019450, symSize: 0x2C }
  - { offsetInCU: 0x16729, offset: 0x7923D, size: 0x8, addend: 0x0, symName: __ZNSt3__114basic_ifstreamIcNS_11char_traitsIcEEED1Ev, symObjAddr: 0xF6C, symBinAddr: 0x10001947C, symSize: 0x40 }
  - { offsetInCU: 0x16755, offset: 0x79269, size: 0x8, addend: 0x0, symName: __ZNSt3__118basic_stringstreamIcNS_11char_traitsIcEENS_9allocatorIcEEED2Ev, symObjAddr: 0xFAC, symBinAddr: 0x1000194BC, symSize: 0x6C }
  - { offsetInCU: 0x1678D, offset: 0x792A1, size: 0x8, addend: 0x0, symName: __ZThn16_NSt3__118basic_stringstreamIcNS_11char_traitsIcEENS_9allocatorIcEEED1Ev, symObjAddr: 0x1018, symBinAddr: 0x100019528, symSize: 0x1C }
  - { offsetInCU: 0x167A4, offset: 0x792B8, size: 0x8, addend: 0x0, symName: __ZTv0_n24_NSt3__118basic_stringstreamIcNS_11char_traitsIcEENS_9allocatorIcEEED1Ev, symObjAddr: 0x1034, symBinAddr: 0x100019544, symSize: 0x28 }
  - { offsetInCU: 0x167C0, offset: 0x792D4, size: 0x8, addend: 0x0, symName: __ZNSt3__115basic_stringbufIcNS_11char_traitsIcEENS_9allocatorIcEEED1Ev, symObjAddr: 0x105C, symBinAddr: 0x10001956C, symSize: 0x2C }
  - { offsetInCU: 0x167EC, offset: 0x79300, size: 0x8, addend: 0x0, symName: __ZNSt3__115basic_stringbufIcNS_11char_traitsIcEENS_9allocatorIcEEED2Ev, symObjAddr: 0x1088, symBinAddr: 0x100019598, symSize: 0x48 }
  - { offsetInCU: 0x16818, offset: 0x7932C, size: 0x8, addend: 0x0, symName: __ZNSt3__114basic_ifstreamIcNS_11char_traitsIcEEED2Ev, symObjAddr: 0x10D0, symBinAddr: 0x1000195E0, symSize: 0x64 }
  - { offsetInCU: 0x16850, offset: 0x79364, size: 0x8, addend: 0x0, symName: __ZTv0_n24_NSt3__114basic_ifstreamIcNS_11char_traitsIcEEED1Ev, symObjAddr: 0x1134, symBinAddr: 0x100019644, symSize: 0x28 }
  - { offsetInCU: 0x16867, offset: 0x7937B, size: 0x8, addend: 0x0, symName: __ZNSt3__112basic_stringIcNS_11char_traitsIcEENS_9allocatorIcEEEC2B8ue170006Ev, symObjAddr: 0x115C, symBinAddr: 0x10001966C, symSize: 0x48 }
  - { offsetInCU: 0x16895, offset: 0x793A9, size: 0x8, addend: 0x0, symName: __ZNSt3__112basic_stringIcNS_11char_traitsIcEENS_9allocatorIcEEE14__default_initB8ue170006Ev, symObjAddr: 0x11EC, symBinAddr: 0x1000196B4, symSize: 0x40 }
  - { offsetInCU: 0x168BA, offset: 0x793CE, size: 0x8, addend: 0x0, symName: __ZNSt3__16vectorINS_12basic_stringIcNS_11char_traitsIcEENS_9allocatorIcEEEENS4_IS6_EEEC2B8ue170006Ev, symObjAddr: 0x1320, symBinAddr: 0x1000196F4, symSize: 0x4C }
  - { offsetInCU: 0x168E8, offset: 0x793FC, size: 0x8, addend: 0x0, symName: __ZNSt3__117__compressed_pairIPNS_12basic_stringIcNS_11char_traitsIcEENS_9allocatorIcEEEENS4_IS6_EEEC1B8ue170006IDnNS_18__default_init_tagEEEOT_OT0_, symObjAddr: 0x136C, symBinAddr: 0x100019740, symSize: 0x3C }
  - { offsetInCU: 0x1693F, offset: 0x79453, size: 0x8, addend: 0x0, symName: __ZNSt3__117__compressed_pairIPNS_12basic_stringIcNS_11char_traitsIcEENS_9allocatorIcEEEENS4_IS6_EEEC2B8ue170006IDnNS_18__default_init_tagEEEOT_OT0_, symObjAddr: 0x13A8, symBinAddr: 0x10001977C, symSize: 0x40 }
  - { offsetInCU: 0x16996, offset: 0x794AA, size: 0x8, addend: 0x0, symName: __ZNSt3__122__compressed_pair_elemIPNS_12basic_stringIcNS_11char_traitsIcEENS_9allocatorIcEEEELi0ELb0EEC2B8ue170006IDnvEEOT_, symObjAddr: 0x13E8, symBinAddr: 0x1000197BC, symSize: 0x1C }
  - { offsetInCU: 0x169D7, offset: 0x794EB, size: 0x8, addend: 0x0, symName: __ZNSt3__122__compressed_pair_elemINS_9allocatorINS_12basic_stringIcNS_11char_traitsIcEENS1_IcEEEEEELi1ELb1EEC2B8ue170006ENS_18__default_init_tagE, symObjAddr: 0x1404, symBinAddr: 0x1000197D8, symSize: 0x2C }
  - { offsetInCU: 0x16A0B, offset: 0x7951F, size: 0x8, addend: 0x0, symName: __ZNSt3__19allocatorINS_12basic_stringIcNS_11char_traitsIcEENS0_IcEEEEEC2B8ue170006Ev, symObjAddr: 0x1430, symBinAddr: 0x100019804, symSize: 0x2C }
  - { offsetInCU: 0x16A34, offset: 0x79548, size: 0x8, addend: 0x0, symName: __ZNSt3__116__non_trivial_ifILb1ENS_9allocatorINS_12basic_stringIcNS_11char_traitsIcEENS1_IcEEEEEEEC2B8ue170006Ev, symObjAddr: 0x145C, symBinAddr: 0x100019830, symSize: 0x14 }
  - { offsetInCU: 0x16A5D, offset: 0x79571, size: 0x8, addend: 0x0, symName: __ZNSt3__16vectorINS_12basic_stringIcNS_11char_traitsIcEENS_9allocatorIcEEEENS4_IS6_EEED2B8ue170006Ev, symObjAddr: 0x1470, symBinAddr: 0x100019844, symSize: 0x44 }
  - { offsetInCU: 0x16A86, offset: 0x7959A, size: 0x8, addend: 0x0, symName: __ZNSt3__16vectorINS_12basic_stringIcNS_11char_traitsIcEENS_9allocatorIcEEEENS4_IS6_EEE16__destroy_vectorC1B8ue170006ERS8_, symObjAddr: 0x14B4, symBinAddr: 0x100019888, symSize: 0x34 }
  - { offsetInCU: 0x16ABE, offset: 0x795D2, size: 0x8, addend: 0x0, symName: __ZNSt3__16vectorINS_12basic_stringIcNS_11char_traitsIcEENS_9allocatorIcEEEENS4_IS6_EEE16__destroy_vectorclB8ue170006Ev, symObjAddr: 0x14E8, symBinAddr: 0x1000198BC, symSize: 0x90 }
  - { offsetInCU: 0x16AE3, offset: 0x795F7, size: 0x8, addend: 0x0, symName: __ZNSt3__16vectorINS_12basic_stringIcNS_11char_traitsIcEENS_9allocatorIcEEEENS4_IS6_EEE16__destroy_vectorC2B8ue170006ERS8_, symObjAddr: 0x1578, symBinAddr: 0x10001994C, symSize: 0x20 }
  - { offsetInCU: 0x16B1B, offset: 0x7962F, size: 0x8, addend: 0x0, symName: __ZNSt3__16vectorINS_12basic_stringIcNS_11char_traitsIcEENS_9allocatorIcEEEENS4_IS6_EEE7__clearB8ue170006Ev, symObjAddr: 0x1598, symBinAddr: 0x10001996C, symSize: 0x28 }
  - { offsetInCU: 0x16B40, offset: 0x79654, size: 0x8, addend: 0x0, symName: __ZNKSt3__16vectorINS_12basic_stringIcNS_11char_traitsIcEENS_9allocatorIcEEEENS4_IS6_EEE17__annotate_deleteB8ue170006Ev, symObjAddr: 0x15C0, symBinAddr: 0x100019994, symSize: 0xD4 }
  - { offsetInCU: 0x16B65, offset: 0x79679, size: 0x8, addend: 0x0, symName: __ZNSt3__116allocator_traitsINS_9allocatorINS_12basic_stringIcNS_11char_traitsIcEENS1_IcEEEEEEE10deallocateB8ue170006ERS7_PS6_m, symObjAddr: 0x1694, symBinAddr: 0x100019A68, symSize: 0x34 }
  - { offsetInCU: 0x16BA7, offset: 0x796BB, size: 0x8, addend: 0x0, symName: __ZNSt3__16vectorINS_12basic_stringIcNS_11char_traitsIcEENS_9allocatorIcEEEENS4_IS6_EEE7__allocB8ue170006Ev, symObjAddr: 0x16C8, symBinAddr: 0x100019A9C, symSize: 0x28 }
  - { offsetInCU: 0x16BCC, offset: 0x796E0, size: 0x8, addend: 0x0, symName: __ZNKSt3__16vectorINS_12basic_stringIcNS_11char_traitsIcEENS_9allocatorIcEEEENS4_IS6_EEE8capacityB8ue170006Ev, symObjAddr: 0x16F0, symBinAddr: 0x100019AC4, symSize: 0x40 }
  - { offsetInCU: 0x16BF1, offset: 0x79705, size: 0x8, addend: 0x0, symName: __ZNSt3__16vectorINS_12basic_stringIcNS_11char_traitsIcEENS_9allocatorIcEEEENS4_IS6_EEE22__base_destruct_at_endB8ue170006EPS6_, symObjAddr: 0x1730, symBinAddr: 0x100019B04, symSize: 0x8C }
  - { offsetInCU: 0x16C34, offset: 0x79748, size: 0x8, addend: 0x0, symName: __ZNSt3__116allocator_traitsINS_9allocatorINS_12basic_stringIcNS_11char_traitsIcEENS1_IcEEEEEEE7destroyB8ue170006IS6_vEEvRS7_PT_, symObjAddr: 0x17BC, symBinAddr: 0x100019B90, symSize: 0x2C }
  - { offsetInCU: 0x16C71, offset: 0x79785, size: 0x8, addend: 0x0, symName: __ZNSt3__19allocatorINS_12basic_stringIcNS_11char_traitsIcEENS0_IcEEEEE7destroyB8ue170006EPS5_, symObjAddr: 0x17FC, symBinAddr: 0x100019BD0, symSize: 0x28 }
  - { offsetInCU: 0x16CA4, offset: 0x797B8, size: 0x8, addend: 0x0, symName: __ZNKSt3__16vectorINS_12basic_stringIcNS_11char_traitsIcEENS_9allocatorIcEEEENS4_IS6_EEE31__annotate_contiguous_containerB8ue170006EPKvSA_SA_SA_, symObjAddr: 0x1824, symBinAddr: 0x100019BF8, symSize: 0x20 }
  - { offsetInCU: 0x16CF5, offset: 0x79809, size: 0x8, addend: 0x0, symName: __ZNKSt3__16vectorINS_12basic_stringIcNS_11char_traitsIcEENS_9allocatorIcEEEENS4_IS6_EEE4dataB8ue170006Ev, symObjAddr: 0x1844, symBinAddr: 0x100019C18, symSize: 0x28 }
  - { offsetInCU: 0x16D1A, offset: 0x7982E, size: 0x8, addend: 0x0, symName: __ZNKSt3__16vectorINS_12basic_stringIcNS_11char_traitsIcEENS_9allocatorIcEEEENS4_IS6_EEE4sizeB8ue170006Ev, symObjAddr: 0x186C, symBinAddr: 0x100019C40, symSize: 0x28 }
  - { offsetInCU: 0x16D3F, offset: 0x79853, size: 0x8, addend: 0x0, symName: __ZNSt3__19allocatorINS_12basic_stringIcNS_11char_traitsIcEENS0_IcEEEEE10deallocateB8ue170006EPS5_m, symObjAddr: 0x1894, symBinAddr: 0x100019C68, symSize: 0x44 }
  - { offsetInCU: 0x16D80, offset: 0x79894, size: 0x8, addend: 0x0, symName: __ZNSt3__117__compressed_pairIPNS_12basic_stringIcNS_11char_traitsIcEENS_9allocatorIcEEEENS4_IS6_EEE6secondB8ue170006Ev, symObjAddr: 0x1A00, symBinAddr: 0x100019CAC, symSize: 0x24 }
  - { offsetInCU: 0x16DA5, offset: 0x798B9, size: 0x8, addend: 0x0, symName: __ZNSt3__122__compressed_pair_elemINS_9allocatorINS_12basic_stringIcNS_11char_traitsIcEENS1_IcEEEEEELi1ELb1EE5__getB8ue170006Ev, symObjAddr: 0x1A24, symBinAddr: 0x100019CD0, symSize: 0x14 }
  - { offsetInCU: 0x16DCA, offset: 0x798DE, size: 0x8, addend: 0x0, symName: __ZNKSt3__16vectorINS_12basic_stringIcNS_11char_traitsIcEENS_9allocatorIcEEEENS4_IS6_EEE9__end_capB8ue170006Ev, symObjAddr: 0x1A38, symBinAddr: 0x100019CE4, symSize: 0x28 }
  - { offsetInCU: 0x16DEF, offset: 0x79903, size: 0x8, addend: 0x0, symName: __ZNKSt3__117__compressed_pairIPNS_12basic_stringIcNS_11char_traitsIcEENS_9allocatorIcEEEENS4_IS6_EEE5firstB8ue170006Ev, symObjAddr: 0x1A60, symBinAddr: 0x100019D0C, symSize: 0x24 }
  - { offsetInCU: 0x16E14, offset: 0x79928, size: 0x8, addend: 0x0, symName: __ZNKSt3__122__compressed_pair_elemIPNS_12basic_stringIcNS_11char_traitsIcEENS_9allocatorIcEEEELi0ELb0EE5__getB8ue170006Ev, symObjAddr: 0x1A84, symBinAddr: 0x100019D30, symSize: 0x14 }
  - { offsetInCU: 0x16E39, offset: 0x7994D, size: 0x8, addend: 0x0, symName: __ZNSt3__19basic_iosIcNS_11char_traitsIcEEEC2B8ue170006Ev, symObjAddr: 0x1A98, symBinAddr: 0x100019D44, symSize: 0x44 }
  - { offsetInCU: 0x16E62, offset: 0x79976, size: 0x8, addend: 0x0, symName: __ZNSt3__114basic_iostreamIcNS_11char_traitsIcEEEC2B8ue170006EPNS_15basic_streambufIcS2_EE, symObjAddr: 0x1ADC, symBinAddr: 0x100019D88, symSize: 0xAC }
  - { offsetInCU: 0x16EA6, offset: 0x799BA, size: 0x8, addend: 0x0, symName: __ZNSt3__115basic_stringbufIcNS_11char_traitsIcEENS_9allocatorIcEEEC1B8ue170006ERKNS_12basic_stringIcS2_S4_EEj, symObjAddr: 0x1B88, symBinAddr: 0x100019E34, symSize: 0x3C }
  - { offsetInCU: 0x16EED, offset: 0x79A01, size: 0x8, addend: 0x0, symName: __ZNSt3__18ios_baseC2B8ue170006Ev, symObjAddr: 0x1BC4, symBinAddr: 0x100019E70, symSize: 0x24 }
  - { offsetInCU: 0x16F16, offset: 0x79A2A, size: 0x8, addend: 0x0, symName: __ZNSt3__113basic_istreamIcNS_11char_traitsIcEEEC2B8ue170006EPNS_15basic_streambufIcS2_EE, symObjAddr: 0x1BE8, symBinAddr: 0x100019E94, symSize: 0x64 }
  - { offsetInCU: 0x16F59, offset: 0x79A6D, size: 0x8, addend: 0x0, symName: __ZNSt3__113basic_ostreamIcNS_11char_traitsIcEEEC2B8ue170006Ev, symObjAddr: 0x1C4C, symBinAddr: 0x100019EF8, symSize: 0x34 }
  - { offsetInCU: 0x16F8E, offset: 0x79AA2, size: 0x8, addend: 0x0, symName: __ZNSt3__19basic_iosIcNS_11char_traitsIcEEE4initB8ue170006EPNS_15basic_streambufIcS2_EE, symObjAddr: 0x1C80, symBinAddr: 0x100019F2C, symSize: 0x44 }
  - { offsetInCU: 0x16FC3, offset: 0x79AD7, size: 0x8, addend: 0x0, symName: __ZNSt3__115basic_stringbufIcNS_11char_traitsIcEENS_9allocatorIcEEEC2B8ue170006ERKNS_12basic_stringIcS2_S4_EEj, symObjAddr: 0x1CCC, symBinAddr: 0x100019F70, symSize: 0xB4 }
  - { offsetInCU: 0x1700A, offset: 0x79B1E, size: 0x8, addend: 0x0, symName: __ZNKSt3__112basic_stringIcNS_11char_traitsIcEENS_9allocatorIcEEE13get_allocatorB8ue170006Ev, symObjAddr: 0x1D80, symBinAddr: 0x10001A024, symSize: 0x24 }
  - { offsetInCU: 0x1702F, offset: 0x79B43, size: 0x8, addend: 0x0, symName: __ZNSt3__112basic_stringIcNS_11char_traitsIcEENS_9allocatorIcEEEC1B8ue170006ERKS4_, symObjAddr: 0x1DA4, symBinAddr: 0x10001A048, symSize: 0x34 }
  - { offsetInCU: 0x17067, offset: 0x79B7B, size: 0x8, addend: 0x0, symName: __ZNKSt3__112basic_stringIcNS_11char_traitsIcEENS_9allocatorIcEEE7__allocB8ue170006Ev, symObjAddr: 0x1DD8, symBinAddr: 0x10001A07C, symSize: 0x24 }
  - { offsetInCU: 0x1708C, offset: 0x79BA0, size: 0x8, addend: 0x0, symName: __ZNKSt3__117__compressed_pairINS_12basic_stringIcNS_11char_traitsIcEENS_9allocatorIcEEE5__repES5_E6secondB8ue170006Ev, symObjAddr: 0x1DFC, symBinAddr: 0x10001A0A0, symSize: 0x24 }
  - { offsetInCU: 0x170B1, offset: 0x79BC5, size: 0x8, addend: 0x0, symName: __ZNKSt3__122__compressed_pair_elemINS_9allocatorIcEELi1ELb1EE5__getB8ue170006Ev, symObjAddr: 0x1E20, symBinAddr: 0x10001A0C4, symSize: 0x14 }
  - { offsetInCU: 0x170D6, offset: 0x79BEA, size: 0x8, addend: 0x0, symName: __ZNSt3__112basic_stringIcNS_11char_traitsIcEENS_9allocatorIcEEEC2B8ue170006ERKS4_, symObjAddr: 0x1E34, symBinAddr: 0x10001A0D8, symSize: 0x48 }
  - { offsetInCU: 0x1710E, offset: 0x79C22, size: 0x8, addend: 0x0, symName: __ZNSt3__117__compressed_pairINS_12basic_stringIcNS_11char_traitsIcEENS_9allocatorIcEEE5__repES5_EC1B8ue170006INS_18__default_init_tagERKS5_EEOT_OT0_, symObjAddr: 0x1E7C, symBinAddr: 0x10001A120, symSize: 0x3C }
  - { offsetInCU: 0x17165, offset: 0x79C79, size: 0x8, addend: 0x0, symName: __ZNSt3__117__compressed_pairINS_12basic_stringIcNS_11char_traitsIcEENS_9allocatorIcEEE5__repES5_EC2B8ue170006INS_18__default_init_tagERKS5_EEOT_OT0_, symObjAddr: 0x1EB8, symBinAddr: 0x10001A15C, symSize: 0x40 }
  - { offsetInCU: 0x171BC, offset: 0x79CD0, size: 0x8, addend: 0x0, symName: __ZNSt3__122__compressed_pair_elemINS_9allocatorIcEELi1ELb1EEC2B8ue170006IRKS2_vEEOT_, symObjAddr: 0x1EF8, symBinAddr: 0x10001A19C, symSize: 0x18 }
  - { offsetInCU: 0x1721B, offset: 0x79D2F, size: 0x8, addend: 0x0, symName: __ZNKSt3__113basic_istreamIcNS_11char_traitsIcEEE6sentrycvbB8ue170006Ev, symObjAddr: 0x1F10, symBinAddr: 0x10001A1B4, symSize: 0x1C }
  - { offsetInCU: 0x17240, offset: 0x79D54, size: 0x8, addend: 0x0, symName: __ZNSt3__112basic_stringIcNS_11char_traitsIcEENS_9allocatorIcEEE5clearB8ue170006Ev, symObjAddr: 0x1F2C, symBinAddr: 0x10001A1D0, symSize: 0x78 }
  - { offsetInCU: 0x17266, offset: 0x79D7A, size: 0x8, addend: 0x0, symName: __ZNSt3__115basic_streambufIcNS_11char_traitsIcEEE6sbumpcB8ue170006Ev, symObjAddr: 0x1FC8, symBinAddr: 0x10001A248, symSize: 0x78 }
  - { offsetInCU: 0x1728B, offset: 0x79D9F, size: 0x8, addend: 0x0, symName: __ZNSt3__111char_traitsIcE12to_char_typeB8ue170006Ei, symObjAddr: 0x2068, symBinAddr: 0x10001A2C0, symSize: 0x18 }
  - { offsetInCU: 0x172AE, offset: 0x79DC2, size: 0x8, addend: 0x0, symName: __ZNSt3__111char_traitsIcE2eqEcc, symObjAddr: 0x2080, symBinAddr: 0x10001A2D8, symSize: 0x28 }
  - { offsetInCU: 0x172DF, offset: 0x79DF3, size: 0x8, addend: 0x0, symName: __ZNKSt3__112basic_stringIcNS_11char_traitsIcEENS_9allocatorIcEEE8max_sizeB8ue170006Ev, symObjAddr: 0x20FC, symBinAddr: 0x10001A300, symSize: 0xAC }
  - { offsetInCU: 0x17330, offset: 0x79E44, size: 0x8, addend: 0x0, symName: __ZNSt3__18ios_base18__setstate_nothrowB8ue170006Ej, symObjAddr: 0x21A8, symBinAddr: 0x10001A3AC, symSize: 0x64 }
  - { offsetInCU: 0x17364, offset: 0x79E78, size: 0x8, addend: 0x0, symName: __ZNKSt3__19basic_iosIcNS_11char_traitsIcEEE10exceptionsB8ue170006Ev, symObjAddr: 0x220C, symBinAddr: 0x10001A410, symSize: 0x24 }
  - { offsetInCU: 0x17389, offset: 0x79E9D, size: 0x8, addend: 0x0, symName: __ZNSt3__111char_traitsIcE6assignB8ue170006ERcRKc, symObjAddr: 0x2294, symBinAddr: 0x10001A434, symSize: 0x24 }
  - { offsetInCU: 0x173BA, offset: 0x79ECE, size: 0x8, addend: 0x0, symName: __ZNSt3__112basic_stringIcNS_11char_traitsIcEENS_9allocatorIcEEE15__set_long_sizeB8ue170006Em, symObjAddr: 0x22E0, symBinAddr: 0x10001A458, symSize: 0x38 }
  - { offsetInCU: 0x173EE, offset: 0x79F02, size: 0x8, addend: 0x0, symName: __ZNSt3__112basic_stringIcNS_11char_traitsIcEENS_9allocatorIcEEE16__set_short_sizeB8ue170006Em, symObjAddr: 0x2340, symBinAddr: 0x10001A490, symSize: 0x78 }
  - { offsetInCU: 0x17422, offset: 0x79F36, size: 0x8, addend: 0x0, symName: __ZNSt3__111char_traitsIcE11to_int_typeB8ue170006Ec, symObjAddr: 0x241C, symBinAddr: 0x10001A508, symSize: 0x14 }
  - { offsetInCU: 0x17450, offset: 0x79F64, size: 0x8, addend: 0x0, symName: __ZNSt3__116allocator_traitsINS_9allocatorIcEEE8max_sizeB8ue170006IS2_vEEmRKS2_, symObjAddr: 0x248C, symBinAddr: 0x10001A51C, symSize: 0x24 }
  - { offsetInCU: 0x1747E, offset: 0x79F92, size: 0x8, addend: 0x0, symName: __ZNSt3__114numeric_limitsImE3maxB8ue170006Ev, symObjAddr: 0x24B0, symBinAddr: 0x10001A540, symSize: 0x14 }
  - { offsetInCU: 0x17492, offset: 0x79FA6, size: 0x8, addend: 0x0, symName: __ZNKSt3__19allocatorIcE8max_sizeB8ue170006Ev, symObjAddr: 0x24C4, symBinAddr: 0x10001A554, symSize: 0x14 }
  - { offsetInCU: 0x174B7, offset: 0x79FCB, size: 0x8, addend: 0x0, symName: __ZNSt3__123__libcpp_numeric_limitsImLb1EE3maxB8ue170006Ev, symObjAddr: 0x24D8, symBinAddr: 0x10001A568, symSize: 0x8 }
  - { offsetInCU: 0x174CB, offset: 0x79FDF, size: 0x8, addend: 0x0, symName: __ZNKSt3__18ios_base10exceptionsB8ue170006Ev, symObjAddr: 0x24E0, symBinAddr: 0x10001A570, symSize: 0x18 }
  - { offsetInCU: 0x174F2, offset: 0x7A006, size: 0x8, addend: 0x0, symName: __ZNKSt3__19basic_iosIcNS_11char_traitsIcEEE4failB8ue170006Ev, symObjAddr: 0x252C, symBinAddr: 0x10001A588, symSize: 0x28 }
  - { offsetInCU: 0x17517, offset: 0x7A02B, size: 0x8, addend: 0x0, symName: __ZNKSt3__18ios_base4failB8ue170006Ev, symObjAddr: 0x2554, symBinAddr: 0x10001A5B0, symSize: 0x28 }
  - { offsetInCU: 0x1753E, offset: 0x7A052, size: 0x8, addend: 0x0, symName: __ZNSt3__16vectorINS_12basic_stringIcNS_11char_traitsIcEENS_9allocatorIcEEEENS4_IS6_EEE9__end_capB8ue170006Ev, symObjAddr: 0x257C, symBinAddr: 0x10001A5D8, symSize: 0x28 }
  - { offsetInCU: 0x17563, offset: 0x7A077, size: 0x8, addend: 0x0, symName: __ZNSt3__16vectorINS_12basic_stringIcNS_11char_traitsIcEENS_9allocatorIcEEEENS4_IS6_EEE22__construct_one_at_endB8ue170006IJRKS6_EEEvDpOT_, symObjAddr: 0x25A4, symBinAddr: 0x10001A600, symSize: 0x90 }
  - { offsetInCU: 0x175B1, offset: 0x7A0C5, size: 0x8, addend: 0x0, symName: __ZNSt3__16vectorINS_12basic_stringIcNS_11char_traitsIcEENS_9allocatorIcEEEENS4_IS6_EEE21__push_back_slow_pathIRKS6_EEvOT_, symObjAddr: 0x2634, symBinAddr: 0x10001A690, symSize: 0xD8 }
  - { offsetInCU: 0x1760D, offset: 0x7A121, size: 0x8, addend: 0x0, symName: __ZNSt3__117__compressed_pairIPNS_12basic_stringIcNS_11char_traitsIcEENS_9allocatorIcEEEENS4_IS6_EEE5firstB8ue170006Ev, symObjAddr: 0x270C, symBinAddr: 0x10001A768, symSize: 0x24 }
  - { offsetInCU: 0x17632, offset: 0x7A146, size: 0x8, addend: 0x0, symName: __ZNSt3__122__compressed_pair_elemIPNS_12basic_stringIcNS_11char_traitsIcEENS_9allocatorIcEEEELi0ELb0EE5__getB8ue170006Ev, symObjAddr: 0x2730, symBinAddr: 0x10001A78C, symSize: 0x14 }
  - { offsetInCU: 0x17670, offset: 0x7A184, size: 0x8, addend: 0x0, symName: __ZNSt3__16vectorINS_12basic_stringIcNS_11char_traitsIcEENS_9allocatorIcEEEENS4_IS6_EEE21_ConstructTransactionC1B8ue170006ERS8_m, symObjAddr: 0x2744, symBinAddr: 0x10001A7A0, symSize: 0x3C }
  - { offsetInCU: 0x176B7, offset: 0x7A1CB, size: 0x8, addend: 0x0, symName: __ZNSt3__116allocator_traitsINS_9allocatorINS_12basic_stringIcNS_11char_traitsIcEENS1_IcEEEEEEE9constructB8ue170006IS6_JRKS6_EvEEvRS7_PT_DpOT0_, symObjAddr: 0x2780, symBinAddr: 0x10001A7DC, symSize: 0x34 }
  - { offsetInCU: 0x1770E, offset: 0x7A222, size: 0x8, addend: 0x0, symName: __ZNSt3__16vectorINS_12basic_stringIcNS_11char_traitsIcEENS_9allocatorIcEEEENS4_IS6_EEE21_ConstructTransactionD1B8ue170006Ev, symObjAddr: 0x27B4, symBinAddr: 0x10001A810, symSize: 0x2C }
  - { offsetInCU: 0x17737, offset: 0x7A24B, size: 0x8, addend: 0x0, symName: __ZNSt3__16vectorINS_12basic_stringIcNS_11char_traitsIcEENS_9allocatorIcEEEENS4_IS6_EEE21_ConstructTransactionC2B8ue170006ERS8_m, symObjAddr: 0x27E0, symBinAddr: 0x10001A83C, symSize: 0x4C }
  - { offsetInCU: 0x1777E, offset: 0x7A292, size: 0x8, addend: 0x0, symName: __ZNSt3__19allocatorINS_12basic_stringIcNS_11char_traitsIcEENS0_IcEEEEE9constructB8ue170006IS5_JRKS5_EEEvPT_DpOT0_, symObjAddr: 0x282C, symBinAddr: 0x10001A888, symSize: 0x30 }
  - { offsetInCU: 0x177D3, offset: 0x7A2E7, size: 0x8, addend: 0x0, symName: __ZNSt3__16vectorINS_12basic_stringIcNS_11char_traitsIcEENS_9allocatorIcEEEENS4_IS6_EEE21_ConstructTransactionD2B8ue170006Ev, symObjAddr: 0x285C, symBinAddr: 0x10001A8B8, symSize: 0x20 }
  - { offsetInCU: 0x177FC, offset: 0x7A310, size: 0x8, addend: 0x0, symName: __ZNKSt3__16vectorINS_12basic_stringIcNS_11char_traitsIcEENS_9allocatorIcEEEENS4_IS6_EEE11__recommendB8ue170006Em, symObjAddr: 0x287C, symBinAddr: 0x10001A8D8, symSize: 0xB4 }
  - { offsetInCU: 0x1784F, offset: 0x7A363, size: 0x8, addend: 0x0, symName: __ZNSt3__114__split_bufferINS_12basic_stringIcNS_11char_traitsIcEENS_9allocatorIcEEEERNS4_IS6_EEEC1EmmS8_, symObjAddr: 0x2930, symBinAddr: 0x10001A98C, symSize: 0x44 }
  - { offsetInCU: 0x178A4, offset: 0x7A3B8, size: 0x8, addend: 0x0, symName: __ZNSt3__114__split_bufferINS_12basic_stringIcNS_11char_traitsIcEENS_9allocatorIcEEEERNS4_IS6_EEED1Ev, symObjAddr: 0x2A84, symBinAddr: 0x10001AAE0, symSize: 0x2C }
  - { offsetInCU: 0x178CF, offset: 0x7A3E3, size: 0x8, addend: 0x0, symName: __ZNKSt3__16vectorINS_12basic_stringIcNS_11char_traitsIcEENS_9allocatorIcEEEENS4_IS6_EEE8max_sizeEv, symObjAddr: 0x2AB0, symBinAddr: 0x10001AB0C, symSize: 0x60 }
  - { offsetInCU: 0x178F5, offset: 0x7A409, size: 0x8, addend: 0x0, symName: __ZNKSt3__16vectorINS_12basic_stringIcNS_11char_traitsIcEENS_9allocatorIcEEEENS4_IS6_EEE20__throw_length_errorB8ue170006Ev, symObjAddr: 0x2B10, symBinAddr: 0x10001AB6C, symSize: 0x1C }
  - { offsetInCU: 0x17924, offset: 0x7A438, size: 0x8, addend: 0x0, symName: __ZNSt3__116allocator_traitsINS_9allocatorINS_12basic_stringIcNS_11char_traitsIcEENS1_IcEEEEEEE8max_sizeB8ue170006IS7_vEEmRKS7_, symObjAddr: 0x2B84, symBinAddr: 0x10001AB88, symSize: 0x24 }
  - { offsetInCU: 0x17952, offset: 0x7A466, size: 0x8, addend: 0x0, symName: __ZNKSt3__16vectorINS_12basic_stringIcNS_11char_traitsIcEENS_9allocatorIcEEEENS4_IS6_EEE7__allocB8ue170006Ev, symObjAddr: 0x2BA8, symBinAddr: 0x10001ABAC, symSize: 0x28 }
  - { offsetInCU: 0x17977, offset: 0x7A48B, size: 0x8, addend: 0x0, symName: __ZNKSt3__19allocatorINS_12basic_stringIcNS_11char_traitsIcEENS0_IcEEEEE8max_sizeB8ue170006Ev, symObjAddr: 0x2C6C, symBinAddr: 0x10001ABD4, symSize: 0x18 }
  - { offsetInCU: 0x1799C, offset: 0x7A4B0, size: 0x8, addend: 0x0, symName: __ZNKSt3__117__compressed_pairIPNS_12basic_stringIcNS_11char_traitsIcEENS_9allocatorIcEEEENS4_IS6_EEE6secondB8ue170006Ev, symObjAddr: 0x2C84, symBinAddr: 0x10001ABEC, symSize: 0x24 }
  - { offsetInCU: 0x179C1, offset: 0x7A4D5, size: 0x8, addend: 0x0, symName: __ZNKSt3__122__compressed_pair_elemINS_9allocatorINS_12basic_stringIcNS_11char_traitsIcEENS1_IcEEEEEELi1ELb1EE5__getB8ue170006Ev, symObjAddr: 0x2CA8, symBinAddr: 0x10001AC10, symSize: 0x14 }
  - { offsetInCU: 0x179E6, offset: 0x7A4FA, size: 0x8, addend: 0x0, symName: __ZNSt3__114__split_bufferINS_12basic_stringIcNS_11char_traitsIcEENS_9allocatorIcEEEERNS4_IS6_EEEC2EmmS8_, symObjAddr: 0x2DFC, symBinAddr: 0x10001AC24, symSize: 0xE0 }
  - { offsetInCU: 0x17A58, offset: 0x7A56C, size: 0x8, addend: 0x0, symName: __ZNSt3__117__compressed_pairIPNS_12basic_stringIcNS_11char_traitsIcEENS_9allocatorIcEEEERNS4_IS6_EEEC1B8ue170006IDnS9_EEOT_OT0_, symObjAddr: 0x2EDC, symBinAddr: 0x10001AD04, symSize: 0x3C }
  - { offsetInCU: 0x17AAF, offset: 0x7A5C3, size: 0x8, addend: 0x0, symName: __ZNSt3__114__split_bufferINS_12basic_stringIcNS_11char_traitsIcEENS_9allocatorIcEEEERNS4_IS6_EEE7__allocB8ue170006Ev, symObjAddr: 0x2F58, symBinAddr: 0x10001AD80, symSize: 0x28 }
  - { offsetInCU: 0x17AD4, offset: 0x7A5E8, size: 0x8, addend: 0x0, symName: __ZNSt3__114__split_bufferINS_12basic_stringIcNS_11char_traitsIcEENS_9allocatorIcEEEERNS4_IS6_EEE9__end_capB8ue170006Ev, symObjAddr: 0x2F80, symBinAddr: 0x10001ADA8, symSize: 0x28 }
  - { offsetInCU: 0x17AF9, offset: 0x7A60D, size: 0x8, addend: 0x0, symName: __ZNSt3__117__compressed_pairIPNS_12basic_stringIcNS_11char_traitsIcEENS_9allocatorIcEEEERNS4_IS6_EEEC2B8ue170006IDnS9_EEOT_OT0_, symObjAddr: 0x2FA8, symBinAddr: 0x10001ADD0, symSize: 0x48 }
  - { offsetInCU: 0x17B50, offset: 0x7A664, size: 0x8, addend: 0x0, symName: __ZNSt3__122__compressed_pair_elemIRNS_9allocatorINS_12basic_stringIcNS_11char_traitsIcEENS1_IcEEEEEELi1ELb0EEC2B8ue170006IS8_vEEOT_, symObjAddr: 0x2FF0, symBinAddr: 0x10001AE18, symSize: 0x20 }
  - { offsetInCU: 0x17B91, offset: 0x7A6A5, size: 0x8, addend: 0x0, symName: __ZNSt3__19allocatorINS_12basic_stringIcNS_11char_traitsIcEENS0_IcEEEEE8allocateB8ue170006Em, symObjAddr: 0x3010, symBinAddr: 0x10001AE38, symSize: 0x5C }
  - { offsetInCU: 0x17BC4, offset: 0x7A6D8, size: 0x8, addend: 0x0, symName: __ZNSt3__117__compressed_pairIPNS_12basic_stringIcNS_11char_traitsIcEENS_9allocatorIcEEEERNS4_IS6_EEE6secondB8ue170006Ev, symObjAddr: 0x3150, symBinAddr: 0x10001AE94, symSize: 0x28 }
  - { offsetInCU: 0x17BE9, offset: 0x7A6FD, size: 0x8, addend: 0x0, symName: __ZNSt3__122__compressed_pair_elemIRNS_9allocatorINS_12basic_stringIcNS_11char_traitsIcEENS1_IcEEEEEELi1ELb0EE5__getB8ue170006Ev, symObjAddr: 0x3178, symBinAddr: 0x10001AEBC, symSize: 0x18 }
  - { offsetInCU: 0x17C0E, offset: 0x7A722, size: 0x8, addend: 0x0, symName: __ZNSt3__117__compressed_pairIPNS_12basic_stringIcNS_11char_traitsIcEENS_9allocatorIcEEEERNS4_IS6_EEE5firstB8ue170006Ev, symObjAddr: 0x3190, symBinAddr: 0x10001AED4, symSize: 0x24 }
  - { offsetInCU: 0x17C33, offset: 0x7A747, size: 0x8, addend: 0x0, symName: __ZNSt3__116reverse_iteratorIPNS_12basic_stringIcNS_11char_traitsIcEENS_9allocatorIcEEEEEC1B8ue170006ES7_, symObjAddr: 0x32E0, symBinAddr: 0x10001B024, symSize: 0x34 }
  - { offsetInCU: 0x17C6A, offset: 0x7A77E, size: 0x8, addend: 0x0, symName: __ZNKSt3__116reverse_iteratorIPNS_12basic_stringIcNS_11char_traitsIcEENS_9allocatorIcEEEEE4baseB8ue170006Ev, symObjAddr: 0x3314, symBinAddr: 0x10001B058, symSize: 0x18 }
  - { offsetInCU: 0x17C8F, offset: 0x7A7A3, size: 0x8, addend: 0x0, symName: __ZNKSt3__16vectorINS_12basic_stringIcNS_11char_traitsIcEENS_9allocatorIcEEEENS4_IS6_EEE14__annotate_newB8ue170006Em, symObjAddr: 0x3368, symBinAddr: 0x10001B0AC, symSize: 0xC8 }
  - { offsetInCU: 0x17CC3, offset: 0x7A7D7, size: 0x8, addend: 0x0, symName: __ZNSt3__129_AllocatorDestroyRangeReverseINS_9allocatorINS_12basic_stringIcNS_11char_traitsIcEENS1_IcEEEEEENS_16reverse_iteratorIPS6_EEEC1B8ue170006ERS7_RSA_SD_, symObjAddr: 0x347C, symBinAddr: 0x10001B1C0, symSize: 0x44 }
  - { offsetInCU: 0x17D1E, offset: 0x7A832, size: 0x8, addend: 0x0, symName: __ZNSt3__116allocator_traitsINS_9allocatorINS_12basic_stringIcNS_11char_traitsIcEENS1_IcEEEEEEE9constructB8ue170006IS6_JS6_EvEEvRS7_PT_DpOT0_, symObjAddr: 0x3508, symBinAddr: 0x10001B24C, symSize: 0x34 }
  - { offsetInCU: 0x17D75, offset: 0x7A889, size: 0x8, addend: 0x0, symName: __ZNKSt3__116reverse_iteratorIPNS_12basic_stringIcNS_11char_traitsIcEENS_9allocatorIcEEEEEdeB8ue170006Ev, symObjAddr: 0x3560, symBinAddr: 0x10001B2A4, symSize: 0x28 }
  - { offsetInCU: 0x17DA8, offset: 0x7A8BC, size: 0x8, addend: 0x0, symName: __ZNSt3__116reverse_iteratorIPNS_12basic_stringIcNS_11char_traitsIcEENS_9allocatorIcEEEEEppB8ue170006Ev, symObjAddr: 0x3588, symBinAddr: 0x10001B2CC, symSize: 0x20 }
  - { offsetInCU: 0x17DCD, offset: 0x7A8E1, size: 0x8, addend: 0x0, symName: __ZNSt3__128__exception_guard_exceptionsINS_29_AllocatorDestroyRangeReverseINS_9allocatorINS_12basic_stringIcNS_11char_traitsIcEENS2_IcEEEEEENS_16reverse_iteratorIPS7_EEEEE10__completeB8ue170006Ev, symObjAddr: 0x35A8, symBinAddr: 0x10001B2EC, symSize: 0x1C }
  - { offsetInCU: 0x17DF2, offset: 0x7A906, size: 0x8, addend: 0x0, symName: __ZNSt3__128__exception_guard_exceptionsINS_29_AllocatorDestroyRangeReverseINS_9allocatorINS_12basic_stringIcNS_11char_traitsIcEENS2_IcEEEEEENS_16reverse_iteratorIPS7_EEEEED1B8ue170006Ev, symObjAddr: 0x35C4, symBinAddr: 0x10001B308, symSize: 0x2C }
  - { offsetInCU: 0x17E1B, offset: 0x7A92F, size: 0x8, addend: 0x0, symName: __ZNSt3__128__exception_guard_exceptionsINS_29_AllocatorDestroyRangeReverseINS_9allocatorINS_12basic_stringIcNS_11char_traitsIcEENS2_IcEEEEEENS_16reverse_iteratorIPS7_EEEEEC1B8ue170006ESC_, symObjAddr: 0x35F0, symBinAddr: 0x10001B334, symSize: 0x34 }
  - { offsetInCU: 0x17E53, offset: 0x7A967, size: 0x8, addend: 0x0, symName: __ZNSt3__128__exception_guard_exceptionsINS_29_AllocatorDestroyRangeReverseINS_9allocatorINS_12basic_stringIcNS_11char_traitsIcEENS2_IcEEEEEENS_16reverse_iteratorIPS7_EEEEEC2B8ue170006ESC_, symObjAddr: 0x3624, symBinAddr: 0x10001B368, symSize: 0x30 }
  - { offsetInCU: 0x17E8B, offset: 0x7A99F, size: 0x8, addend: 0x0, symName: __ZNSt3__129_AllocatorDestroyRangeReverseINS_9allocatorINS_12basic_stringIcNS_11char_traitsIcEENS1_IcEEEEEENS_16reverse_iteratorIPS6_EEEC2B8ue170006ERS7_RSA_SD_, symObjAddr: 0x3654, symBinAddr: 0x10001B398, symSize: 0x38 }
  - { offsetInCU: 0x17EE1, offset: 0x7A9F5, size: 0x8, addend: 0x0, symName: __ZNSt3__19allocatorINS_12basic_stringIcNS_11char_traitsIcEENS0_IcEEEEE9constructB8ue170006IS5_JS5_EEEvPT_DpOT0_, symObjAddr: 0x368C, symBinAddr: 0x10001B3D0, symSize: 0x30 }
  - { offsetInCU: 0x17F36, offset: 0x7AA4A, size: 0x8, addend: 0x0, symName: __ZNSt3__112basic_stringIcNS_11char_traitsIcEENS_9allocatorIcEEEC1B8ue170006EOS5_, symObjAddr: 0x36BC, symBinAddr: 0x10001B400, symSize: 0x34 }
  - { offsetInCU: 0x17F6E, offset: 0x7AA82, size: 0x8, addend: 0x0, symName: __ZNSt3__112basic_stringIcNS_11char_traitsIcEENS_9allocatorIcEEEC2B8ue170006EOS5_, symObjAddr: 0x36F0, symBinAddr: 0x10001B434, symSize: 0x48 }
  - { offsetInCU: 0x17FAB, offset: 0x7AABF, size: 0x8, addend: 0x0, symName: __ZNSt3__119__to_address_helperINS_16reverse_iteratorIPNS_12basic_stringIcNS_11char_traitsIcEENS_9allocatorIcEEEEEEvE6__callB8ue170006ERKS9_, symObjAddr: 0x3738, symBinAddr: 0x10001B47C, symSize: 0x38 }
  - { offsetInCU: 0x17FCE, offset: 0x7AAE2, size: 0x8, addend: 0x0, symName: __ZNKSt3__116reverse_iteratorIPNS_12basic_stringIcNS_11char_traitsIcEENS_9allocatorIcEEEEEptB8ue170006Ev, symObjAddr: 0x3770, symBinAddr: 0x10001B4B4, symSize: 0x24 }
  - { offsetInCU: 0x17FF3, offset: 0x7AB07, size: 0x8, addend: 0x0, symName: __ZNSt3__128__exception_guard_exceptionsINS_29_AllocatorDestroyRangeReverseINS_9allocatorINS_12basic_stringIcNS_11char_traitsIcEENS2_IcEEEEEENS_16reverse_iteratorIPS7_EEEEED2B8ue170006Ev, symObjAddr: 0x3794, symBinAddr: 0x10001B4D8, symSize: 0x50 }
  - { offsetInCU: 0x1801C, offset: 0x7AB30, size: 0x8, addend: 0x0, symName: __ZNKSt3__129_AllocatorDestroyRangeReverseINS_9allocatorINS_12basic_stringIcNS_11char_traitsIcEENS1_IcEEEEEENS_16reverse_iteratorIPS6_EEEclB8ue170006Ev, symObjAddr: 0x37E4, symBinAddr: 0x10001B528, symSize: 0xB4 }
  - { offsetInCU: 0x18042, offset: 0x7AB56, size: 0x8, addend: 0x0, symName: __ZNSt3__116reverse_iteratorINS0_IPNS_12basic_stringIcNS_11char_traitsIcEENS_9allocatorIcEEEEEEEC1B8ue170006ES8_, symObjAddr: 0x3908, symBinAddr: 0x10001B64C, symSize: 0x3C }
  - { offsetInCU: 0x18079, offset: 0x7AB8D, size: 0x8, addend: 0x0, symName: __ZNSt3__116reverse_iteratorINS0_IPNS_12basic_stringIcNS_11char_traitsIcEENS_9allocatorIcEEEEEEEppB8ue170006Ev, symObjAddr: 0x39C8, symBinAddr: 0x10001B70C, symSize: 0x30 }
  - { offsetInCU: 0x1809E, offset: 0x7ABB2, size: 0x8, addend: 0x0, symName: __ZNKSt3__116reverse_iteratorINS0_IPNS_12basic_stringIcNS_11char_traitsIcEENS_9allocatorIcEEEEEEE4baseB8ue170006Ev, symObjAddr: 0x39F8, symBinAddr: 0x10001B73C, symSize: 0x24 }
  - { offsetInCU: 0x180C8, offset: 0x7ABDC, size: 0x8, addend: 0x0, symName: __ZNSt3__119__to_address_helperINS_16reverse_iteratorINS1_IPNS_12basic_stringIcNS_11char_traitsIcEENS_9allocatorIcEEEEEEEEvE6__callB8ue170006ERKSA_, symObjAddr: 0x3A1C, symBinAddr: 0x10001B760, symSize: 0x38 }
  - { offsetInCU: 0x180EB, offset: 0x7ABFF, size: 0x8, addend: 0x0, symName: __ZNKSt3__116reverse_iteratorINS0_IPNS_12basic_stringIcNS_11char_traitsIcEENS_9allocatorIcEEEEEEEptB8ue170006Ev, symObjAddr: 0x3A54, symBinAddr: 0x10001B798, symSize: 0x24 }
  - { offsetInCU: 0x18110, offset: 0x7AC24, size: 0x8, addend: 0x0, symName: __ZNKSt3__116reverse_iteratorINS0_IPNS_12basic_stringIcNS_11char_traitsIcEENS_9allocatorIcEEEEEEEdeB8ue170006Ev, symObjAddr: 0x3A78, symBinAddr: 0x10001B7BC, symSize: 0x34 }
  - { offsetInCU: 0x18143, offset: 0x7AC57, size: 0x8, addend: 0x0, symName: __ZNSt3__116reverse_iteratorIPNS_12basic_stringIcNS_11char_traitsIcEENS_9allocatorIcEEEEEmmB8ue170006Ev, symObjAddr: 0x3AAC, symBinAddr: 0x10001B7F0, symSize: 0x20 }
  - { offsetInCU: 0x18168, offset: 0x7AC7C, size: 0x8, addend: 0x0, symName: __ZNSt3__116reverse_iteratorINS0_IPNS_12basic_stringIcNS_11char_traitsIcEENS_9allocatorIcEEEEEEEC2B8ue170006ES8_, symObjAddr: 0x3ACC, symBinAddr: 0x10001B810, symSize: 0x2C }
  - { offsetInCU: 0x1819F, offset: 0x7ACB3, size: 0x8, addend: 0x0, symName: __ZNSt3__116reverse_iteratorIPNS_12basic_stringIcNS_11char_traitsIcEENS_9allocatorIcEEEEEC2B8ue170006ES7_, symObjAddr: 0x3AF8, symBinAddr: 0x10001B83C, symSize: 0x28 }
  - { offsetInCU: 0x181D6, offset: 0x7ACEA, size: 0x8, addend: 0x0, symName: __ZNSt3__114__split_bufferINS_12basic_stringIcNS_11char_traitsIcEENS_9allocatorIcEEEERNS4_IS6_EEED2Ev, symObjAddr: 0x3B20, symBinAddr: 0x10001B864, symSize: 0x8C }
  - { offsetInCU: 0x18201, offset: 0x7AD15, size: 0x8, addend: 0x0, symName: __ZNSt3__114__split_bufferINS_12basic_stringIcNS_11char_traitsIcEENS_9allocatorIcEEEERNS4_IS6_EEE5clearB8ue170006Ev, symObjAddr: 0x3BAC, symBinAddr: 0x10001B8F0, symSize: 0x28 }
  - { offsetInCU: 0x18226, offset: 0x7AD3A, size: 0x8, addend: 0x0, symName: __ZNKSt3__114__split_bufferINS_12basic_stringIcNS_11char_traitsIcEENS_9allocatorIcEEEERNS4_IS6_EEE8capacityB8ue170006Ev, symObjAddr: 0x3BD4, symBinAddr: 0x10001B918, symSize: 0x40 }
  - { offsetInCU: 0x1824B, offset: 0x7AD5F, size: 0x8, addend: 0x0, symName: __ZNSt3__114__split_bufferINS_12basic_stringIcNS_11char_traitsIcEENS_9allocatorIcEEEERNS4_IS6_EEE17__destruct_at_endB8ue170006EPS6_, symObjAddr: 0x3C14, symBinAddr: 0x10001B958, symSize: 0x2C }
  - { offsetInCU: 0x1827E, offset: 0x7AD92, size: 0x8, addend: 0x0, symName: __ZNSt3__114__split_bufferINS_12basic_stringIcNS_11char_traitsIcEENS_9allocatorIcEEEERNS4_IS6_EEE17__destruct_at_endB8ue170006EPS6_NS_17integral_constantIbLb0EEE, symObjAddr: 0x3C40, symBinAddr: 0x10001B984, symSize: 0x80 }
  - { offsetInCU: 0x182BD, offset: 0x7ADD1, size: 0x8, addend: 0x0, symName: __ZNKSt3__114__split_bufferINS_12basic_stringIcNS_11char_traitsIcEENS_9allocatorIcEEEERNS4_IS6_EEE9__end_capB8ue170006Ev, symObjAddr: 0x3CC0, symBinAddr: 0x10001BA04, symSize: 0x28 }
  - { offsetInCU: 0x182E2, offset: 0x7ADF6, size: 0x8, addend: 0x0, symName: __ZNKSt3__117__compressed_pairIPNS_12basic_stringIcNS_11char_traitsIcEENS_9allocatorIcEEEERNS4_IS6_EEE5firstB8ue170006Ev, symObjAddr: 0x3CE8, symBinAddr: 0x10001BA2C, symSize: 0x24 }
  - { offsetInCU: 0x18307, offset: 0x7AE1B, size: 0x8, addend: 0x0, symName: __ZNSt3__113basic_filebufIcNS_11char_traitsIcEEE4openERKNS_12basic_stringIcS2_NS_9allocatorIcEEEEj, symObjAddr: 0x3D0C, symBinAddr: 0x10001BA50, symSize: 0x44 }
  - { offsetInCU: 0x18367, offset: 0x7AE7B, size: 0x8, addend: 0x0, symName: __ZNSt3__16vectorINS0_IiNS_9allocatorIiEEEENS1_IS3_EEEC2B8ue170006Ev, symObjAddr: 0x46B0, symBinAddr: 0x10001BA94, symSize: 0x4C }
  - { offsetInCU: 0x18390, offset: 0x7AEA4, size: 0x8, addend: 0x0, symName: __ZNSt3__117__compressed_pairIPNS_6vectorIiNS_9allocatorIiEEEENS2_IS4_EEEC1B8ue170006IDnNS_18__default_init_tagEEEOT_OT0_, symObjAddr: 0x46FC, symBinAddr: 0x10001BAE0, symSize: 0x3C }
  - { offsetInCU: 0x183E7, offset: 0x7AEFB, size: 0x8, addend: 0x0, symName: __ZNSt3__117__compressed_pairIPNS_6vectorIiNS_9allocatorIiEEEENS2_IS4_EEEC2B8ue170006IDnNS_18__default_init_tagEEEOT_OT0_, symObjAddr: 0x4738, symBinAddr: 0x10001BB1C, symSize: 0x40 }
  - { offsetInCU: 0x1843E, offset: 0x7AF52, size: 0x8, addend: 0x0, symName: __ZNSt3__122__compressed_pair_elemIPNS_6vectorIiNS_9allocatorIiEEEELi0ELb0EEC2B8ue170006IDnvEEOT_, symObjAddr: 0x4778, symBinAddr: 0x10001BB5C, symSize: 0x1C }
  - { offsetInCU: 0x1847F, offset: 0x7AF93, size: 0x8, addend: 0x0, symName: __ZNSt3__122__compressed_pair_elemINS_9allocatorINS_6vectorIiNS1_IiEEEEEELi1ELb1EEC2B8ue170006ENS_18__default_init_tagE, symObjAddr: 0x4794, symBinAddr: 0x10001BB78, symSize: 0x2C }
  - { offsetInCU: 0x184B3, offset: 0x7AFC7, size: 0x8, addend: 0x0, symName: __ZNSt3__19allocatorINS_6vectorIiNS0_IiEEEEEC2B8ue170006Ev, symObjAddr: 0x47C0, symBinAddr: 0x10001BBA4, symSize: 0x2C }
  - { offsetInCU: 0x184DC, offset: 0x7AFF0, size: 0x8, addend: 0x0, symName: __ZNSt3__116__non_trivial_ifILb1ENS_9allocatorINS_6vectorIiNS1_IiEEEEEEEC2B8ue170006Ev, symObjAddr: 0x47EC, symBinAddr: 0x10001BBD0, symSize: 0x14 }
  - { offsetInCU: 0x18505, offset: 0x7B019, size: 0x8, addend: 0x0, symName: __ZNSt3__16vectorINS0_IiNS_9allocatorIiEEEENS1_IS3_EEED2B8ue170006Ev, symObjAddr: 0x4800, symBinAddr: 0x10001BBE4, symSize: 0x44 }
  - { offsetInCU: 0x1852E, offset: 0x7B042, size: 0x8, addend: 0x0, symName: __ZNSt3__16vectorINS0_IiNS_9allocatorIiEEEENS1_IS3_EEE16__destroy_vectorC1B8ue170006ERS5_, symObjAddr: 0x4844, symBinAddr: 0x10001BC28, symSize: 0x34 }
  - { offsetInCU: 0x18566, offset: 0x7B07A, size: 0x8, addend: 0x0, symName: __ZNSt3__16vectorINS0_IiNS_9allocatorIiEEEENS1_IS3_EEE16__destroy_vectorclB8ue170006Ev, symObjAddr: 0x4878, symBinAddr: 0x10001BC5C, symSize: 0x90 }
  - { offsetInCU: 0x1858B, offset: 0x7B09F, size: 0x8, addend: 0x0, symName: __ZNSt3__16vectorINS0_IiNS_9allocatorIiEEEENS1_IS3_EEE16__destroy_vectorC2B8ue170006ERS5_, symObjAddr: 0x4908, symBinAddr: 0x10001BCEC, symSize: 0x20 }
  - { offsetInCU: 0x185C3, offset: 0x7B0D7, size: 0x8, addend: 0x0, symName: __ZNSt3__16vectorINS0_IiNS_9allocatorIiEEEENS1_IS3_EEE7__clearB8ue170006Ev, symObjAddr: 0x4928, symBinAddr: 0x10001BD0C, symSize: 0x28 }
  - { offsetInCU: 0x185E8, offset: 0x7B0FC, size: 0x8, addend: 0x0, symName: __ZNKSt3__16vectorINS0_IiNS_9allocatorIiEEEENS1_IS3_EEE17__annotate_deleteB8ue170006Ev, symObjAddr: 0x4950, symBinAddr: 0x10001BD34, symSize: 0xD4 }
  - { offsetInCU: 0x1860D, offset: 0x7B121, size: 0x8, addend: 0x0, symName: __ZNSt3__116allocator_traitsINS_9allocatorINS_6vectorIiNS1_IiEEEEEEE10deallocateB8ue170006ERS5_PS4_m, symObjAddr: 0x4A24, symBinAddr: 0x10001BE08, symSize: 0x34 }
  - { offsetInCU: 0x1864F, offset: 0x7B163, size: 0x8, addend: 0x0, symName: __ZNSt3__16vectorINS0_IiNS_9allocatorIiEEEENS1_IS3_EEE7__allocB8ue170006Ev, symObjAddr: 0x4A58, symBinAddr: 0x10001BE3C, symSize: 0x28 }
  - { offsetInCU: 0x18674, offset: 0x7B188, size: 0x8, addend: 0x0, symName: __ZNKSt3__16vectorINS0_IiNS_9allocatorIiEEEENS1_IS3_EEE8capacityB8ue170006Ev, symObjAddr: 0x4A80, symBinAddr: 0x10001BE64, symSize: 0x40 }
  - { offsetInCU: 0x18699, offset: 0x7B1AD, size: 0x8, addend: 0x0, symName: __ZNSt3__16vectorINS0_IiNS_9allocatorIiEEEENS1_IS3_EEE22__base_destruct_at_endB8ue170006EPS3_, symObjAddr: 0x4AC0, symBinAddr: 0x10001BEA4, symSize: 0x8C }
  - { offsetInCU: 0x186DC, offset: 0x7B1F0, size: 0x8, addend: 0x0, symName: __ZNSt3__116allocator_traitsINS_9allocatorINS_6vectorIiNS1_IiEEEEEEE7destroyB8ue170006IS4_vEEvRS5_PT_, symObjAddr: 0x4B4C, symBinAddr: 0x10001BF30, symSize: 0x2C }
  - { offsetInCU: 0x18719, offset: 0x7B22D, size: 0x8, addend: 0x0, symName: __ZNSt3__19allocatorINS_6vectorIiNS0_IiEEEEE7destroyB8ue170006EPS3_, symObjAddr: 0x4B8C, symBinAddr: 0x10001BF70, symSize: 0x28 }
  - { offsetInCU: 0x1874C, offset: 0x7B260, size: 0x8, addend: 0x0, symName: __ZNKSt3__16vectorINS0_IiNS_9allocatorIiEEEENS1_IS3_EEE31__annotate_contiguous_containerB8ue170006EPKvS7_S7_S7_, symObjAddr: 0x4BB4, symBinAddr: 0x10001BF98, symSize: 0x20 }
  - { offsetInCU: 0x1879D, offset: 0x7B2B1, size: 0x8, addend: 0x0, symName: __ZNKSt3__16vectorINS0_IiNS_9allocatorIiEEEENS1_IS3_EEE4dataB8ue170006Ev, symObjAddr: 0x4BD4, symBinAddr: 0x10001BFB8, symSize: 0x28 }
  - { offsetInCU: 0x187C2, offset: 0x7B2D6, size: 0x8, addend: 0x0, symName: __ZNSt3__19allocatorINS_6vectorIiNS0_IiEEEEE10deallocateB8ue170006EPS3_m, symObjAddr: 0x4BFC, symBinAddr: 0x10001BFE0, symSize: 0x44 }
  - { offsetInCU: 0x18803, offset: 0x7B317, size: 0x8, addend: 0x0, symName: __ZNSt3__117__compressed_pairIPNS_6vectorIiNS_9allocatorIiEEEENS2_IS4_EEE6secondB8ue170006Ev, symObjAddr: 0x4C40, symBinAddr: 0x10001C024, symSize: 0x24 }
  - { offsetInCU: 0x18828, offset: 0x7B33C, size: 0x8, addend: 0x0, symName: __ZNSt3__122__compressed_pair_elemINS_9allocatorINS_6vectorIiNS1_IiEEEEEELi1ELb1EE5__getB8ue170006Ev, symObjAddr: 0x4C64, symBinAddr: 0x10001C048, symSize: 0x14 }
  - { offsetInCU: 0x1884D, offset: 0x7B361, size: 0x8, addend: 0x0, symName: __ZNKSt3__16vectorINS0_IiNS_9allocatorIiEEEENS1_IS3_EEE9__end_capB8ue170006Ev, symObjAddr: 0x4C78, symBinAddr: 0x10001C05C, symSize: 0x28 }
  - { offsetInCU: 0x18872, offset: 0x7B386, size: 0x8, addend: 0x0, symName: __ZNKSt3__117__compressed_pairIPNS_6vectorIiNS_9allocatorIiEEEENS2_IS4_EEE5firstB8ue170006Ev, symObjAddr: 0x4CA0, symBinAddr: 0x10001C084, symSize: 0x24 }
  - { offsetInCU: 0x18897, offset: 0x7B3AB, size: 0x8, addend: 0x0, symName: __ZNKSt3__122__compressed_pair_elemIPNS_6vectorIiNS_9allocatorIiEEEELi0ELb0EE5__getB8ue170006Ev, symObjAddr: 0x4CC4, symBinAddr: 0x10001C0A8, symSize: 0x14 }
  - { offsetInCU: 0x188BC, offset: 0x7B3D0, size: 0x8, addend: 0x0, symName: __ZNSt3__16vectorIiNS_9allocatorIiEEEC2B8ue170006Ev, symObjAddr: 0x4CD8, symBinAddr: 0x10001C0BC, symSize: 0x4C }
  - { offsetInCU: 0x188E5, offset: 0x7B3F9, size: 0x8, addend: 0x0, symName: __ZNSt3__117__compressed_pairIPiNS_9allocatorIiEEEC1B8ue170006IDnNS_18__default_init_tagEEEOT_OT0_, symObjAddr: 0x4D24, symBinAddr: 0x10001C108, symSize: 0x3C }
  - { offsetInCU: 0x1893C, offset: 0x7B450, size: 0x8, addend: 0x0, symName: __ZNSt3__117__compressed_pairIPiNS_9allocatorIiEEEC2B8ue170006IDnNS_18__default_init_tagEEEOT_OT0_, symObjAddr: 0x4D60, symBinAddr: 0x10001C144, symSize: 0x40 }
  - { offsetInCU: 0x18993, offset: 0x7B4A7, size: 0x8, addend: 0x0, symName: __ZNSt3__122__compressed_pair_elemIPiLi0ELb0EEC2B8ue170006IDnvEEOT_, symObjAddr: 0x4DA0, symBinAddr: 0x10001C184, symSize: 0x1C }
  - { offsetInCU: 0x189D4, offset: 0x7B4E8, size: 0x8, addend: 0x0, symName: __ZNSt3__122__compressed_pair_elemINS_9allocatorIiEELi1ELb1EEC2B8ue170006ENS_18__default_init_tagE, symObjAddr: 0x4DBC, symBinAddr: 0x10001C1A0, symSize: 0x2C }
  - { offsetInCU: 0x18A08, offset: 0x7B51C, size: 0x8, addend: 0x0, symName: __ZNSt3__19allocatorIiEC2B8ue170006Ev, symObjAddr: 0x4DE8, symBinAddr: 0x10001C1CC, symSize: 0x2C }
  - { offsetInCU: 0x18A31, offset: 0x7B545, size: 0x8, addend: 0x0, symName: __ZNSt3__116__non_trivial_ifILb1ENS_9allocatorIiEEEC2B8ue170006Ev, symObjAddr: 0x4E14, symBinAddr: 0x10001C1F8, symSize: 0x14 }
  - { offsetInCU: 0x18A5A, offset: 0x7B56E, size: 0x8, addend: 0x0, symName: __ZNSt3__16vectorIiNS_9allocatorIiEEED2B8ue170006Ev, symObjAddr: 0x4E28, symBinAddr: 0x10001C20C, symSize: 0x44 }
  - { offsetInCU: 0x18A83, offset: 0x7B597, size: 0x8, addend: 0x0, symName: __ZNSt3__16vectorIiNS_9allocatorIiEEE16__destroy_vectorC1B8ue170006ERS3_, symObjAddr: 0x4E6C, symBinAddr: 0x10001C250, symSize: 0x34 }
  - { offsetInCU: 0x18ABB, offset: 0x7B5CF, size: 0x8, addend: 0x0, symName: __ZNSt3__16vectorIiNS_9allocatorIiEEE16__destroy_vectorclB8ue170006Ev, symObjAddr: 0x4EA0, symBinAddr: 0x10001C284, symSize: 0x90 }
  - { offsetInCU: 0x18AE0, offset: 0x7B5F4, size: 0x8, addend: 0x0, symName: __ZNSt3__16vectorIiNS_9allocatorIiEEE16__destroy_vectorC2B8ue170006ERS3_, symObjAddr: 0x4F30, symBinAddr: 0x10001C314, symSize: 0x20 }
  - { offsetInCU: 0x18B18, offset: 0x7B62C, size: 0x8, addend: 0x0, symName: __ZNSt3__16vectorIiNS_9allocatorIiEEE7__clearB8ue170006Ev, symObjAddr: 0x4F50, symBinAddr: 0x10001C334, symSize: 0x28 }
  - { offsetInCU: 0x18B3D, offset: 0x7B651, size: 0x8, addend: 0x0, symName: __ZNKSt3__16vectorIiNS_9allocatorIiEEE17__annotate_deleteB8ue170006Ev, symObjAddr: 0x4F78, symBinAddr: 0x10001C35C, symSize: 0xB8 }
  - { offsetInCU: 0x18B62, offset: 0x7B676, size: 0x8, addend: 0x0, symName: __ZNSt3__116allocator_traitsINS_9allocatorIiEEE10deallocateB8ue170006ERS2_Pim, symObjAddr: 0x5030, symBinAddr: 0x10001C414, symSize: 0x34 }
  - { offsetInCU: 0x18BA4, offset: 0x7B6B8, size: 0x8, addend: 0x0, symName: __ZNSt3__16vectorIiNS_9allocatorIiEEE7__allocB8ue170006Ev, symObjAddr: 0x5064, symBinAddr: 0x10001C448, symSize: 0x28 }
  - { offsetInCU: 0x18BC9, offset: 0x7B6DD, size: 0x8, addend: 0x0, symName: __ZNKSt3__16vectorIiNS_9allocatorIiEEE8capacityB8ue170006Ev, symObjAddr: 0x508C, symBinAddr: 0x10001C470, symSize: 0x40 }
  - { offsetInCU: 0x18BEE, offset: 0x7B702, size: 0x8, addend: 0x0, symName: __ZNSt3__16vectorIiNS_9allocatorIiEEE22__base_destruct_at_endB8ue170006EPi, symObjAddr: 0x50CC, symBinAddr: 0x10001C4B0, symSize: 0x8C }
  - { offsetInCU: 0x18C31, offset: 0x7B745, size: 0x8, addend: 0x0, symName: __ZNSt3__116allocator_traitsINS_9allocatorIiEEE7destroyB8ue170006IivEEvRS2_PT_, symObjAddr: 0x5158, symBinAddr: 0x10001C53C, symSize: 0x2C }
  - { offsetInCU: 0x18C6E, offset: 0x7B782, size: 0x8, addend: 0x0, symName: __ZNSt3__19allocatorIiE7destroyB8ue170006EPi, symObjAddr: 0x5198, symBinAddr: 0x10001C57C, symSize: 0x14 }
  - { offsetInCU: 0x18CA1, offset: 0x7B7B5, size: 0x8, addend: 0x0, symName: __ZNKSt3__16vectorIiNS_9allocatorIiEEE31__annotate_contiguous_containerB8ue170006EPKvS5_S5_S5_, symObjAddr: 0x51AC, symBinAddr: 0x10001C590, symSize: 0x20 }
  - { offsetInCU: 0x18CF2, offset: 0x7B806, size: 0x8, addend: 0x0, symName: __ZNKSt3__16vectorIiNS_9allocatorIiEEE4dataB8ue170006Ev, symObjAddr: 0x51CC, symBinAddr: 0x10001C5B0, symSize: 0x28 }
  - { offsetInCU: 0x18D17, offset: 0x7B82B, size: 0x8, addend: 0x0, symName: __ZNSt3__19allocatorIiE10deallocateB8ue170006EPim, symObjAddr: 0x51F4, symBinAddr: 0x10001C5D8, symSize: 0x40 }
  - { offsetInCU: 0x18D58, offset: 0x7B86C, size: 0x8, addend: 0x0, symName: __ZNSt3__117__compressed_pairIPiNS_9allocatorIiEEE6secondB8ue170006Ev, symObjAddr: 0x5234, symBinAddr: 0x10001C618, symSize: 0x24 }
  - { offsetInCU: 0x18D7D, offset: 0x7B891, size: 0x8, addend: 0x0, symName: __ZNSt3__122__compressed_pair_elemINS_9allocatorIiEELi1ELb1EE5__getB8ue170006Ev, symObjAddr: 0x5258, symBinAddr: 0x10001C63C, symSize: 0x14 }
  - { offsetInCU: 0x18DA2, offset: 0x7B8B6, size: 0x8, addend: 0x0, symName: __ZNKSt3__16vectorIiNS_9allocatorIiEEE9__end_capB8ue170006Ev, symObjAddr: 0x526C, symBinAddr: 0x10001C650, symSize: 0x28 }
  - { offsetInCU: 0x18DC7, offset: 0x7B8DB, size: 0x8, addend: 0x0, symName: __ZNKSt3__117__compressed_pairIPiNS_9allocatorIiEEE5firstB8ue170006Ev, symObjAddr: 0x5294, symBinAddr: 0x10001C678, symSize: 0x24 }
  - { offsetInCU: 0x18DEC, offset: 0x7B900, size: 0x8, addend: 0x0, symName: __ZNKSt3__122__compressed_pair_elemIPiLi0ELb0EE5__getB8ue170006Ev, symObjAddr: 0x52B8, symBinAddr: 0x10001C69C, symSize: 0x14 }
  - { offsetInCU: 0x18E11, offset: 0x7B925, size: 0x8, addend: 0x0, symName: __ZNSt3__16vectorIiNS_9allocatorIiEEE9__end_capB8ue170006Ev, symObjAddr: 0x52CC, symBinAddr: 0x10001C6B0, symSize: 0x28 }
  - { offsetInCU: 0x18E3B, offset: 0x7B94F, size: 0x8, addend: 0x0, symName: __ZNSt3__16vectorIiNS_9allocatorIiEEE22__construct_one_at_endB8ue170006IJiEEEvDpOT_, symObjAddr: 0x52F4, symBinAddr: 0x10001C6D8, symSize: 0x90 }
  - { offsetInCU: 0x18E89, offset: 0x7B99D, size: 0x8, addend: 0x0, symName: __ZNSt3__16vectorIiNS_9allocatorIiEEE21__push_back_slow_pathIiEEvOT_, symObjAddr: 0x5384, symBinAddr: 0x10001C768, symSize: 0xD8 }
  - { offsetInCU: 0x18EE5, offset: 0x7B9F9, size: 0x8, addend: 0x0, symName: __ZNSt3__117__compressed_pairIPiNS_9allocatorIiEEE5firstB8ue170006Ev, symObjAddr: 0x545C, symBinAddr: 0x10001C840, symSize: 0x24 }
  - { offsetInCU: 0x18F0A, offset: 0x7BA1E, size: 0x8, addend: 0x0, symName: __ZNSt3__122__compressed_pair_elemIPiLi0ELb0EE5__getB8ue170006Ev, symObjAddr: 0x5480, symBinAddr: 0x10001C864, symSize: 0x14 }
  - { offsetInCU: 0x18F48, offset: 0x7BA5C, size: 0x8, addend: 0x0, symName: __ZNSt3__16vectorIiNS_9allocatorIiEEE21_ConstructTransactionC1B8ue170006ERS3_m, symObjAddr: 0x5494, symBinAddr: 0x10001C878, symSize: 0x3C }
  - { offsetInCU: 0x18F8F, offset: 0x7BAA3, size: 0x8, addend: 0x0, symName: __ZNSt3__116allocator_traitsINS_9allocatorIiEEE9constructB8ue170006IiJiEvEEvRS2_PT_DpOT0_, symObjAddr: 0x54D0, symBinAddr: 0x10001C8B4, symSize: 0x34 }
  - { offsetInCU: 0x18FE6, offset: 0x7BAFA, size: 0x8, addend: 0x0, symName: __ZNSt3__16vectorIiNS_9allocatorIiEEE21_ConstructTransactionD1B8ue170006Ev, symObjAddr: 0x5504, symBinAddr: 0x10001C8E8, symSize: 0x2C }
  - { offsetInCU: 0x1900F, offset: 0x7BB23, size: 0x8, addend: 0x0, symName: __ZNSt3__16vectorIiNS_9allocatorIiEEE21_ConstructTransactionC2B8ue170006ERS3_m, symObjAddr: 0x5530, symBinAddr: 0x10001C914, symSize: 0x44 }
  - { offsetInCU: 0x19056, offset: 0x7BB6A, size: 0x8, addend: 0x0, symName: __ZNSt3__19allocatorIiE9constructB8ue170006IiJiEEEvPT_DpOT0_, symObjAddr: 0x5574, symBinAddr: 0x10001C958, symSize: 0x28 }
  - { offsetInCU: 0x190AB, offset: 0x7BBBF, size: 0x8, addend: 0x0, symName: __ZNSt3__16vectorIiNS_9allocatorIiEEE21_ConstructTransactionD2B8ue170006Ev, symObjAddr: 0x559C, symBinAddr: 0x10001C980, symSize: 0x20 }
  - { offsetInCU: 0x190D4, offset: 0x7BBE8, size: 0x8, addend: 0x0, symName: __ZNKSt3__16vectorIiNS_9allocatorIiEEE11__recommendB8ue170006Em, symObjAddr: 0x55BC, symBinAddr: 0x10001C9A0, symSize: 0xB4 }
  - { offsetInCU: 0x19127, offset: 0x7BC3B, size: 0x8, addend: 0x0, symName: __ZNSt3__114__split_bufferIiRNS_9allocatorIiEEEC1EmmS3_, symObjAddr: 0x5670, symBinAddr: 0x10001CA54, symSize: 0x44 }
  - { offsetInCU: 0x1917C, offset: 0x7BC90, size: 0x8, addend: 0x0, symName: __ZNSt3__114__split_bufferIiRNS_9allocatorIiEEED1Ev, symObjAddr: 0x57C4, symBinAddr: 0x10001CBA8, symSize: 0x2C }
  - { offsetInCU: 0x191A7, offset: 0x7BCBB, size: 0x8, addend: 0x0, symName: __ZNKSt3__16vectorIiNS_9allocatorIiEEE8max_sizeEv, symObjAddr: 0x57F0, symBinAddr: 0x10001CBD4, symSize: 0x60 }
  - { offsetInCU: 0x191CD, offset: 0x7BCE1, size: 0x8, addend: 0x0, symName: __ZNKSt3__16vectorIiNS_9allocatorIiEEE20__throw_length_errorB8ue170006Ev, symObjAddr: 0x5850, symBinAddr: 0x10001CC34, symSize: 0x1C }
  - { offsetInCU: 0x191FC, offset: 0x7BD10, size: 0x8, addend: 0x0, symName: __ZNSt3__116allocator_traitsINS_9allocatorIiEEE8max_sizeB8ue170006IS2_vEEmRKS2_, symObjAddr: 0x586C, symBinAddr: 0x10001CC50, symSize: 0x24 }
  - { offsetInCU: 0x1922A, offset: 0x7BD3E, size: 0x8, addend: 0x0, symName: __ZNKSt3__16vectorIiNS_9allocatorIiEEE7__allocB8ue170006Ev, symObjAddr: 0x5890, symBinAddr: 0x10001CC74, symSize: 0x28 }
  - { offsetInCU: 0x1924F, offset: 0x7BD63, size: 0x8, addend: 0x0, symName: __ZNKSt3__19allocatorIiE8max_sizeB8ue170006Ev, symObjAddr: 0x58B8, symBinAddr: 0x10001CC9C, symSize: 0x14 }
  - { offsetInCU: 0x19274, offset: 0x7BD88, size: 0x8, addend: 0x0, symName: __ZNKSt3__117__compressed_pairIPiNS_9allocatorIiEEE6secondB8ue170006Ev, symObjAddr: 0x58CC, symBinAddr: 0x10001CCB0, symSize: 0x24 }
  - { offsetInCU: 0x19299, offset: 0x7BDAD, size: 0x8, addend: 0x0, symName: __ZNKSt3__122__compressed_pair_elemINS_9allocatorIiEELi1ELb1EE5__getB8ue170006Ev, symObjAddr: 0x58F0, symBinAddr: 0x10001CCD4, symSize: 0x14 }
  - { offsetInCU: 0x192BE, offset: 0x7BDD2, size: 0x8, addend: 0x0, symName: __ZNSt3__114__split_bufferIiRNS_9allocatorIiEEEC2EmmS3_, symObjAddr: 0x5904, symBinAddr: 0x10001CCE8, symSize: 0xD4 }
  - { offsetInCU: 0x19330, offset: 0x7BE44, size: 0x8, addend: 0x0, symName: __ZNSt3__117__compressed_pairIPiRNS_9allocatorIiEEEC1B8ue170006IDnS4_EEOT_OT0_, symObjAddr: 0x59D8, symBinAddr: 0x10001CDBC, symSize: 0x3C }
  - { offsetInCU: 0x19387, offset: 0x7BE9B, size: 0x8, addend: 0x0, symName: __ZNSt3__114__split_bufferIiRNS_9allocatorIiEEE7__allocB8ue170006Ev, symObjAddr: 0x5A54, symBinAddr: 0x10001CE38, symSize: 0x28 }
  - { offsetInCU: 0x193AC, offset: 0x7BEC0, size: 0x8, addend: 0x0, symName: __ZNSt3__114__split_bufferIiRNS_9allocatorIiEEE9__end_capB8ue170006Ev, symObjAddr: 0x5A7C, symBinAddr: 0x10001CE60, symSize: 0x28 }
  - { offsetInCU: 0x193D1, offset: 0x7BEE5, size: 0x8, addend: 0x0, symName: __ZNSt3__117__compressed_pairIPiRNS_9allocatorIiEEEC2B8ue170006IDnS4_EEOT_OT0_, symObjAddr: 0x5AA4, symBinAddr: 0x10001CE88, symSize: 0x48 }
  - { offsetInCU: 0x19428, offset: 0x7BF3C, size: 0x8, addend: 0x0, symName: __ZNSt3__122__compressed_pair_elemIRNS_9allocatorIiEELi1ELb0EEC2B8ue170006IS3_vEEOT_, symObjAddr: 0x5AEC, symBinAddr: 0x10001CED0, symSize: 0x20 }
  - { offsetInCU: 0x19469, offset: 0x7BF7D, size: 0x8, addend: 0x0, symName: __ZNSt3__19allocatorIiE8allocateB8ue170006Em, symObjAddr: 0x5B0C, symBinAddr: 0x10001CEF0, symSize: 0x58 }
  - { offsetInCU: 0x1949C, offset: 0x7BFB0, size: 0x8, addend: 0x0, symName: __ZNSt3__117__compressed_pairIPiRNS_9allocatorIiEEE6secondB8ue170006Ev, symObjAddr: 0x5B64, symBinAddr: 0x10001CF48, symSize: 0x28 }
  - { offsetInCU: 0x194C1, offset: 0x7BFD5, size: 0x8, addend: 0x0, symName: __ZNSt3__122__compressed_pair_elemIRNS_9allocatorIiEELi1ELb0EE5__getB8ue170006Ev, symObjAddr: 0x5B8C, symBinAddr: 0x10001CF70, symSize: 0x18 }
  - { offsetInCU: 0x194E6, offset: 0x7BFFA, size: 0x8, addend: 0x0, symName: __ZNSt3__117__compressed_pairIPiRNS_9allocatorIiEEE5firstB8ue170006Ev, symObjAddr: 0x5BA4, symBinAddr: 0x10001CF88, symSize: 0x24 }
  - { offsetInCU: 0x1950B, offset: 0x7C01F, size: 0x8, addend: 0x0, symName: __ZNSt3__116reverse_iteratorIPiEC1B8ue170006ES1_, symObjAddr: 0x5C40, symBinAddr: 0x10001D024, symSize: 0x34 }
  - { offsetInCU: 0x19542, offset: 0x7C056, size: 0x8, addend: 0x0, symName: __ZNKSt3__116reverse_iteratorIPiE4baseB8ue170006Ev, symObjAddr: 0x5C74, symBinAddr: 0x10001D058, symSize: 0x18 }
  - { offsetInCU: 0x19567, offset: 0x7C07B, size: 0x8, addend: 0x0, symName: __ZNKSt3__16vectorIiNS_9allocatorIiEEE14__annotate_newB8ue170006Em, symObjAddr: 0x5CC8, symBinAddr: 0x10001D0AC, symSize: 0xAC }
  - { offsetInCU: 0x195BE, offset: 0x7C0D2, size: 0x8, addend: 0x0, symName: __ZNKSt3__111__move_loopINS_17_ClassicAlgPolicyEEclB8ue170006INS_16reverse_iteratorIPiEES6_S6_EENS_4pairIT_T1_EES8_T0_S9_, symObjAddr: 0x6064, symBinAddr: 0x10001D448, symSize: 0xA0 }
  - { offsetInCU: 0x19628, offset: 0x7C13C, size: 0x8, addend: 0x0, symName: __ZNSt3__18_IterOpsINS_17_ClassicAlgPolicyEE11__iter_moveB8ue170006IRNS_16reverse_iteratorIPiEEEENS_9enable_ifIXsr12is_referenceIDTdeclsr3stdE7declvalIRT_EEEEE5valueEDTclsr3stdE4movedeclsr3stdE7declvalISA_EEEEE4typeEOS9_, symObjAddr: 0x6298, symBinAddr: 0x10001D67C, symSize: 0x28 }
  - { offsetInCU: 0x19654, offset: 0x7C168, size: 0x8, addend: 0x0, symName: __ZNKSt3__116reverse_iteratorIPiEdeB8ue170006Ev, symObjAddr: 0x62C0, symBinAddr: 0x10001D6A4, symSize: 0x28 }
  - { offsetInCU: 0x19687, offset: 0x7C19B, size: 0x8, addend: 0x0, symName: __ZNSt3__116reverse_iteratorIPiEppB8ue170006Ev, symObjAddr: 0x62E8, symBinAddr: 0x10001D6CC, symSize: 0x20 }
  - { offsetInCU: 0x196AC, offset: 0x7C1C0, size: 0x8, addend: 0x0, symName: __ZNSt3__18_IterOpsINS_17_ClassicAlgPolicyEE25__validate_iter_referenceB8ue170006IRNS_16reverse_iteratorIPiEEEEvv, symObjAddr: 0x6308, symBinAddr: 0x10001D6EC, symSize: 0x4 }
  - { offsetInCU: 0x196CA, offset: 0x7C1DE, size: 0x8, addend: 0x0, symName: __ZNSt3__118__unwrap_iter_implINS_16reverse_iteratorIPiEELb0EE8__unwrapB8ue170006ES3_, symObjAddr: 0x630C, symBinAddr: 0x10001D6F0, symSize: 0x24 }
  - { offsetInCU: 0x196F2, offset: 0x7C206, size: 0x8, addend: 0x0, symName: __ZNSt3__14pairINS_16reverse_iteratorIPiEES3_EC1B8ue170006IS3_S3_LPv0EEEOT_OT0_, symObjAddr: 0x6330, symBinAddr: 0x10001D714, symSize: 0x3C }
  - { offsetInCU: 0x1974F, offset: 0x7C263, size: 0x8, addend: 0x0, symName: __ZNSt3__14pairINS_16reverse_iteratorIPiEES3_EC2B8ue170006IS3_S3_LPv0EEEOT_OT0_, symObjAddr: 0x636C, symBinAddr: 0x10001D750, symSize: 0x34 }
  - { offsetInCU: 0x197AC, offset: 0x7C2C0, size: 0x8, addend: 0x0, symName: __ZNSt3__118__unwrap_iter_implINS_16reverse_iteratorIPiEELb0EE8__rewrapB8ue170006ES3_S3_, symObjAddr: 0x63A0, symBinAddr: 0x10001D784, symSize: 0x2C }
  - { offsetInCU: 0x197DA, offset: 0x7C2EE, size: 0x8, addend: 0x0, symName: __ZNSt3__116reverse_iteratorIPiEC2B8ue170006ES1_, symObjAddr: 0x63CC, symBinAddr: 0x10001D7B0, symSize: 0x28 }
  - { offsetInCU: 0x19811, offset: 0x7C325, size: 0x8, addend: 0x0, symName: __ZNSt3__114__split_bufferIiRNS_9allocatorIiEEED2Ev, symObjAddr: 0x63F4, symBinAddr: 0x10001D7D8, symSize: 0x8C }
  - { offsetInCU: 0x1983C, offset: 0x7C350, size: 0x8, addend: 0x0, symName: __ZNSt3__114__split_bufferIiRNS_9allocatorIiEEE5clearB8ue170006Ev, symObjAddr: 0x6480, symBinAddr: 0x10001D864, symSize: 0x28 }
  - { offsetInCU: 0x19861, offset: 0x7C375, size: 0x8, addend: 0x0, symName: __ZNKSt3__114__split_bufferIiRNS_9allocatorIiEEE8capacityB8ue170006Ev, symObjAddr: 0x64A8, symBinAddr: 0x10001D88C, symSize: 0x40 }
  - { offsetInCU: 0x19886, offset: 0x7C39A, size: 0x8, addend: 0x0, symName: __ZNSt3__114__split_bufferIiRNS_9allocatorIiEEE17__destruct_at_endB8ue170006EPi, symObjAddr: 0x64E8, symBinAddr: 0x10001D8CC, symSize: 0x2C }
  - { offsetInCU: 0x198B9, offset: 0x7C3CD, size: 0x8, addend: 0x0, symName: __ZNSt3__114__split_bufferIiRNS_9allocatorIiEEE17__destruct_at_endB8ue170006EPiNS_17integral_constantIbLb0EEE, symObjAddr: 0x6514, symBinAddr: 0x10001D8F8, symSize: 0x80 }
  - { offsetInCU: 0x198F8, offset: 0x7C40C, size: 0x8, addend: 0x0, symName: __ZNKSt3__114__split_bufferIiRNS_9allocatorIiEEE9__end_capB8ue170006Ev, symObjAddr: 0x6594, symBinAddr: 0x10001D978, symSize: 0x28 }
  - { offsetInCU: 0x1991D, offset: 0x7C431, size: 0x8, addend: 0x0, symName: __ZNKSt3__117__compressed_pairIPiRNS_9allocatorIiEEE5firstB8ue170006Ev, symObjAddr: 0x65BC, symBinAddr: 0x10001D9A0, symSize: 0x24 }
  - { offsetInCU: 0x19942, offset: 0x7C456, size: 0x8, addend: 0x0, symName: __ZNSt3__16vectorINS0_IiNS_9allocatorIiEEEENS1_IS3_EEE9__end_capB8ue170006Ev, symObjAddr: 0x65E0, symBinAddr: 0x10001D9C4, symSize: 0x28 }
  - { offsetInCU: 0x19967, offset: 0x7C47B, size: 0x8, addend: 0x0, symName: __ZNSt3__16vectorINS0_IiNS_9allocatorIiEEEENS1_IS3_EEE22__construct_one_at_endB8ue170006IJRKS3_EEEvDpOT_, symObjAddr: 0x6608, symBinAddr: 0x10001D9EC, symSize: 0x90 }
  - { offsetInCU: 0x199B5, offset: 0x7C4C9, size: 0x8, addend: 0x0, symName: __ZNSt3__16vectorINS0_IiNS_9allocatorIiEEEENS1_IS3_EEE21__push_back_slow_pathIRKS3_EEvOT_, symObjAddr: 0x6698, symBinAddr: 0x10001DA7C, symSize: 0xD8 }
  - { offsetInCU: 0x19A11, offset: 0x7C525, size: 0x8, addend: 0x0, symName: __ZNSt3__117__compressed_pairIPNS_6vectorIiNS_9allocatorIiEEEENS2_IS4_EEE5firstB8ue170006Ev, symObjAddr: 0x6770, symBinAddr: 0x10001DB54, symSize: 0x24 }
  - { offsetInCU: 0x19A36, offset: 0x7C54A, size: 0x8, addend: 0x0, symName: __ZNSt3__122__compressed_pair_elemIPNS_6vectorIiNS_9allocatorIiEEEELi0ELb0EE5__getB8ue170006Ev, symObjAddr: 0x6794, symBinAddr: 0x10001DB78, symSize: 0x14 }
  - { offsetInCU: 0x19A74, offset: 0x7C588, size: 0x8, addend: 0x0, symName: __ZNSt3__16vectorINS0_IiNS_9allocatorIiEEEENS1_IS3_EEE21_ConstructTransactionC1B8ue170006ERS5_m, symObjAddr: 0x67A8, symBinAddr: 0x10001DB8C, symSize: 0x3C }
  - { offsetInCU: 0x19ABB, offset: 0x7C5CF, size: 0x8, addend: 0x0, symName: __ZNSt3__116allocator_traitsINS_9allocatorINS_6vectorIiNS1_IiEEEEEEE9constructB8ue170006IS4_JRKS4_EvEEvRS5_PT_DpOT0_, symObjAddr: 0x67E4, symBinAddr: 0x10001DBC8, symSize: 0x34 }
  - { offsetInCU: 0x19B12, offset: 0x7C626, size: 0x8, addend: 0x0, symName: __ZNSt3__16vectorINS0_IiNS_9allocatorIiEEEENS1_IS3_EEE21_ConstructTransactionD1B8ue170006Ev, symObjAddr: 0x6818, symBinAddr: 0x10001DBFC, symSize: 0x2C }
  - { offsetInCU: 0x19B3B, offset: 0x7C64F, size: 0x8, addend: 0x0, symName: __ZNSt3__16vectorINS0_IiNS_9allocatorIiEEEENS1_IS3_EEE21_ConstructTransactionC2B8ue170006ERS5_m, symObjAddr: 0x6844, symBinAddr: 0x10001DC28, symSize: 0x4C }
  - { offsetInCU: 0x19B82, offset: 0x7C696, size: 0x8, addend: 0x0, symName: __ZNSt3__19allocatorINS_6vectorIiNS0_IiEEEEE9constructB8ue170006IS3_JRKS3_EEEvPT_DpOT0_, symObjAddr: 0x6890, symBinAddr: 0x10001DC74, symSize: 0x30 }
  - { offsetInCU: 0x19BD7, offset: 0x7C6EB, size: 0x8, addend: 0x0, symName: __ZNSt3__16vectorIiNS_9allocatorIiEEEC1ERKS3_, symObjAddr: 0x68C0, symBinAddr: 0x10001DCA4, symSize: 0x34 }
  - { offsetInCU: 0x19C11, offset: 0x7C725, size: 0x8, addend: 0x0, symName: __ZNSt3__16vectorIiNS_9allocatorIiEEEC2ERKS3_, symObjAddr: 0x68F4, symBinAddr: 0x10001DCD8, symSize: 0x94 }
  - { offsetInCU: 0x19C4B, offset: 0x7C75F, size: 0x8, addend: 0x0, symName: __ZNSt3__116allocator_traitsINS_9allocatorIiEEE37select_on_container_copy_constructionB8ue170006IS2_vvEES2_RKS2_, symObjAddr: 0x6988, symBinAddr: 0x10001DD6C, symSize: 0x10 }
  - { offsetInCU: 0x19C7F, offset: 0x7C793, size: 0x8, addend: 0x0, symName: __ZNSt3__117__compressed_pairIPiNS_9allocatorIiEEEC1B8ue170006IDnS3_EEOT_OT0_, symObjAddr: 0x6998, symBinAddr: 0x10001DD7C, symSize: 0x3C }
  - { offsetInCU: 0x19CD6, offset: 0x7C7EA, size: 0x8, addend: 0x0, symName: __ZNSt3__16vectorIiNS_9allocatorIiEEE16__init_with_sizeB8ue170006IPiS5_EEvT_T0_m, symObjAddr: 0x69D4, symBinAddr: 0x10001DDB8, symSize: 0xB8 }
  - { offsetInCU: 0x19D49, offset: 0x7C85D, size: 0x8, addend: 0x0, symName: __ZNSt3__117__compressed_pairIPiNS_9allocatorIiEEEC2B8ue170006IDnS3_EEOT_OT0_, symObjAddr: 0x6A8C, symBinAddr: 0x10001DE70, symSize: 0x44 }
  - { offsetInCU: 0x19DA0, offset: 0x7C8B4, size: 0x8, addend: 0x0, symName: __ZNSt3__122__compressed_pair_elemINS_9allocatorIiEELi1ELb1EEC2B8ue170006IS2_vEEOT_, symObjAddr: 0x6AD0, symBinAddr: 0x10001DEB4, symSize: 0x18 }
  - { offsetInCU: 0x19DE1, offset: 0x7C8F5, size: 0x8, addend: 0x0, symName: __ZNSt3__16vectorIiNS_9allocatorIiEEE11__vallocateB8ue170006Em, symObjAddr: 0x6B28, symBinAddr: 0x10001DF0C, symSize: 0xAC }
  - { offsetInCU: 0x19E24, offset: 0x7C938, size: 0x8, addend: 0x0, symName: __ZNSt3__16vectorIiNS_9allocatorIiEEE18__construct_at_endIPiS5_EEvT_T0_m, symObjAddr: 0x6BD4, symBinAddr: 0x10001DFB8, symSize: 0x8C }
  - { offsetInCU: 0x19E98, offset: 0x7C9AC, size: 0x8, addend: 0x0, symName: __ZNSt3__128__exception_guard_exceptionsINS_6vectorIiNS_9allocatorIiEEE16__destroy_vectorEE10__completeB8ue170006Ev, symObjAddr: 0x6C60, symBinAddr: 0x10001E044, symSize: 0x1C }
  - { offsetInCU: 0x19EBD, offset: 0x7C9D1, size: 0x8, addend: 0x0, symName: __ZNSt3__128__exception_guard_exceptionsINS_6vectorIiNS_9allocatorIiEEE16__destroy_vectorEED1B8ue170006Ev, symObjAddr: 0x6C7C, symBinAddr: 0x10001E060, symSize: 0x2C }
  - { offsetInCU: 0x19EE6, offset: 0x7C9FA, size: 0x8, addend: 0x0, symName: __ZNSt3__128__exception_guard_exceptionsINS_6vectorIiNS_9allocatorIiEEE16__destroy_vectorEEC1B8ue170006ES5_, symObjAddr: 0x6CA8, symBinAddr: 0x10001E08C, symSize: 0x34 }
  - { offsetInCU: 0x19F1D, offset: 0x7CA31, size: 0x8, addend: 0x0, symName: __ZNSt3__128__exception_guard_exceptionsINS_6vectorIiNS_9allocatorIiEEE16__destroy_vectorEEC2B8ue170006ES5_, symObjAddr: 0x6CDC, symBinAddr: 0x10001E0C0, symSize: 0x24 }
  - { offsetInCU: 0x19F72, offset: 0x7CA86, size: 0x8, addend: 0x0, symName: __ZNSt3__14pairIPiS1_EC1B8ue170006IS1_S1_LPv0EEEOT_OT0_, symObjAddr: 0x6EB0, symBinAddr: 0x10001E294, symSize: 0x3C }
  - { offsetInCU: 0x19FCF, offset: 0x7CAE3, size: 0x8, addend: 0x0, symName: __ZNSt3__14pairIPiS1_EC2B8ue170006IS1_S1_LPv0EEEOT_OT0_, symObjAddr: 0x6EEC, symBinAddr: 0x10001E2D0, symSize: 0x34 }
  - { offsetInCU: 0x1A036, offset: 0x7CB4A, size: 0x8, addend: 0x0, symName: __ZNKSt3__114__copy_trivialclB8ue170006IiiLi0EEENS_4pairIPT_PT0_EES4_S4_S6_, symObjAddr: 0x709C, symBinAddr: 0x10001E480, symSize: 0x48 }
  - { offsetInCU: 0x1A09D, offset: 0x7CBB1, size: 0x8, addend: 0x0, symName: __ZNSt3__14pairIPiS1_EC1B8ue170006IRS1_S1_LPv0EEEOT_OT0_, symObjAddr: 0x722C, symBinAddr: 0x10001E610, symSize: 0x3C }
  - { offsetInCU: 0x1A0FA, offset: 0x7CC0E, size: 0x8, addend: 0x0, symName: __ZNSt3__14pairIPiS1_EC2B8ue170006IRS1_S1_LPv0EEEOT_OT0_, symObjAddr: 0x7268, symBinAddr: 0x10001E64C, symSize: 0x34 }
  - { offsetInCU: 0x1A157, offset: 0x7CC6B, size: 0x8, addend: 0x0, symName: __ZNSt3__118__unwrap_iter_implIPiLb1EE8__unwrapB8ue170006ES1_, symObjAddr: 0x729C, symBinAddr: 0x10001E680, symSize: 0x24 }
  - { offsetInCU: 0x1A17A, offset: 0x7CC8E, size: 0x8, addend: 0x0, symName: __ZNSt3__118__unwrap_iter_implIPiLb1EE8__rewrapB8ue170006ES1_S1_, symObjAddr: 0x72C0, symBinAddr: 0x10001E6A4, symSize: 0x50 }
  - { offsetInCU: 0x1A1AB, offset: 0x7CCBF, size: 0x8, addend: 0x0, symName: __ZNSt3__128__exception_guard_exceptionsINS_6vectorIiNS_9allocatorIiEEE16__destroy_vectorEED2B8ue170006Ev, symObjAddr: 0x7310, symBinAddr: 0x10001E6F4, symSize: 0x48 }
  - { offsetInCU: 0x1A1D4, offset: 0x7CCE8, size: 0x8, addend: 0x0, symName: __ZNSt3__16vectorINS0_IiNS_9allocatorIiEEEENS1_IS3_EEE21_ConstructTransactionD2B8ue170006Ev, symObjAddr: 0x7358, symBinAddr: 0x10001E73C, symSize: 0x20 }
  - { offsetInCU: 0x1A1FD, offset: 0x7CD11, size: 0x8, addend: 0x0, symName: __ZNKSt3__16vectorINS0_IiNS_9allocatorIiEEEENS1_IS3_EEE11__recommendB8ue170006Em, symObjAddr: 0x7378, symBinAddr: 0x10001E75C, symSize: 0xB4 }
  - { offsetInCU: 0x1A250, offset: 0x7CD64, size: 0x8, addend: 0x0, symName: __ZNSt3__114__split_bufferINS_6vectorIiNS_9allocatorIiEEEERNS2_IS4_EEEC1EmmS6_, symObjAddr: 0x742C, symBinAddr: 0x10001E810, symSize: 0x44 }
  - { offsetInCU: 0x1A2A5, offset: 0x7CDB9, size: 0x8, addend: 0x0, symName: __ZNSt3__114__split_bufferINS_6vectorIiNS_9allocatorIiEEEERNS2_IS4_EEED1Ev, symObjAddr: 0x7580, symBinAddr: 0x10001E964, symSize: 0x2C }
  - { offsetInCU: 0x1A2D0, offset: 0x7CDE4, size: 0x8, addend: 0x0, symName: __ZNKSt3__16vectorINS0_IiNS_9allocatorIiEEEENS1_IS3_EEE8max_sizeEv, symObjAddr: 0x75AC, symBinAddr: 0x10001E990, symSize: 0x60 }
  - { offsetInCU: 0x1A2F6, offset: 0x7CE0A, size: 0x8, addend: 0x0, symName: __ZNKSt3__16vectorINS0_IiNS_9allocatorIiEEEENS1_IS3_EEE20__throw_length_errorB8ue170006Ev, symObjAddr: 0x760C, symBinAddr: 0x10001E9F0, symSize: 0x1C }
  - { offsetInCU: 0x1A325, offset: 0x7CE39, size: 0x8, addend: 0x0, symName: __ZNSt3__116allocator_traitsINS_9allocatorINS_6vectorIiNS1_IiEEEEEEE8max_sizeB8ue170006IS5_vEEmRKS5_, symObjAddr: 0x7628, symBinAddr: 0x10001EA0C, symSize: 0x24 }
  - { offsetInCU: 0x1A353, offset: 0x7CE67, size: 0x8, addend: 0x0, symName: __ZNKSt3__16vectorINS0_IiNS_9allocatorIiEEEENS1_IS3_EEE7__allocB8ue170006Ev, symObjAddr: 0x764C, symBinAddr: 0x10001EA30, symSize: 0x28 }
  - { offsetInCU: 0x1A378, offset: 0x7CE8C, size: 0x8, addend: 0x0, symName: __ZNKSt3__19allocatorINS_6vectorIiNS0_IiEEEEE8max_sizeB8ue170006Ev, symObjAddr: 0x7674, symBinAddr: 0x10001EA58, symSize: 0x18 }
  - { offsetInCU: 0x1A39D, offset: 0x7CEB1, size: 0x8, addend: 0x0, symName: __ZNKSt3__117__compressed_pairIPNS_6vectorIiNS_9allocatorIiEEEENS2_IS4_EEE6secondB8ue170006Ev, symObjAddr: 0x768C, symBinAddr: 0x10001EA70, symSize: 0x24 }
  - { offsetInCU: 0x1A3C2, offset: 0x7CED6, size: 0x8, addend: 0x0, symName: __ZNKSt3__122__compressed_pair_elemINS_9allocatorINS_6vectorIiNS1_IiEEEEEELi1ELb1EE5__getB8ue170006Ev, symObjAddr: 0x76B0, symBinAddr: 0x10001EA94, symSize: 0x14 }
  - { offsetInCU: 0x1A3E7, offset: 0x7CEFB, size: 0x8, addend: 0x0, symName: __ZNSt3__114__split_bufferINS_6vectorIiNS_9allocatorIiEEEERNS2_IS4_EEEC2EmmS6_, symObjAddr: 0x76C4, symBinAddr: 0x10001EAA8, symSize: 0xE0 }
  - { offsetInCU: 0x1A459, offset: 0x7CF6D, size: 0x8, addend: 0x0, symName: __ZNSt3__117__compressed_pairIPNS_6vectorIiNS_9allocatorIiEEEERNS2_IS4_EEEC1B8ue170006IDnS7_EEOT_OT0_, symObjAddr: 0x77A4, symBinAddr: 0x10001EB88, symSize: 0x3C }
  - { offsetInCU: 0x1A4B0, offset: 0x7CFC4, size: 0x8, addend: 0x0, symName: __ZNSt3__114__split_bufferINS_6vectorIiNS_9allocatorIiEEEERNS2_IS4_EEE7__allocB8ue170006Ev, symObjAddr: 0x7820, symBinAddr: 0x10001EC04, symSize: 0x28 }
  - { offsetInCU: 0x1A4D5, offset: 0x7CFE9, size: 0x8, addend: 0x0, symName: __ZNSt3__114__split_bufferINS_6vectorIiNS_9allocatorIiEEEERNS2_IS4_EEE9__end_capB8ue170006Ev, symObjAddr: 0x7848, symBinAddr: 0x10001EC2C, symSize: 0x28 }
  - { offsetInCU: 0x1A4FA, offset: 0x7D00E, size: 0x8, addend: 0x0, symName: __ZNSt3__117__compressed_pairIPNS_6vectorIiNS_9allocatorIiEEEERNS2_IS4_EEEC2B8ue170006IDnS7_EEOT_OT0_, symObjAddr: 0x7870, symBinAddr: 0x10001EC54, symSize: 0x48 }
  - { offsetInCU: 0x1A551, offset: 0x7D065, size: 0x8, addend: 0x0, symName: __ZNSt3__122__compressed_pair_elemIRNS_9allocatorINS_6vectorIiNS1_IiEEEEEELi1ELb0EEC2B8ue170006IS6_vEEOT_, symObjAddr: 0x78B8, symBinAddr: 0x10001EC9C, symSize: 0x20 }
  - { offsetInCU: 0x1A592, offset: 0x7D0A6, size: 0x8, addend: 0x0, symName: __ZNSt3__19allocatorINS_6vectorIiNS0_IiEEEEE8allocateB8ue170006Em, symObjAddr: 0x78D8, symBinAddr: 0x10001ECBC, symSize: 0x5C }
  - { offsetInCU: 0x1A5C5, offset: 0x7D0D9, size: 0x8, addend: 0x0, symName: __ZNSt3__117__compressed_pairIPNS_6vectorIiNS_9allocatorIiEEEERNS2_IS4_EEE6secondB8ue170006Ev, symObjAddr: 0x7934, symBinAddr: 0x10001ED18, symSize: 0x28 }
  - { offsetInCU: 0x1A5EA, offset: 0x7D0FE, size: 0x8, addend: 0x0, symName: __ZNSt3__122__compressed_pair_elemIRNS_9allocatorINS_6vectorIiNS1_IiEEEEEELi1ELb0EE5__getB8ue170006Ev, symObjAddr: 0x795C, symBinAddr: 0x10001ED40, symSize: 0x18 }
  - { offsetInCU: 0x1A60F, offset: 0x7D123, size: 0x8, addend: 0x0, symName: __ZNSt3__117__compressed_pairIPNS_6vectorIiNS_9allocatorIiEEEERNS2_IS4_EEE5firstB8ue170006Ev, symObjAddr: 0x7974, symBinAddr: 0x10001ED58, symSize: 0x24 }
  - { offsetInCU: 0x1A634, offset: 0x7D148, size: 0x8, addend: 0x0, symName: __ZNSt3__116reverse_iteratorIPNS_6vectorIiNS_9allocatorIiEEEEEC1B8ue170006ES5_, symObjAddr: 0x7AC4, symBinAddr: 0x10001EEA8, symSize: 0x34 }
  - { offsetInCU: 0x1A66B, offset: 0x7D17F, size: 0x8, addend: 0x0, symName: __ZNKSt3__116reverse_iteratorIPNS_6vectorIiNS_9allocatorIiEEEEE4baseB8ue170006Ev, symObjAddr: 0x7AF8, symBinAddr: 0x10001EEDC, symSize: 0x18 }
  - { offsetInCU: 0x1A690, offset: 0x7D1A4, size: 0x8, addend: 0x0, symName: __ZNKSt3__16vectorINS0_IiNS_9allocatorIiEEEENS1_IS3_EEE14__annotate_newB8ue170006Em, symObjAddr: 0x7B4C, symBinAddr: 0x10001EF30, symSize: 0xC8 }
  - { offsetInCU: 0x1A6C4, offset: 0x7D1D8, size: 0x8, addend: 0x0, symName: __ZNSt3__129_AllocatorDestroyRangeReverseINS_9allocatorINS_6vectorIiNS1_IiEEEEEENS_16reverse_iteratorIPS4_EEEC1B8ue170006ERS5_RS8_SB_, symObjAddr: 0x7C60, symBinAddr: 0x10001F044, symSize: 0x44 }
  - { offsetInCU: 0x1A71A, offset: 0x7D22E, size: 0x8, addend: 0x0, symName: __ZNSt3__116allocator_traitsINS_9allocatorINS_6vectorIiNS1_IiEEEEEEE9constructB8ue170006IS4_JS4_EvEEvRS5_PT_DpOT0_, symObjAddr: 0x7CEC, symBinAddr: 0x10001F0D0, symSize: 0x34 }
  - { offsetInCU: 0x1A771, offset: 0x7D285, size: 0x8, addend: 0x0, symName: __ZNKSt3__116reverse_iteratorIPNS_6vectorIiNS_9allocatorIiEEEEEdeB8ue170006Ev, symObjAddr: 0x7D44, symBinAddr: 0x10001F128, symSize: 0x28 }
  - { offsetInCU: 0x1A7A4, offset: 0x7D2B8, size: 0x8, addend: 0x0, symName: __ZNSt3__116reverse_iteratorIPNS_6vectorIiNS_9allocatorIiEEEEEppB8ue170006Ev, symObjAddr: 0x7D6C, symBinAddr: 0x10001F150, symSize: 0x20 }
  - { offsetInCU: 0x1A7C9, offset: 0x7D2DD, size: 0x8, addend: 0x0, symName: __ZNSt3__128__exception_guard_exceptionsINS_29_AllocatorDestroyRangeReverseINS_9allocatorINS_6vectorIiNS2_IiEEEEEENS_16reverse_iteratorIPS5_EEEEE10__completeB8ue170006Ev, symObjAddr: 0x7D8C, symBinAddr: 0x10001F170, symSize: 0x1C }
  - { offsetInCU: 0x1A7EE, offset: 0x7D302, size: 0x8, addend: 0x0, symName: __ZNSt3__128__exception_guard_exceptionsINS_29_AllocatorDestroyRangeReverseINS_9allocatorINS_6vectorIiNS2_IiEEEEEENS_16reverse_iteratorIPS5_EEEEED1B8ue170006Ev, symObjAddr: 0x7DA8, symBinAddr: 0x10001F18C, symSize: 0x2C }
  - { offsetInCU: 0x1A817, offset: 0x7D32B, size: 0x8, addend: 0x0, symName: __ZNSt3__128__exception_guard_exceptionsINS_29_AllocatorDestroyRangeReverseINS_9allocatorINS_6vectorIiNS2_IiEEEEEENS_16reverse_iteratorIPS5_EEEEEC1B8ue170006ESA_, symObjAddr: 0x7DD4, symBinAddr: 0x10001F1B8, symSize: 0x34 }
  - { offsetInCU: 0x1A84F, offset: 0x7D363, size: 0x8, addend: 0x0, symName: __ZNSt3__128__exception_guard_exceptionsINS_29_AllocatorDestroyRangeReverseINS_9allocatorINS_6vectorIiNS2_IiEEEEEENS_16reverse_iteratorIPS5_EEEEEC2B8ue170006ESA_, symObjAddr: 0x7E08, symBinAddr: 0x10001F1EC, symSize: 0x30 }
  - { offsetInCU: 0x1A887, offset: 0x7D39B, size: 0x8, addend: 0x0, symName: __ZNSt3__129_AllocatorDestroyRangeReverseINS_9allocatorINS_6vectorIiNS1_IiEEEEEENS_16reverse_iteratorIPS4_EEEC2B8ue170006ERS5_RS8_SB_, symObjAddr: 0x7E38, symBinAddr: 0x10001F21C, symSize: 0x38 }
  - { offsetInCU: 0x1A8DD, offset: 0x7D3F1, size: 0x8, addend: 0x0, symName: __ZNSt3__19allocatorINS_6vectorIiNS0_IiEEEEE9constructB8ue170006IS3_JS3_EEEvPT_DpOT0_, symObjAddr: 0x7E70, symBinAddr: 0x10001F254, symSize: 0x30 }
  - { offsetInCU: 0x1A932, offset: 0x7D446, size: 0x8, addend: 0x0, symName: __ZNSt3__16vectorIiNS_9allocatorIiEEEC1B8ue170006EOS3_, symObjAddr: 0x7EA0, symBinAddr: 0x10001F284, symSize: 0x34 }
  - { offsetInCU: 0x1A96C, offset: 0x7D480, size: 0x8, addend: 0x0, symName: __ZNSt3__16vectorIiNS_9allocatorIiEEEC2B8ue170006EOS3_, symObjAddr: 0x7ED4, symBinAddr: 0x10001F2B8, symSize: 0xC4 }
  - { offsetInCU: 0x1A9AB, offset: 0x7D4BF, size: 0x8, addend: 0x0, symName: __ZNSt3__119__to_address_helperINS_16reverse_iteratorIPNS_6vectorIiNS_9allocatorIiEEEEEEvE6__callB8ue170006ERKS7_, symObjAddr: 0x7F98, symBinAddr: 0x10001F37C, symSize: 0x38 }
  - { offsetInCU: 0x1A9CE, offset: 0x7D4E2, size: 0x8, addend: 0x0, symName: __ZNKSt3__116reverse_iteratorIPNS_6vectorIiNS_9allocatorIiEEEEEptB8ue170006Ev, symObjAddr: 0x7FD0, symBinAddr: 0x10001F3B4, symSize: 0x24 }
  - { offsetInCU: 0x1A9F3, offset: 0x7D507, size: 0x8, addend: 0x0, symName: __ZNSt3__128__exception_guard_exceptionsINS_29_AllocatorDestroyRangeReverseINS_9allocatorINS_6vectorIiNS2_IiEEEEEENS_16reverse_iteratorIPS5_EEEEED2B8ue170006Ev, symObjAddr: 0x7FF4, symBinAddr: 0x10001F3D8, symSize: 0x50 }
  - { offsetInCU: 0x1AA1C, offset: 0x7D530, size: 0x8, addend: 0x0, symName: __ZNKSt3__129_AllocatorDestroyRangeReverseINS_9allocatorINS_6vectorIiNS1_IiEEEEEENS_16reverse_iteratorIPS4_EEEclB8ue170006Ev, symObjAddr: 0x8044, symBinAddr: 0x10001F428, symSize: 0xB4 }
  - { offsetInCU: 0x1AA42, offset: 0x7D556, size: 0x8, addend: 0x0, symName: __ZNSt3__116reverse_iteratorINS0_IPNS_6vectorIiNS_9allocatorIiEEEEEEEC1B8ue170006ES6_, symObjAddr: 0x8168, symBinAddr: 0x10001F54C, symSize: 0x3C }
  - { offsetInCU: 0x1AA79, offset: 0x7D58D, size: 0x8, addend: 0x0, symName: __ZNSt3__116reverse_iteratorINS0_IPNS_6vectorIiNS_9allocatorIiEEEEEEEppB8ue170006Ev, symObjAddr: 0x8228, symBinAddr: 0x10001F60C, symSize: 0x30 }
  - { offsetInCU: 0x1AA9E, offset: 0x7D5B2, size: 0x8, addend: 0x0, symName: __ZNKSt3__116reverse_iteratorINS0_IPNS_6vectorIiNS_9allocatorIiEEEEEEE4baseB8ue170006Ev, symObjAddr: 0x8258, symBinAddr: 0x10001F63C, symSize: 0x24 }
  - { offsetInCU: 0x1AAC8, offset: 0x7D5DC, size: 0x8, addend: 0x0, symName: __ZNSt3__119__to_address_helperINS_16reverse_iteratorINS1_IPNS_6vectorIiNS_9allocatorIiEEEEEEEEvE6__callB8ue170006ERKS8_, symObjAddr: 0x827C, symBinAddr: 0x10001F660, symSize: 0x38 }
  - { offsetInCU: 0x1AAEB, offset: 0x7D5FF, size: 0x8, addend: 0x0, symName: __ZNKSt3__116reverse_iteratorINS0_IPNS_6vectorIiNS_9allocatorIiEEEEEEEptB8ue170006Ev, symObjAddr: 0x82B4, symBinAddr: 0x10001F698, symSize: 0x24 }
  - { offsetInCU: 0x1AB10, offset: 0x7D624, size: 0x8, addend: 0x0, symName: __ZNKSt3__116reverse_iteratorINS0_IPNS_6vectorIiNS_9allocatorIiEEEEEEEdeB8ue170006Ev, symObjAddr: 0x82D8, symBinAddr: 0x10001F6BC, symSize: 0x34 }
  - { offsetInCU: 0x1AB43, offset: 0x7D657, size: 0x8, addend: 0x0, symName: __ZNSt3__116reverse_iteratorIPNS_6vectorIiNS_9allocatorIiEEEEEmmB8ue170006Ev, symObjAddr: 0x830C, symBinAddr: 0x10001F6F0, symSize: 0x20 }
  - { offsetInCU: 0x1AB68, offset: 0x7D67C, size: 0x8, addend: 0x0, symName: __ZNSt3__116reverse_iteratorINS0_IPNS_6vectorIiNS_9allocatorIiEEEEEEEC2B8ue170006ES6_, symObjAddr: 0x832C, symBinAddr: 0x10001F710, symSize: 0x2C }
  - { offsetInCU: 0x1AB9F, offset: 0x7D6B3, size: 0x8, addend: 0x0, symName: __ZNSt3__116reverse_iteratorIPNS_6vectorIiNS_9allocatorIiEEEEEC2B8ue170006ES5_, symObjAddr: 0x8358, symBinAddr: 0x10001F73C, symSize: 0x28 }
  - { offsetInCU: 0x1ABD6, offset: 0x7D6EA, size: 0x8, addend: 0x0, symName: __ZNSt3__114__split_bufferINS_6vectorIiNS_9allocatorIiEEEERNS2_IS4_EEED2Ev, symObjAddr: 0x8380, symBinAddr: 0x10001F764, symSize: 0x8C }
  - { offsetInCU: 0x1AC01, offset: 0x7D715, size: 0x8, addend: 0x0, symName: __ZNSt3__114__split_bufferINS_6vectorIiNS_9allocatorIiEEEERNS2_IS4_EEE5clearB8ue170006Ev, symObjAddr: 0x840C, symBinAddr: 0x10001F7F0, symSize: 0x28 }
  - { offsetInCU: 0x1AC26, offset: 0x7D73A, size: 0x8, addend: 0x0, symName: __ZNKSt3__114__split_bufferINS_6vectorIiNS_9allocatorIiEEEERNS2_IS4_EEE8capacityB8ue170006Ev, symObjAddr: 0x8434, symBinAddr: 0x10001F818, symSize: 0x40 }
  - { offsetInCU: 0x1AC4B, offset: 0x7D75F, size: 0x8, addend: 0x0, symName: __ZNSt3__114__split_bufferINS_6vectorIiNS_9allocatorIiEEEERNS2_IS4_EEE17__destruct_at_endB8ue170006EPS4_, symObjAddr: 0x8474, symBinAddr: 0x10001F858, symSize: 0x2C }
  - { offsetInCU: 0x1AC7E, offset: 0x7D792, size: 0x8, addend: 0x0, symName: __ZNSt3__114__split_bufferINS_6vectorIiNS_9allocatorIiEEEERNS2_IS4_EEE17__destruct_at_endB8ue170006EPS4_NS_17integral_constantIbLb0EEE, symObjAddr: 0x84A0, symBinAddr: 0x10001F884, symSize: 0x80 }
  - { offsetInCU: 0x1ACBD, offset: 0x7D7D1, size: 0x8, addend: 0x0, symName: __ZNKSt3__114__split_bufferINS_6vectorIiNS_9allocatorIiEEEERNS2_IS4_EEE9__end_capB8ue170006Ev, symObjAddr: 0x8520, symBinAddr: 0x10001F904, symSize: 0x28 }
  - { offsetInCU: 0x1ACE2, offset: 0x7D7F6, size: 0x8, addend: 0x0, symName: __ZNKSt3__117__compressed_pairIPNS_6vectorIiNS_9allocatorIiEEEERNS2_IS4_EEE5firstB8ue170006Ev, symObjAddr: 0x8548, symBinAddr: 0x10001F92C, symSize: 0x24 }
  - { offsetInCU: 0x26, offset: 0x7D9BC, size: 0x8, addend: 0x0, symName: __ZN5SceneC2ERKNSt3__112basic_stringIcNS0_11char_traitsIcEENS0_9allocatorIcEEEE, symObjAddr: 0x0, symBinAddr: 0x10001F950, symSize: 0x48 }
  - { offsetInCU: 0x48CC, offset: 0x82262, size: 0x8, addend: 0x0, symName: __ZN5SceneC2ERKNSt3__112basic_stringIcNS0_11char_traitsIcEENS0_9allocatorIcEEEE, symObjAddr: 0x0, symBinAddr: 0x10001F950, symSize: 0x48 }
  - { offsetInCU: 0x4905, offset: 0x8229B, size: 0x8, addend: 0x0, symName: __ZN5SceneC1ERKNSt3__112basic_stringIcNS0_11char_traitsIcEENS0_9allocatorIcEEEE, symObjAddr: 0x48, symBinAddr: 0x10001F998, symSize: 0x34 }
  - { offsetInCU: 0x493E, offset: 0x822D4, size: 0x8, addend: 0x0, symName: __ZNK5Scene7getNameEv, symObjAddr: 0x7C, symBinAddr: 0x10001F9CC, symSize: 0x3C }
  - { offsetInCU: 0x4965, offset: 0x822FB, size: 0x8, addend: 0x0, symName: __ZN5SceneD1Ev, symObjAddr: 0xB8, symBinAddr: 0x10001FA08, symSize: 0x2C }
  - { offsetInCU: 0x498E, offset: 0x82324, size: 0x8, addend: 0x0, symName: __ZN5SceneD0Ev, symObjAddr: 0xE4, symBinAddr: 0x10001FA34, symSize: 0x30 }
  - { offsetInCU: 0x49B7, offset: 0x8234D, size: 0x8, addend: 0x0, symName: __ZN5Scene6updateEf, symObjAddr: 0x114, symBinAddr: 0x10001FA64, symSize: 0x14 }
  - { offsetInCU: 0x49EA, offset: 0x82380, size: 0x8, addend: 0x0, symName: __ZN5Scene4drawEv, symObjAddr: 0x128, symBinAddr: 0x10001FA78, symSize: 0x10 }
  - { offsetInCU: 0x4A0F, offset: 0x823A5, size: 0x8, addend: 0x0, symName: __ZN5Scene7onEnterEv, symObjAddr: 0x138, symBinAddr: 0x10001FA88, symSize: 0x10 }
  - { offsetInCU: 0x4A34, offset: 0x823CA, size: 0x8, addend: 0x0, symName: __ZN5Scene6onExitEv, symObjAddr: 0x148, symBinAddr: 0x10001FA98, symSize: 0x10 }
  - { offsetInCU: 0x4A59, offset: 0x823EF, size: 0x8, addend: 0x0, symName: __ZN5SceneD2Ev, symObjAddr: 0x158, symBinAddr: 0x10001FAA8, symSize: 0x40 }
  - { offsetInCU: 0x5D66, offset: 0x88188, size: 0x8, addend: 0x0, symName: __ZNSt3__1neB8ue170006ERKNS_19__hash_map_iteratorINS_15__hash_iteratorIPNS_11__hash_nodeINS_17__hash_value_typeINS_12basic_stringIcNS_11char_traitsIcEENS_9allocatorIcEEEENS_8functionIFNS_10unique_ptrI5SceneNS_14default_deleteISC_EEEEvEEEEEPvEEEEEESP_, symObjAddr: 0x300, symBinAddr: 0x10001FDE8, symSize: 0x30 }
  - { offsetInCU: 0x5DD6, offset: 0x881F8, size: 0x8, addend: 0x0, symName: __ZNSt3__17launderB8ue170006INS_4pairIKNS_12basic_stringIcNS_11char_traitsIcEENS_9allocatorIcEEEENS_8functionIFNS_10unique_ptrI5SceneNS_14default_deleteISB_EEEEvEEEEEEEPT_SJ_, symObjAddr: 0xF48, symBinAddr: 0x1000208C8, symSize: 0x24 }
  - { offsetInCU: 0x5E0D, offset: 0x8822F, size: 0x8, addend: 0x0, symName: __ZNSt3__19__launderB8ue170006INS_4pairIKNS_12basic_stringIcNS_11char_traitsIcEENS_9allocatorIcEEEENS_8functionIFNS_10unique_ptrI5SceneNS_14default_deleteISB_EEEEvEEEEEEEPT_SJ_, symObjAddr: 0xF6C, symBinAddr: 0x1000208EC, symSize: 0x14 }
  - { offsetInCU: 0x5E44, offset: 0x88266, size: 0x8, addend: 0x0, symName: __ZNSt3__17launderB8ue170006IKNS_4pairIKNS_12basic_stringIcNS_11char_traitsIcEENS_9allocatorIcEEEENS_8functionIFNS_10unique_ptrI5SceneNS_14default_deleteISB_EEEEvEEEEEEEPT_SK_, symObjAddr: 0x32A0, symBinAddr: 0x1000217A4, symSize: 0x24 }
  - { offsetInCU: 0x5E7B, offset: 0x8829D, size: 0x8, addend: 0x0, symName: __ZNSt3__19__launderB8ue170006IKNS_4pairIKNS_12basic_stringIcNS_11char_traitsIcEENS_9allocatorIcEEEENS_8functionIFNS_10unique_ptrI5SceneNS_14default_deleteISB_EEEEvEEEEEEEPT_SK_, symObjAddr: 0x32C4, symBinAddr: 0x1000217C8, symSize: 0x14 }
  - { offsetInCU: 0x5F03, offset: 0x88325, size: 0x8, addend: 0x0, symName: __ZNSt3__14swapB8ue170006IPNS_10__function6__baseIFNS_10unique_ptrI5SceneNS_14default_deleteIS4_EEEEvEEEEENS_9enable_ifIXaasr21is_move_constructibleIT_EE5valuesr18is_move_assignableISC_EE5valueEvE4typeERSC_SF_, symObjAddr: 0x4720, symBinAddr: 0x1000228F0, symSize: 0x3C }
  - { offsetInCU: 0x5F54, offset: 0x88376, size: 0x8, addend: 0x0, symName: __ZNSt3__1neB8ue170006ERKNS_15__hash_iteratorIPNS_11__hash_nodeINS_17__hash_value_typeINS_12basic_stringIcNS_11char_traitsIcEENS_9allocatorIcEEEENS_8functionIFNS_10unique_ptrI5SceneNS_14default_deleteISB_EEEEvEEEEEPvEEEESN_, symObjAddr: 0x498C, symBinAddr: 0x100022B5C, symSize: 0x34 }
  - { offsetInCU: 0x5F91, offset: 0x883B3, size: 0x8, addend: 0x0, symName: __ZNSt3__1eqB8ue170006ERKNS_15__hash_iteratorIPNS_11__hash_nodeINS_17__hash_value_typeINS_12basic_stringIcNS_11char_traitsIcEENS_9allocatorIcEEEENS_8functionIFNS_10unique_ptrI5SceneNS_14default_deleteISB_EEEEvEEEEEPvEEEESN_, symObjAddr: 0x49C0, symBinAddr: 0x100022B90, symSize: 0x30 }
  - { offsetInCU: 0x6001, offset: 0x88423, size: 0x8, addend: 0x0, symName: __ZNSt3__125__throw_bad_function_callB8ue170006Ev, symObjAddr: 0x4A60, symBinAddr: 0x100022C30, symSize: 0x38 }
  - { offsetInCU: 0x67DC, offset: 0x88BFE, size: 0x8, addend: 0x0, symName: __ZN12SceneFactory8instanceEv, symObjAddr: 0x0, symBinAddr: 0x10001FAE8, symSize: 0x94 }
  - { offsetInCU: 0x67FE, offset: 0x88C20, size: 0x8, addend: 0x0, symName: __ZZN12SceneFactory8instanceEvE7factory, symObjAddr: 0x47A38, symBinAddr: 0x10003C508, symSize: 0x0 }
  - { offsetInCU: 0x8638, offset: 0x8AA5A, size: 0x8, addend: 0x0, symName: __ZN12SceneFactoryC1Ev, symObjAddr: 0x94, symBinAddr: 0x10001FB7C, symSize: 0x2C }
  - { offsetInCU: 0x8661, offset: 0x8AA83, size: 0x8, addend: 0x0, symName: __ZN12SceneFactoryD1Ev, symObjAddr: 0xC0, symBinAddr: 0x10001FBA8, symSize: 0x2C }
  - { offsetInCU: 0x868C, offset: 0x8AAAE, size: 0x8, addend: 0x0, symName: __ZN12SceneFactory13registerSceneERKNSt3__112basic_stringIcNS0_11char_traitsIcEENS0_9allocatorIcEEEENS0_8functionIFNS0_10unique_ptrI5SceneNS0_14default_deleteISB_EEEEvEEE, symObjAddr: 0xEC, symBinAddr: 0x10001FBD4, symSize: 0x3C }
  - { offsetInCU: 0x86D0, offset: 0x8AAF2, size: 0x8, addend: 0x0, symName: __ZNSt3__113unordered_mapINS_12basic_stringIcNS_11char_traitsIcEENS_9allocatorIcEEEENS_8functionIFNS_10unique_ptrI5SceneNS_14default_deleteIS9_EEEEvEEENS_4hashIS6_EENS_8equal_toIS6_EENS4_INS_4pairIKS6_SE_EEEEEixERSK_, symObjAddr: 0x128, symBinAddr: 0x10001FC10, symSize: 0x80 }
  - { offsetInCU: 0x8705, offset: 0x8AB27, size: 0x8, addend: 0x0, symName: __ZNSt3__18functionIFNS_10unique_ptrI5SceneNS_14default_deleteIS2_EEEEvEEaSERKS7_, symObjAddr: 0x1A8, symBinAddr: 0x10001FC90, symSize: 0x84 }
  - { offsetInCU: 0x873A, offset: 0x8AB5C, size: 0x8, addend: 0x0, symName: __ZN12SceneFactory11createSceneERKNSt3__112basic_stringIcNS0_11char_traitsIcEENS0_9allocatorIcEEEE, symObjAddr: 0x22C, symBinAddr: 0x10001FD14, symSize: 0x94 }
  - { offsetInCU: 0x877D, offset: 0x8AB9F, size: 0x8, addend: 0x0, symName: __ZNSt3__113unordered_mapINS_12basic_stringIcNS_11char_traitsIcEENS_9allocatorIcEEEENS_8functionIFNS_10unique_ptrI5SceneNS_14default_deleteIS9_EEEEvEEENS_4hashIS6_EENS_8equal_toIS6_EENS4_INS_4pairIKS6_SE_EEEEE4findB8ue170006ERSK_, symObjAddr: 0x2C0, symBinAddr: 0x10001FDA8, symSize: 0x40 }
  - { offsetInCU: 0x87B1, offset: 0x8ABD3, size: 0x8, addend: 0x0, symName: __ZNSt3__113unordered_mapINS_12basic_stringIcNS_11char_traitsIcEENS_9allocatorIcEEEENS_8functionIFNS_10unique_ptrI5SceneNS_14default_deleteIS9_EEEEvEEENS_4hashIS6_EENS_8equal_toIS6_EENS4_INS_4pairIKS6_SE_EEEEE3endB8ue170006Ev, symObjAddr: 0x330, symBinAddr: 0x10001FE18, symSize: 0x38 }
  - { offsetInCU: 0x87D6, offset: 0x8ABF8, size: 0x8, addend: 0x0, symName: __ZNKSt3__119__hash_map_iteratorINS_15__hash_iteratorIPNS_11__hash_nodeINS_17__hash_value_typeINS_12basic_stringIcNS_11char_traitsIcEENS_9allocatorIcEEEENS_8functionIFNS_10unique_ptrI5SceneNS_14default_deleteISC_EEEEvEEEEEPvEEEEEptB8ue170006Ev, symObjAddr: 0x368, symBinAddr: 0x10001FE50, symSize: 0x2C }
  - { offsetInCU: 0x87FB, offset: 0x8AC1D, size: 0x8, addend: 0x0, symName: __ZNKSt3__18functionIFNS_10unique_ptrI5SceneNS_14default_deleteIS2_EEEEvEEclEv, symObjAddr: 0x394, symBinAddr: 0x10001FE7C, symSize: 0x2C }
  - { offsetInCU: 0x8821, offset: 0x8AC43, size: 0x8, addend: 0x0, symName: __ZNSt3__110unique_ptrI5SceneNS_14default_deleteIS1_EEEC1B8ue170006ILb1EvEEDn, symObjAddr: 0x3C0, symBinAddr: 0x10001FEA8, symSize: 0x34 }
  - { offsetInCU: 0x8860, offset: 0x8AC82, size: 0x8, addend: 0x0, symName: __ZN12SceneFactoryC2Ev, symObjAddr: 0x3F4, symBinAddr: 0x10001FEDC, symSize: 0x2C }
  - { offsetInCU: 0x8889, offset: 0x8ACAB, size: 0x8, addend: 0x0, symName: __ZNSt3__113unordered_mapINS_12basic_stringIcNS_11char_traitsIcEENS_9allocatorIcEEEENS_8functionIFNS_10unique_ptrI5SceneNS_14default_deleteIS9_EEEEvEEENS_4hashIS6_EENS_8equal_toIS6_EENS4_INS_4pairIKS6_SE_EEEEEC1B8ue170006Ev, symObjAddr: 0x420, symBinAddr: 0x10001FF08, symSize: 0x2C }
  - { offsetInCU: 0x88B2, offset: 0x8ACD4, size: 0x8, addend: 0x0, symName: __ZNSt3__113unordered_mapINS_12basic_stringIcNS_11char_traitsIcEENS_9allocatorIcEEEENS_8functionIFNS_10unique_ptrI5SceneNS_14default_deleteIS9_EEEEvEEENS_4hashIS6_EENS_8equal_toIS6_EENS4_INS_4pairIKS6_SE_EEEEEC2B8ue170006Ev, symObjAddr: 0x44C, symBinAddr: 0x10001FF34, symSize: 0x2C }
  - { offsetInCU: 0x88DB, offset: 0x8ACFD, size: 0x8, addend: 0x0, symName: __ZNSt3__112__hash_tableINS_17__hash_value_typeINS_12basic_stringIcNS_11char_traitsIcEENS_9allocatorIcEEEENS_8functionIFNS_10unique_ptrI5SceneNS_14default_deleteISA_EEEEvEEEEENS_22__unordered_map_hasherIS7_SG_NS_4hashIS7_EENS_8equal_toIS7_EELb1EEENS_21__unordered_map_equalIS7_SG_SL_SJ_Lb1EEENS5_ISG_EEEC1Ev, symObjAddr: 0x478, symBinAddr: 0x10001FF60, symSize: 0x2C }
  - { offsetInCU: 0x8906, offset: 0x8AD28, size: 0x8, addend: 0x0, symName: __ZNSt3__112__hash_tableINS_17__hash_value_typeINS_12basic_stringIcNS_11char_traitsIcEENS_9allocatorIcEEEENS_8functionIFNS_10unique_ptrI5SceneNS_14default_deleteISA_EEEEvEEEEENS_22__unordered_map_hasherIS7_SG_NS_4hashIS7_EENS_8equal_toIS7_EELb1EEENS_21__unordered_map_equalIS7_SG_SL_SJ_Lb1EEENS5_ISG_EEEC2Ev, symObjAddr: 0x4A4, symBinAddr: 0x10001FF8C, symSize: 0x7C }
  - { offsetInCU: 0x8931, offset: 0x8AD53, size: 0x8, addend: 0x0, symName: __ZNSt3__110unique_ptrIA_PNS_16__hash_node_baseIPNS_11__hash_nodeINS_17__hash_value_typeINS_12basic_stringIcNS_11char_traitsIcEENS_9allocatorIcEEEENS_8functionIFNS0_I5SceneNS_14default_deleteISB_EEEEvEEEEEPvEEEENS_25__bucket_list_deallocatorINS7_ISM_EEEEEC1B8ue170006ILb1EvEEv, symObjAddr: 0x520, symBinAddr: 0x100020008, symSize: 0x2C }
  - { offsetInCU: 0x8965, offset: 0x8AD87, size: 0x8, addend: 0x0, symName: __ZNSt3__117__compressed_pairINS_16__hash_node_baseIPNS_11__hash_nodeINS_17__hash_value_typeINS_12basic_stringIcNS_11char_traitsIcEENS_9allocatorIcEEEENS_8functionIFNS_10unique_ptrI5SceneNS_14default_deleteISC_EEEEvEEEEEPvEEEENS7_ISK_EEEC1B8ue170006ILb1EvEEv, symObjAddr: 0x54C, symBinAddr: 0x100020034, symSize: 0x2C }
  - { offsetInCU: 0x89A3, offset: 0x8ADC5, size: 0x8, addend: 0x0, symName: __ZNSt3__117__compressed_pairImNS_22__unordered_map_hasherINS_12basic_stringIcNS_11char_traitsIcEENS_9allocatorIcEEEENS_17__hash_value_typeIS7_NS_8functionIFNS_10unique_ptrI5SceneNS_14default_deleteISB_EEEEvEEEEENS_4hashIS7_EENS_8equal_toIS7_EELb1EEEEC1B8ue170006IiNS_18__default_init_tagEEEOT_OT0_, symObjAddr: 0x584, symBinAddr: 0x100020060, symSize: 0x3C }
  - { offsetInCU: 0x89FF, offset: 0x8AE21, size: 0x8, addend: 0x0, symName: __ZNSt3__117__compressed_pairIfNS_21__unordered_map_equalINS_12basic_stringIcNS_11char_traitsIcEENS_9allocatorIcEEEENS_17__hash_value_typeIS7_NS_8functionIFNS_10unique_ptrI5SceneNS_14default_deleteISB_EEEEvEEEEENS_8equal_toIS7_EENS_4hashIS7_EELb1EEEEC1B8ue170006IfNS_18__default_init_tagEEEOT_OT0_, symObjAddr: 0x5C0, symBinAddr: 0x10002009C, symSize: 0x3C }
  - { offsetInCU: 0x8A56, offset: 0x8AE78, size: 0x8, addend: 0x0, symName: __ZNSt3__110unique_ptrIA_PNS_16__hash_node_baseIPNS_11__hash_nodeINS_17__hash_value_typeINS_12basic_stringIcNS_11char_traitsIcEENS_9allocatorIcEEEENS_8functionIFNS0_I5SceneNS_14default_deleteISB_EEEEvEEEEEPvEEEENS_25__bucket_list_deallocatorINS7_ISM_EEEEEC2B8ue170006ILb1EvEEv, symObjAddr: 0x5FC, symBinAddr: 0x1000200D8, symSize: 0x3C }
  - { offsetInCU: 0x8A8F, offset: 0x8AEB1, size: 0x8, addend: 0x0, symName: __ZNSt3__117__compressed_pairIPPNS_16__hash_node_baseIPNS_11__hash_nodeINS_17__hash_value_typeINS_12basic_stringIcNS_11char_traitsIcEENS_9allocatorIcEEEENS_8functionIFNS_10unique_ptrI5SceneNS_14default_deleteISC_EEEEvEEEEEPvEEEENS_25__bucket_list_deallocatorINS7_ISN_EEEEEC1B8ue170006INS_16__value_init_tagESU_EEOT_OT0_, symObjAddr: 0x638, symBinAddr: 0x100020114, symSize: 0x3C }
  - { offsetInCU: 0x8AE6, offset: 0x8AF08, size: 0x8, addend: 0x0, symName: __ZNSt3__117__compressed_pairIPPNS_16__hash_node_baseIPNS_11__hash_nodeINS_17__hash_value_typeINS_12basic_stringIcNS_11char_traitsIcEENS_9allocatorIcEEEENS_8functionIFNS_10unique_ptrI5SceneNS_14default_deleteISC_EEEEvEEEEEPvEEEENS_25__bucket_list_deallocatorINS7_ISN_EEEEEC2B8ue170006INS_16__value_init_tagESU_EEOT_OT0_, symObjAddr: 0x674, symBinAddr: 0x100020150, symSize: 0x40 }
  - { offsetInCU: 0x8B3D, offset: 0x8AF5F, size: 0x8, addend: 0x0, symName: __ZNSt3__122__compressed_pair_elemIPPNS_16__hash_node_baseIPNS_11__hash_nodeINS_17__hash_value_typeINS_12basic_stringIcNS_11char_traitsIcEENS_9allocatorIcEEEENS_8functionIFNS_10unique_ptrI5SceneNS_14default_deleteISC_EEEEvEEEEEPvEEEELi0ELb0EEC2B8ue170006ENS_16__value_init_tagE, symObjAddr: 0x6B4, symBinAddr: 0x100020190, symSize: 0x18 }
  - { offsetInCU: 0x8B71, offset: 0x8AF93, size: 0x8, addend: 0x0, symName: __ZNSt3__122__compressed_pair_elemINS_25__bucket_list_deallocatorINS_9allocatorIPNS_16__hash_node_baseIPNS_11__hash_nodeINS_17__hash_value_typeINS_12basic_stringIcNS_11char_traitsIcEENS2_IcEEEENS_8functionIFNS_10unique_ptrI5SceneNS_14default_deleteISD_EEEEvEEEEEPvEEEEEEEELi1ELb0EEC2B8ue170006ENS_16__value_init_tagE, symObjAddr: 0x6CC, symBinAddr: 0x1000201A8, symSize: 0x2C }
  - { offsetInCU: 0x8BA5, offset: 0x8AFC7, size: 0x8, addend: 0x0, symName: __ZNSt3__125__bucket_list_deallocatorINS_9allocatorIPNS_16__hash_node_baseIPNS_11__hash_nodeINS_17__hash_value_typeINS_12basic_stringIcNS_11char_traitsIcEENS1_IcEEEENS_8functionIFNS_10unique_ptrI5SceneNS_14default_deleteISC_EEEEvEEEEEPvEEEEEEEC1B8ue170006Ev, symObjAddr: 0x6F8, symBinAddr: 0x1000201D4, symSize: 0x2C }
  - { offsetInCU: 0x8BCE, offset: 0x8AFF0, size: 0x8, addend: 0x0, symName: __ZNSt3__125__bucket_list_deallocatorINS_9allocatorIPNS_16__hash_node_baseIPNS_11__hash_nodeINS_17__hash_value_typeINS_12basic_stringIcNS_11char_traitsIcEENS1_IcEEEENS_8functionIFNS_10unique_ptrI5SceneNS_14default_deleteISC_EEEEvEEEEEPvEEEEEEEC2B8ue170006Ev, symObjAddr: 0x724, symBinAddr: 0x100020200, symSize: 0x40 }
  - { offsetInCU: 0x8BF7, offset: 0x8B019, size: 0x8, addend: 0x0, symName: __ZNSt3__117__compressed_pairImNS_9allocatorIPNS_16__hash_node_baseIPNS_11__hash_nodeINS_17__hash_value_typeINS_12basic_stringIcNS_11char_traitsIcEENS1_IcEEEENS_8functionIFNS_10unique_ptrI5SceneNS_14default_deleteISC_EEEEvEEEEEPvEEEEEEEC1B8ue170006IiNS_18__default_init_tagEEEOT_OT0_, symObjAddr: 0x764, symBinAddr: 0x100020240, symSize: 0x3C }
  - { offsetInCU: 0x8C4E, offset: 0x8B070, size: 0x8, addend: 0x0, symName: __ZNSt3__117__compressed_pairImNS_9allocatorIPNS_16__hash_node_baseIPNS_11__hash_nodeINS_17__hash_value_typeINS_12basic_stringIcNS_11char_traitsIcEENS1_IcEEEENS_8functionIFNS_10unique_ptrI5SceneNS_14default_deleteISC_EEEEvEEEEEPvEEEEEEEC2B8ue170006IiNS_18__default_init_tagEEEOT_OT0_, symObjAddr: 0x7A0, symBinAddr: 0x10002027C, symSize: 0x40 }
  - { offsetInCU: 0x8CA5, offset: 0x8B0C7, size: 0x8, addend: 0x0, symName: __ZNSt3__122__compressed_pair_elemINS_9allocatorIPNS_16__hash_node_baseIPNS_11__hash_nodeINS_17__hash_value_typeINS_12basic_stringIcNS_11char_traitsIcEENS1_IcEEEENS_8functionIFNS_10unique_ptrI5SceneNS_14default_deleteISC_EEEEvEEEEEPvEEEEEELi1ELb1EEC2B8ue170006ENS_18__default_init_tagE, symObjAddr: 0x804, symBinAddr: 0x1000202BC, symSize: 0x2C }
  - { offsetInCU: 0x8CD9, offset: 0x8B0FB, size: 0x8, addend: 0x0, symName: __ZNSt3__19allocatorIPNS_16__hash_node_baseIPNS_11__hash_nodeINS_17__hash_value_typeINS_12basic_stringIcNS_11char_traitsIcEENS0_IcEEEENS_8functionIFNS_10unique_ptrI5SceneNS_14default_deleteISB_EEEEvEEEEEPvEEEEEC2B8ue170006Ev, symObjAddr: 0x830, symBinAddr: 0x1000202E8, symSize: 0x2C }
  - { offsetInCU: 0x8D02, offset: 0x8B124, size: 0x8, addend: 0x0, symName: __ZNSt3__116__non_trivial_ifILb1ENS_9allocatorIPNS_16__hash_node_baseIPNS_11__hash_nodeINS_17__hash_value_typeINS_12basic_stringIcNS_11char_traitsIcEENS1_IcEEEENS_8functionIFNS_10unique_ptrI5SceneNS_14default_deleteISC_EEEEvEEEEEPvEEEEEEEC2B8ue170006Ev, symObjAddr: 0x85C, symBinAddr: 0x100020314, symSize: 0x14 }
  - { offsetInCU: 0x8D2B, offset: 0x8B14D, size: 0x8, addend: 0x0, symName: __ZNSt3__117__compressed_pairINS_16__hash_node_baseIPNS_11__hash_nodeINS_17__hash_value_typeINS_12basic_stringIcNS_11char_traitsIcEENS_9allocatorIcEEEENS_8functionIFNS_10unique_ptrI5SceneNS_14default_deleteISC_EEEEvEEEEEPvEEEENS7_ISK_EEEC2B8ue170006ILb1EvEEv, symObjAddr: 0x870, symBinAddr: 0x100020328, symSize: 0x34 }
  - { offsetInCU: 0x8D5F, offset: 0x8B181, size: 0x8, addend: 0x0, symName: __ZNSt3__122__compressed_pair_elemINS_16__hash_node_baseIPNS_11__hash_nodeINS_17__hash_value_typeINS_12basic_stringIcNS_11char_traitsIcEENS_9allocatorIcEEEENS_8functionIFNS_10unique_ptrI5SceneNS_14default_deleteISC_EEEEvEEEEEPvEEEELi0ELb0EEC2B8ue170006ENS_16__value_init_tagE, symObjAddr: 0x8A4, symBinAddr: 0x10002035C, symSize: 0x2C }
  - { offsetInCU: 0x8D93, offset: 0x8B1B5, size: 0x8, addend: 0x0, symName: __ZNSt3__122__compressed_pair_elemINS_9allocatorINS_11__hash_nodeINS_17__hash_value_typeINS_12basic_stringIcNS_11char_traitsIcEENS1_IcEEEENS_8functionIFNS_10unique_ptrI5SceneNS_14default_deleteISB_EEEEvEEEEEPvEEEELi1ELb1EEC2B8ue170006ENS_16__value_init_tagE, symObjAddr: 0x8D0, symBinAddr: 0x100020388, symSize: 0x2C }
  - { offsetInCU: 0x8DC7, offset: 0x8B1E9, size: 0x8, addend: 0x0, symName: __ZNSt3__116__hash_node_baseIPNS_11__hash_nodeINS_17__hash_value_typeINS_12basic_stringIcNS_11char_traitsIcEENS_9allocatorIcEEEENS_8functionIFNS_10unique_ptrI5SceneNS_14default_deleteISB_EEEEvEEEEEPvEEEC1B8ue170006Ev, symObjAddr: 0x8FC, symBinAddr: 0x1000203B4, symSize: 0x2C }
  - { offsetInCU: 0x8DF0, offset: 0x8B212, size: 0x8, addend: 0x0, symName: __ZNSt3__116__hash_node_baseIPNS_11__hash_nodeINS_17__hash_value_typeINS_12basic_stringIcNS_11char_traitsIcEENS_9allocatorIcEEEENS_8functionIFNS_10unique_ptrI5SceneNS_14default_deleteISB_EEEEvEEEEEPvEEEC2B8ue170006Ev, symObjAddr: 0x928, symBinAddr: 0x1000203E0, symSize: 0x18 }
  - { offsetInCU: 0x8E19, offset: 0x8B23B, size: 0x8, addend: 0x0, symName: __ZNSt3__19allocatorINS_11__hash_nodeINS_17__hash_value_typeINS_12basic_stringIcNS_11char_traitsIcEENS0_IcEEEENS_8functionIFNS_10unique_ptrI5SceneNS_14default_deleteISA_EEEEvEEEEEPvEEEC2B8ue170006Ev, symObjAddr: 0x940, symBinAddr: 0x1000203F8, symSize: 0x2C }
  - { offsetInCU: 0x8E42, offset: 0x8B264, size: 0x8, addend: 0x0, symName: __ZNSt3__116__non_trivial_ifILb1ENS_9allocatorINS_11__hash_nodeINS_17__hash_value_typeINS_12basic_stringIcNS_11char_traitsIcEENS1_IcEEEENS_8functionIFNS_10unique_ptrI5SceneNS_14default_deleteISB_EEEEvEEEEEPvEEEEEC2B8ue170006Ev, symObjAddr: 0x96C, symBinAddr: 0x100020424, symSize: 0x14 }
  - { offsetInCU: 0x8E6B, offset: 0x8B28D, size: 0x8, addend: 0x0, symName: __ZNSt3__117__compressed_pairImNS_22__unordered_map_hasherINS_12basic_stringIcNS_11char_traitsIcEENS_9allocatorIcEEEENS_17__hash_value_typeIS7_NS_8functionIFNS_10unique_ptrI5SceneNS_14default_deleteISB_EEEEvEEEEENS_4hashIS7_EENS_8equal_toIS7_EELb1EEEEC2B8ue170006IiNS_18__default_init_tagEEEOT_OT0_, symObjAddr: 0x980, symBinAddr: 0x100020438, symSize: 0x40 }
  - { offsetInCU: 0x8EC2, offset: 0x8B2E4, size: 0x8, addend: 0x0, symName: __ZNSt3__122__compressed_pair_elemINS_22__unordered_map_hasherINS_12basic_stringIcNS_11char_traitsIcEENS_9allocatorIcEEEENS_17__hash_value_typeIS7_NS_8functionIFNS_10unique_ptrI5SceneNS_14default_deleteISB_EEEEvEEEEENS_4hashIS7_EENS_8equal_toIS7_EELb1EEELi1ELb1EEC2B8ue170006ENS_18__default_init_tagE, symObjAddr: 0x9C0, symBinAddr: 0x100020478, symSize: 0x2C }
  - { offsetInCU: 0x8EF6, offset: 0x8B318, size: 0x8, addend: 0x0, symName: __ZNSt3__122__unordered_map_hasherINS_12basic_stringIcNS_11char_traitsIcEENS_9allocatorIcEEEENS_17__hash_value_typeIS6_NS_8functionIFNS_10unique_ptrI5SceneNS_14default_deleteISA_EEEEvEEEEENS_4hashIS6_EENS_8equal_toIS6_EELb1EEC2B8ue170006Ev, symObjAddr: 0x9EC, symBinAddr: 0x1000204A4, symSize: 0x14 }
  - { offsetInCU: 0x8F1F, offset: 0x8B341, size: 0x8, addend: 0x0, symName: __ZNSt3__117__compressed_pairIfNS_21__unordered_map_equalINS_12basic_stringIcNS_11char_traitsIcEENS_9allocatorIcEEEENS_17__hash_value_typeIS7_NS_8functionIFNS_10unique_ptrI5SceneNS_14default_deleteISB_EEEEvEEEEENS_8equal_toIS7_EENS_4hashIS7_EELb1EEEEC2B8ue170006IfNS_18__default_init_tagEEEOT_OT0_, symObjAddr: 0xA00, symBinAddr: 0x1000204B8, symSize: 0x40 }
  - { offsetInCU: 0x8F76, offset: 0x8B398, size: 0x8, addend: 0x0, symName: __ZNSt3__122__compressed_pair_elemINS_21__unordered_map_equalINS_12basic_stringIcNS_11char_traitsIcEENS_9allocatorIcEEEENS_17__hash_value_typeIS7_NS_8functionIFNS_10unique_ptrI5SceneNS_14default_deleteISB_EEEEvEEEEENS_8equal_toIS7_EENS_4hashIS7_EELb1EEELi1ELb1EEC2B8ue170006ENS_18__default_init_tagE, symObjAddr: 0xA64, symBinAddr: 0x1000204F8, symSize: 0x2C }
